
LCD_I2C.elf:     file format elf32-avr

Sections:
Idx Name          Size      VMA       LMA       File off  Algn
  0 .text         000000ae  00000000  00000000  000000b4  2**1
                  CONTENTS, ALLOC, LOAD, READONLY, CODE
  1 .data         00000000  00800060  00800060  0000233c  2**0
                  ALLOC, LOAD, DATA
  2 .bss          00000002  00800060  00800060  0000233c  2**0
                  ALLOC
  3 .comment      0000002f  00000000  00000000  0000233c  2**0
                  CONTENTS, READONLY
  4 .stack.descriptors.hdr 0000015e  00000000  00000000  0000236b  2**0
                  CONTENTS, READONLY
  5 .debug_aranges 00000168  00000000  00000000  000024c9  2**0
                  CONTENTS, READONLY, DEBUGGING
  6 .debug_info   0000205b  00000000  00000000  00002631  2**0
                  CONTENTS, READONLY, DEBUGGING
  7 .debug_abbrev 00000938  00000000  00000000  0000468c  2**0
                  CONTENTS, READONLY, DEBUGGING
  8 .debug_line   00000a3d  00000000  00000000  00004fc4  2**0
                  CONTENTS, READONLY, DEBUGGING
  9 .debug_frame  0000037c  00000000  00000000  00005a04  2**2
                  CONTENTS, READONLY, DEBUGGING
 10 .debug_str    0000023c  00000000  00000000  00005d80  2**0
                  CONTENTS, READONLY, DEBUGGING
 11 .debug_loc    0000100f  00000000  00000000  00005fbc  2**0
                  CONTENTS, READONLY, DEBUGGING
 12 .debug_ranges 00000138  00000000  00000000  00006fcb  2**0
                  CONTENTS, READONLY, DEBUGGING
 13 .text         00000004  0000227a  0000227a  0000232e  2**1
                  CONTENTS, ALLOC, LOAD, READONLY, CODE
 14 .note.gnu.avr.deviceinfo 0000003c  00000000  00000000  00007104  2**2
                  CONTENTS, READONLY, DEBUGGING
 15 .text.lq_transmitI2C 0000000e  000021c2  000021c2  00002276  2**1
                  CONTENTS, ALLOC, LOAD, READONLY, CODE
 16 .text.lq_turnOnBacklight 0000000e  000021d0  000021d0  00002284  2**1
                  CONTENTS, ALLOC, LOAD, READONLY, CODE
 17 .text.lq_writeDevicePulse 00000036  00001f02  00001f02  00001fb6  2**1
                  CONTENTS, ALLOC, LOAD, READONLY, CODE
 18 .text.lq_writeDevice4Bits 0000001e  000020ac  000020ac  00002160  2**1
                  CONTENTS, ALLOC, LOAD, READONLY, CODE
 19 .text.lq_writeDeviceByte 0000003a  00001e90  00001e90  00001f44  2**1
                  CONTENTS, ALLOC, LOAD, READONLY, CODE
 20 .text.lq_print 00000042  00001d94  00001d94  00001e48  2**1
                  CONTENTS, ALLOC, LOAD, READONLY, CODE
 21 .text.lq_sendCommand 00000008  00002244  00002244  000022f8  2**1
                  CONTENTS, ALLOC, LOAD, READONLY, CODE
 22 .text.lq_setCursor 0000003e  00001e16  00001e16  00001eca  2**1
                  CONTENTS, ALLOC, LOAD, READONLY, CODE
 23 .text.lq_clear 00000028  00001fca  00001fca  0000207e  2**1
                  CONTENTS, ALLOC, LOAD, READONLY, CODE
 24 .text.lq_returnHome 00000014  0000217a  0000217a  0000222e  2**1
                  CONTENTS, ALLOC, LOAD, READONLY, CODE
 25 .text.lq_turnOnDisplay 00000012  0000218e  0000218e  00002242  2**1
                  CONTENTS, ALLOC, LOAD, READONLY, CODE
 26 .text.lq_init 0000011c  0000139c  0000139c  00001450  2**1
                  CONTENTS, ALLOC, LOAD, READONLY, CODE
 27 .text.i2c_master_start 00000048  00001cc0  00001cc0  00001d74  2**1
                  CONTENTS, ALLOC, LOAD, READONLY, CODE
 28 .text.i2c_master_write 0000001c  000020ca  000020ca  0000217e  2**1
                  CONTENTS, ALLOC, LOAD, READONLY, CODE
 29 .text.i2c_master_stop 00000006  0000225c  0000225c  00002310  2**1
                  CONTENTS, ALLOC, LOAD, READONLY, CODE
 30 .text.i2c_master_sendByte 00000022  00002068  00002068  0000211c  2**1
                  CONTENTS, ALLOC, LOAD, READONLY, CODE
 31 .progmemx.data 00000005  000000da  000000da  0000018e  2**0
                  CONTENTS, ALLOC, LOAD, READONLY, PROGMEMX
 32 .text.main    00000078  00001b82  00001b82  00001c36  2**1
                  CONTENTS, ALLOC, LOAD, READONLY, CODE
 33 .text.__dummy_fini 00000002  00002282  00002282  00002336  2**1
                  CONTENTS, ALLOC, LOAD, READONLY, CODE
 34 .text.__dummy_funcs_on_exit 00000002  00002284  00002284  00002338  2**1
                  CONTENTS, ALLOC, LOAD, READONLY, CODE
 35 .text.__dummy_simulator_exit 00000002  00002286  00002286  0000233a  2**1
                  CONTENTS, ALLOC, LOAD, READONLY, CODE
 36 .text.exit    00000016  00002164  00002164  00002218  2**1
                  CONTENTS, ALLOC, LOAD, READONLY, CODE
 37 .text.__wrap_sprintf 00000026  00002042  00002042  000020f6  2**1
                  CONTENTS, ALLOC, LOAD, READONLY, CODE
 38 .progmemx.data 00000010  000000c4  000000c4  00000178  2**0
                  CONTENTS, ALLOC, LOAD, READONLY, PROGMEMX
 39 .text.__fmt_fp 000006ba  00000902  00000902  000009b6  2**1
                  CONTENTS, ALLOC, LOAD, READONLY, CODE
 40 .text.__out   00000068  00001bfa  00001bfa  00001cae  2**1
                  CONTENTS, ALLOC, LOAD, READONLY, CODE
 41 .text.__pad   0000010e  000014b8  000014b8  0000156c  2**1
                  CONTENTS, ALLOC, LOAD, READONLY, CODE
 42 .text.__dummy_fmt3 00000006  00002262  00002262  00002316  2**1
                  CONTENTS, ALLOC, LOAD, READONLY, CODE
 43 .text.__dummy_fmt4 00000006  00002268  00002268  0000231c  2**1
                  CONTENTS, ALLOC, LOAD, READONLY, CODE
 44 .text.__dummy_fmts 00000006  0000226e  0000226e  00002322  2**1
                  CONTENTS, ALLOC, LOAD, READONLY, CODE
 45 .text.__fmt_state 0000009e  000019c2  000019c2  00001a76  2**1
                  CONTENTS, ALLOC, LOAD, READONLY, CODE
 46 .progmemx.data 00000006  000000d4  000000d4  00000188  2**0
                  CONTENTS, ALLOC, LOAD, READONLY, PROGMEMX
 47 .text.__printf_core 00000822  000000e0  000000e0  00000194  2**1
                  CONTENTS, ALLOC, LOAD, READONLY, CODE
 48 .progmemx.data.state_table 00000016  000000ae  000000ae  00000162  2**0
                  CONTENTS, ALLOC, LOAD, READONLY, PROGMEMX
 49 .text.fputc   00000092  00001a60  00001a60  00001b14  2**1
                  CONTENTS, ALLOC, LOAD, READONLY, CODE
 50 .text.__pop_float 00000040  00001dd6  00001dd6  00001e8a  2**1
                  CONTENTS, ALLOC, LOAD, READONLY, CODE
 51 .text.__pop_int 00000172  00000fbc  00000fbc  00001070  2**1
                  CONTENTS, ALLOC, LOAD, READONLY, CODE
 52 .text.__pop_ptr 000000d8  000016a4  000016a4  00001758  2**1
                  CONTENTS, ALLOC, LOAD, READONLY, CODE
 53 .text.atoi    00000090  00001af2  00001af2  00001ba6  2**1
                  CONTENTS, ALLOC, LOAD, READONLY, CODE
 54 .text.memset  00000012  000021a0  000021a0  00002254  2**1
                  CONTENTS, ALLOC, LOAD, READONLY, CODE
 55 .text.strcpy  0000001c  000020e6  000020e6  0000219a  2**1
                  CONTENTS, ALLOC, LOAD, READONLY, CODE
 56 .text.strlen  0000002c  00001f9e  00001f9e  00002052  2**1
                  CONTENTS, ALLOC, LOAD, READONLY, CODE
 57 .text.tolower 00000010  000021b2  000021b2  00002266  2**1
                  CONTENTS, ALLOC, LOAD, READONLY, CODE
 58 .text._Exit   00000004  0000227e  0000227e  00002332  2**1
                  CONTENTS, ALLOC, LOAD, READONLY, CODE
 59 .text.__vsprintf 00000018  0000211c  0000211c  000021d0  2**1
                  CONTENTS, ALLOC, LOAD, READONLY, CODE
 60 .text.__vsnprintf 000000a4  0000191e  0000191e  000019d2  2**1
                  CONTENTS, ALLOC, LOAD, READONLY, CODE
 61 .text.__vfprintf 00000030  00001f6e  00001f6e  00002022  2**1
                  CONTENTS, ALLOC, LOAD, READONLY, CODE
 62 .text.libgcc.div 00000028  00001ff2  00001ff2  000020a6  2**1
                  CONTENTS, ALLOC, LOAD, READONLY, CODE
 63 .text.libgcc.prologue 00000038  00001eca  00001eca  00001f7e  2**1
                  CONTENTS, ALLOC, LOAD, READONLY, CODE
 64 .text.libgcc.prologue 00000036  00001f38  00001f38  00001fec  2**1
                  CONTENTS, ALLOC, LOAD, READONLY, CODE
 65 .text.libgcc  0000001a  00002102  00002102  000021b6  2**1
                  CONTENTS, ALLOC, LOAD, READONLY, CODE
 66 .text.libgcc  00000018  00002134  00002134  000021e8  2**1
                  CONTENTS, ALLOC, LOAD, READONLY, CODE
 67 .text.libgcc.div 00000028  0000201a  0000201a  000020ce  2**1
                  CONTENTS, ALLOC, LOAD, READONLY, CODE
 68 .text         0000000e  000021de  000021de  00002292  2**1
                  CONTENTS, ALLOC, LOAD, READONLY, CODE
 69 .text         000000ce  00001850  00001850  00001904  2**1
                  CONTENTS, ALLOC, LOAD, READONLY, CODE
 70 .text         0000000a  00002230  00002230  000022e4  2**1
                  CONTENTS, ALLOC, LOAD, READONLY, CODE
 71 .text         00000008  0000224c  0000224c  00002300  2**1
                  CONTENTS, ALLOC, LOAD, READONLY, CODE
 72 .text         000000de  000015c6  000015c6  0000167a  2**1
                  CONTENTS, ALLOC, LOAD, READONLY, CODE
 73 .text         0000000e  000021ec  000021ec  000022a0  2**1
                  CONTENTS, ALLOC, LOAD, READONLY, CODE
 74 .text         0000005e  00001c62  00001c62  00001d16  2**1
                  CONTENTS, ALLOC, LOAD, READONLY, CODE
 75 .text         00000048  00001d08  00001d08  00001dbc  2**1
                  CONTENTS, ALLOC, LOAD, READONLY, CODE
 76 .text         0000000c  00002224  00002224  000022d8  2**1
                  CONTENTS, ALLOC, LOAD, READONLY, CODE
 77 .text         00000006  00002274  00002274  00002328  2**1
                  CONTENTS, ALLOC, LOAD, READONLY, CODE
 78 .text         0000000e  000021fa  000021fa  000022ae  2**1
                  CONTENTS, ALLOC, LOAD, READONLY, CODE
 79 .text         0000000e  00002208  00002208  000022bc  2**1
                  CONTENTS, ALLOC, LOAD, READONLY, CODE
 80 .text         00000022  0000208a  0000208a  0000213e  2**1
                  CONTENTS, ALLOC, LOAD, READONLY, CODE
 81 .text         00000044  00001d50  00001d50  00001e04  2**1
                  CONTENTS, ALLOC, LOAD, READONLY, CODE
 82 .text         0000000e  00002216  00002216  000022ca  2**1
                  CONTENTS, ALLOC, LOAD, READONLY, CODE
 83 .text         0000000a  0000223a  0000223a  000022ee  2**1
                  CONTENTS, ALLOC, LOAD, READONLY, CODE
 84 .text         00000008  00002254  00002254  00002308  2**1
                  CONTENTS, ALLOC, LOAD, READONLY, CODE
 85 .text         000000d4  0000177c  0000177c  00001830  2**1
                  CONTENTS, ALLOC, LOAD, READONLY, CODE
 86 .text.floorf  00000132  0000126a  0000126a  0000131e  2**1
                  CONTENTS, ALLOC, LOAD, READONLY, CODE
 87 .text.fmaf    0000013c  0000112e  0000112e  000011e2  2**1
                  CONTENTS, ALLOC, LOAD, READONLY, CODE
 88 .text.libgcc.builtins 0000003c  00001e54  00001e54  00001f08  2**1
                  CONTENTS, ALLOC, LOAD, READONLY, CODE
 89 .text.libgcc  00000018  0000214c  0000214c  00002200  2**1
                  CONTENTS, ALLOC, LOAD, READONLY, CODE

Disassembly of section .text:

00000000 <__vectors>:
   0:	0c 94 2d 00 	jmp	0x5a	; 0x5a <__ctors_end>
   4:	0c 94 3d 11 	jmp	0x227a	; 0x227a <__bad_interrupt>
   8:	0c 94 3d 11 	jmp	0x227a	; 0x227a <__bad_interrupt>
   c:	0c 94 3d 11 	jmp	0x227a	; 0x227a <__bad_interrupt>
  10:	0c 94 3d 11 	jmp	0x227a	; 0x227a <__bad_interrupt>
  14:	0c 94 3d 11 	jmp	0x227a	; 0x227a <__bad_interrupt>
  18:	0c 94 3d 11 	jmp	0x227a	; 0x227a <__bad_interrupt>
  1c:	0c 94 3d 11 	jmp	0x227a	; 0x227a <__bad_interrupt>
  20:	0c 94 3d 11 	jmp	0x227a	; 0x227a <__bad_interrupt>
  24:	0c 94 3d 11 	jmp	0x227a	; 0x227a <__bad_interrupt>
  28:	0c 94 3d 11 	jmp	0x227a	; 0x227a <__bad_interrupt>
  2c:	0c 94 3d 11 	jmp	0x227a	; 0x227a <__bad_interrupt>
  30:	0c 94 3d 11 	jmp	0x227a	; 0x227a <__bad_interrupt>
  34:	0c 94 3d 11 	jmp	0x227a	; 0x227a <__bad_interrupt>
  38:	0c 94 3d 11 	jmp	0x227a	; 0x227a <__bad_interrupt>
  3c:	0c 94 3d 11 	jmp	0x227a	; 0x227a <__bad_interrupt>
  40:	0c 94 3d 11 	jmp	0x227a	; 0x227a <__bad_interrupt>
  44:	0c 94 3d 11 	jmp	0x227a	; 0x227a <__bad_interrupt>
  48:	0c 94 3d 11 	jmp	0x227a	; 0x227a <__bad_interrupt>
  4c:	0c 94 3d 11 	jmp	0x227a	; 0x227a <__bad_interrupt>
  50:	0c 94 3d 11 	jmp	0x227a	; 0x227a <__bad_interrupt>

00000054 <.dinit>:
  54:	00 60       	ori	r16, 0x00	; 0
  56:	00 62       	ori	r16, 0x20	; 32
  58:	80 00       	.word	0x0080	; ????

0000005a <__ctors_end>:
  5a:	11 24       	eor	r1, r1
  5c:	1f be       	out	0x3f, r1	; 63
  5e:	cf e5       	ldi	r28, 0x5F	; 95
  60:	d8 e0       	ldi	r29, 0x08	; 8
  62:	de bf       	out	0x3e, r29	; 62
  64:	cd bf       	out	0x3d, r28	; 61

00000066 <__do_copy_data>:
  66:	e4 e5       	ldi	r30, 0x54	; 84
  68:	f0 e0       	ldi	r31, 0x00	; 0
  6a:	40 e0       	ldi	r20, 0x00	; 0
  6c:	17 c0       	rjmp	.+46     	; 0x9c <__do_clear_bss+0x8>
  6e:	b5 91       	lpm	r27, Z+
  70:	a5 91       	lpm	r26, Z+
  72:	35 91       	lpm	r19, Z+
  74:	25 91       	lpm	r18, Z+
  76:	05 91       	lpm	r16, Z+
  78:	07 fd       	sbrc	r16, 7
  7a:	0c c0       	rjmp	.+24     	; 0x94 <__do_clear_bss>
  7c:	95 91       	lpm	r25, Z+
  7e:	85 91       	lpm	r24, Z+
  80:	ef 01       	movw	r28, r30
  82:	f9 2f       	mov	r31, r25
  84:	e8 2f       	mov	r30, r24
  86:	05 90       	lpm	r0, Z+
  88:	0d 92       	st	X+, r0
  8a:	a2 17       	cp	r26, r18
  8c:	b3 07       	cpc	r27, r19
  8e:	d9 f7       	brne	.-10     	; 0x86 <__do_copy_data+0x20>
  90:	fe 01       	movw	r30, r28
  92:	04 c0       	rjmp	.+8      	; 0x9c <__do_clear_bss+0x8>

00000094 <__do_clear_bss>:
  94:	1d 92       	st	X+, r1
  96:	a2 17       	cp	r26, r18
  98:	b3 07       	cpc	r27, r19
  9a:	e1 f7       	brne	.-8      	; 0x94 <__do_clear_bss>
  9c:	e9 35       	cpi	r30, 0x59	; 89
  9e:	f4 07       	cpc	r31, r20
  a0:	31 f7       	brne	.-52     	; 0x6e <__do_copy_data+0x8>
  a2:	0e 94 c1 0d 	call	0x1b82	; 0x1b82 <main>
  a6:	0c 94 b2 10 	jmp	0x2164	; 0x2164 <exit>

000000aa <_exit>:
  aa:	f8 94       	cli

000000ac <__stop_program>:
  ac:	ff cf       	rjmp	.-2      	; 0xac <__stop_program>

Disassembly of section .text:

0000227a <__bad_interrupt>:
    227a:	0c 94 00 00 	jmp	0	; 0x0 <__vectors>

Disassembly of section .text.lq_transmitI2C:

000021c2 <lq_transmitI2C>:
	_delay_us(50);
};

void lq_transmitI2C(LiquidCrystalDevice_t* device, uint8_t value)
{
	i2c_master_sendByte(device->Address, value | device->Backlight);
    21c2:	fc 01       	movw	r30, r24
    21c4:	23 81       	ldd	r18, Z+3	; 0x03
    21c6:	62 2b       	or	r22, r18
    21c8:	80 81       	ld	r24, Z
    21ca:	0e 94 34 10 	call	0x2068	; 0x2068 <i2c_master_sendByte>
    21ce:	08 95       	ret

Disassembly of section .text.lq_turnOnBacklight:

000021d0 <lq_turnOnBacklight>:
};


void lq_turnOnBacklight(struct LiquidCrystalDevice_t* device)
{
	device->Backlight = LCD_BACKLIGHT;
    21d0:	28 e0       	ldi	r18, 0x08	; 8
    21d2:	fc 01       	movw	r30, r24
    21d4:	23 83       	std	Z+3, r18	; 0x03
	lq_transmitI2C(device, 0);
    21d6:	60 e0       	ldi	r22, 0x00	; 0
    21d8:	0e 94 e1 10 	call	0x21c2	; 0x21c2 <lq_transmitI2C>
    21dc:	08 95       	ret

Disassembly of section .text.lq_writeDevicePulse:

00001f02 <lq_writeDevicePulse>:
	lq_transmitI2C(device, value);
	lq_writeDevicePulse(device, value);
};

void lq_writeDevicePulse(LiquidCrystalDevice_t* device, uint8_t value)
{
    1f02:	0f 93       	push	r16
    1f04:	1f 93       	push	r17
    1f06:	cf 93       	push	r28
    1f08:	8c 01       	movw	r16, r24
    1f0a:	c6 2f       	mov	r28, r22
	lq_transmitI2C(device, value | LCD_ENABLE_BIT);
    1f0c:	64 60       	ori	r22, 0x04	; 4
    1f0e:	0e 94 e1 10 	call	0x21c2	; 0x21c2 <lq_transmitI2C>
	#else
		//round up by default
		__ticks_dc = (uint32_t)(ceil(fabs(__tmp)));
	#endif

	__builtin_avr_delay_cycles(__ticks_dc);
    1f12:	8a e0       	ldi	r24, 0x0A	; 10
    1f14:	8a 95       	dec	r24
    1f16:	f1 f7       	brne	.-4      	; 0x1f14 <lq_writeDevicePulse+0x12>
    1f18:	00 c0       	rjmp	.+0      	; 0x1f1a <lq_writeDevicePulse+0x18>
	_delay_us(2);

	lq_transmitI2C(device, value & ~LCD_ENABLE_BIT);
    1f1a:	6c 2f       	mov	r22, r28
    1f1c:	6b 7f       	andi	r22, 0xFB	; 251
    1f1e:	c8 01       	movw	r24, r16
    1f20:	0e 94 e1 10 	call	0x21c2	; 0x21c2 <lq_transmitI2C>
    1f24:	87 ec       	ldi	r24, 0xC7	; 199
    1f26:	90 e0       	ldi	r25, 0x00	; 0
    1f28:	01 97       	sbiw	r24, 0x01	; 1
    1f2a:	f1 f7       	brne	.-4      	; 0x1f28 <lq_writeDevicePulse+0x26>
    1f2c:	00 c0       	rjmp	.+0      	; 0x1f2e <lq_writeDevicePulse+0x2c>
    1f2e:	00 00       	nop
	_delay_us(50);
};
    1f30:	cf 91       	pop	r28
    1f32:	1f 91       	pop	r17
    1f34:	0f 91       	pop	r16
    1f36:	08 95       	ret

Disassembly of section .text.lq_writeDevice4Bits:

000020ac <lq_writeDevice4Bits>:
	lq_writeDevice4Bits(device, highnib | mode);
	lq_writeDevice4Bits(device, lownib | mode);
};

void lq_writeDevice4Bits(LiquidCrystalDevice_t* device, uint8_t value)
{
    20ac:	1f 93       	push	r17
    20ae:	cf 93       	push	r28
    20b0:	df 93       	push	r29
    20b2:	ec 01       	movw	r28, r24
    20b4:	16 2f       	mov	r17, r22
	lq_transmitI2C(device, value);
    20b6:	0e 94 e1 10 	call	0x21c2	; 0x21c2 <lq_transmitI2C>
	lq_writeDevicePulse(device, value);
    20ba:	61 2f       	mov	r22, r17
    20bc:	ce 01       	movw	r24, r28
    20be:	0e 94 81 0f 	call	0x1f02	; 0x1f02 <lq_writeDevicePulse>
};
    20c2:	df 91       	pop	r29
    20c4:	cf 91       	pop	r28
    20c6:	1f 91       	pop	r17
    20c8:	08 95       	ret

Disassembly of section .text.lq_writeDeviceByte:

00001e90 <lq_writeDeviceByte>:
}

void lq_turnOffBacklight(struct LiquidCrystalDevice_t* device)
{
	device->Backlight = LCD_NOBACKLIGHT;
	lq_transmitI2C(device, 0);
    1e90:	ff 92       	push	r15
    1e92:	0f 93       	push	r16
    1e94:	1f 93       	push	r17
    1e96:	cf 93       	push	r28
    1e98:	df 93       	push	r29
    1e9a:	8c 01       	movw	r16, r24
    1e9c:	f4 2e       	mov	r15, r20
    1e9e:	86 2f       	mov	r24, r22
    1ea0:	80 7f       	andi	r24, 0xF0	; 240
    1ea2:	90 e1       	ldi	r25, 0x10	; 16
    1ea4:	69 9f       	mul	r22, r25
    1ea6:	e0 01       	movw	r28, r0
    1ea8:	11 24       	eor	r1, r1
    1eaa:	68 2f       	mov	r22, r24
    1eac:	64 2b       	or	r22, r20
    1eae:	c8 01       	movw	r24, r16
    1eb0:	0e 94 56 10 	call	0x20ac	; 0x20ac <lq_writeDevice4Bits>
    1eb4:	6c 2f       	mov	r22, r28
    1eb6:	6f 29       	or	r22, r15
    1eb8:	c8 01       	movw	r24, r16
    1eba:	0e 94 56 10 	call	0x20ac	; 0x20ac <lq_writeDevice4Bits>
    1ebe:	df 91       	pop	r29
    1ec0:	cf 91       	pop	r28
    1ec2:	1f 91       	pop	r17
    1ec4:	0f 91       	pop	r16
    1ec6:	ff 90       	pop	r15
    1ec8:	08 95       	ret

Disassembly of section .text.lq_print:

00001d94 <lq_print>:
    1d94:	cf 92       	push	r12
    1d96:	df 92       	push	r13
    1d98:	ef 92       	push	r14
    1d9a:	cf 93       	push	r28
    1d9c:	df 93       	push	r29
    1d9e:	ec 01       	movw	r28, r24
    1da0:	6a 01       	movw	r12, r20
    1da2:	e6 2e       	mov	r14, r22
    1da4:	fa 01       	movw	r30, r20
    1da6:	64 91       	lpm	r22, Z
    1da8:	e7 fc       	sbrc	r14, 7
    1daa:	60 81       	ld	r22, Z
    1dac:	0c c0       	rjmp	.+24     	; 0x1dc6 <lq_print+0x32>
    1dae:	41 e0       	ldi	r20, 0x01	; 1
    1db0:	ce 01       	movw	r24, r28
    1db2:	0e 94 48 0f 	call	0x1e90	; 0x1e90 <lq_writeDeviceByte>
    1db6:	8f ef       	ldi	r24, 0xFF	; 255
    1db8:	c8 1a       	sub	r12, r24
    1dba:	d8 0a       	sbc	r13, r24
    1dbc:	e8 0a       	sbc	r14, r24
    1dbe:	f6 01       	movw	r30, r12
    1dc0:	64 91       	lpm	r22, Z
    1dc2:	e7 fc       	sbrc	r14, 7
    1dc4:	60 81       	ld	r22, Z
    1dc6:	61 11       	cpse	r22, r1
    1dc8:	f2 cf       	rjmp	.-28     	; 0x1dae <lq_print+0x1a>
    1dca:	df 91       	pop	r29
    1dcc:	cf 91       	pop	r28
    1dce:	ef 90       	pop	r14
    1dd0:	df 90       	pop	r13
    1dd2:	cf 90       	pop	r12
    1dd4:	08 95       	ret

Disassembly of section .text.lq_sendCommand:

00002244 <lq_sendCommand>:
}


void lq_sendCommand(LiquidCrystalDevice_t* device, uint8_t command)
{
	lq_writeDeviceByte(device, command, 0);
    2244:	40 e0       	ldi	r20, 0x00	; 0
    2246:	0e 94 48 0f 	call	0x1e90	; 0x1e90 <lq_writeDeviceByte>
    224a:	08 95       	ret

Disassembly of section .text.lq_setCursor:

00001e16 <lq_setCursor>:
}

void lq_turnOffBacklight(struct LiquidCrystalDevice_t* device)
{
	device->Backlight = LCD_NOBACKLIGHT;
	lq_transmitI2C(device, 0);
    1e16:	cf 93       	push	r28
    1e18:	df 93       	push	r29
    1e1a:	00 d0       	rcall	.+0      	; 0x1e1c <lq_setCursor+0x6>
    1e1c:	00 d0       	rcall	.+0      	; 0x1e1e <lq_setCursor+0x8>
    1e1e:	cd b7       	in	r28, 0x3d	; 61
    1e20:	de b7       	in	r29, 0x3e	; 62
    1e22:	19 82       	std	Y+1, r1	; 0x01
    1e24:	20 e4       	ldi	r18, 0x40	; 64
    1e26:	2a 83       	std	Y+2, r18	; 0x02
    1e28:	24 e1       	ldi	r18, 0x14	; 20
    1e2a:	2b 83       	std	Y+3, r18	; 0x03
    1e2c:	24 e5       	ldi	r18, 0x54	; 84
    1e2e:	2c 83       	std	Y+4, r18	; 0x04
    1e30:	e1 e0       	ldi	r30, 0x01	; 1
    1e32:	f0 e0       	ldi	r31, 0x00	; 0
    1e34:	ec 0f       	add	r30, r28
    1e36:	fd 1f       	adc	r31, r29
    1e38:	e6 0f       	add	r30, r22
    1e3a:	f1 1d       	adc	r31, r1
    1e3c:	60 81       	ld	r22, Z
    1e3e:	64 0f       	add	r22, r20
    1e40:	60 68       	ori	r22, 0x80	; 128
    1e42:	0e 94 22 11 	call	0x2244	; 0x2244 <lq_sendCommand>
    1e46:	0f 90       	pop	r0
    1e48:	0f 90       	pop	r0
    1e4a:	0f 90       	pop	r0
    1e4c:	0f 90       	pop	r0
    1e4e:	df 91       	pop	r29
    1e50:	cf 91       	pop	r28
    1e52:	08 95       	ret

Disassembly of section .text.lq_clear:

00001fca <lq_clear>:
}

void lq_clear(LiquidCrystalDevice_t* device)
{
    1fca:	cf 93       	push	r28
    1fcc:	df 93       	push	r29
    1fce:	ec 01       	movw	r28, r24
	lq_sendCommand(device, LCD_CLEARDISPLAY); // clear display, set cursor position to zero
    1fd0:	61 e0       	ldi	r22, 0x01	; 1
    1fd2:	0e 94 22 11 	call	0x2244	; 0x2244 <lq_sendCommand>
    1fd6:	8f e3       	ldi	r24, 0x3F	; 63
    1fd8:	9f e1       	ldi	r25, 0x1F	; 31
    1fda:	01 97       	sbiw	r24, 0x01	; 1
    1fdc:	f1 f7       	brne	.-4      	; 0x1fda <lq_clear+0x10>
    1fde:	00 c0       	rjmp	.+0      	; 0x1fe0 <lq_clear+0x16>
    1fe0:	00 00       	nop
	_delay_us(2000);  // this command takes a long time!

	lq_setCursor(device, 0, 0);
    1fe2:	40 e0       	ldi	r20, 0x00	; 0
    1fe4:	60 e0       	ldi	r22, 0x00	; 0
    1fe6:	ce 01       	movw	r24, r28
    1fe8:	0e 94 0b 0f 	call	0x1e16	; 0x1e16 <lq_setCursor>
}
    1fec:	df 91       	pop	r29
    1fee:	cf 91       	pop	r28
    1ff0:	08 95       	ret

Disassembly of section .text.lq_returnHome:

0000217a <lq_returnHome>:
	lq_sendCommand(device, LCD_SETDDRAMADDR | (column + row_offsets[row]));
}

void lq_returnHome(LiquidCrystalDevice_t* device)
{
	lq_sendCommand(device, LCD_RETURNHOME);  // set cursor position to zero
    217a:	62 e0       	ldi	r22, 0x02	; 2
    217c:	0e 94 22 11 	call	0x2244	; 0x2244 <lq_sendCommand>
    2180:	8f e3       	ldi	r24, 0x3F	; 63
    2182:	9f e1       	ldi	r25, 0x1F	; 31
    2184:	01 97       	sbiw	r24, 0x01	; 1
    2186:	f1 f7       	brne	.-4      	; 0x2184 <lq_returnHome+0xa>
    2188:	00 c0       	rjmp	.+0      	; 0x218a <lq_returnHome+0x10>
    218a:	00 00       	nop
    218c:	08 95       	ret

Disassembly of section .text.lq_turnOnDisplay:

0000218e <lq_turnOnDisplay>:
	_delay_us(2000);  // this command takes a long time!
};

void lq_turnOnDisplay(LiquidCrystalDevice_t* device)
{
	device->DisplayControl |= LCD_DISPLAYON;
    218e:	fc 01       	movw	r30, r24
    2190:	65 81       	ldd	r22, Z+5	; 0x05
    2192:	26 2f       	mov	r18, r22
    2194:	24 60       	ori	r18, 0x04	; 4
    2196:	25 83       	std	Z+5, r18	; 0x05
	lq_sendCommand(device, LCD_DISPLAYCONTROL | device->DisplayControl);
    2198:	6c 60       	ori	r22, 0x0C	; 12
    219a:	0e 94 22 11 	call	0x2244	; 0x2244 <lq_sendCommand>
    219e:	08 95       	ret

Disassembly of section .text.lq_init:

0000139c <lq_init>:
}

void lq_turnOffBacklight(struct LiquidCrystalDevice_t* device)
{
	device->Backlight = LCD_NOBACKLIGHT;
	lq_transmitI2C(device, 0);
    139c:	cf 93       	push	r28
    139e:	df 93       	push	r29
    13a0:	cd b7       	in	r28, 0x3d	; 61
    13a2:	de b7       	in	r29, 0x3e	; 62
    13a4:	2e 97       	sbiw	r28, 0x0e	; 14
    13a6:	0f b6       	in	r0, 0x3f	; 63
    13a8:	f8 94       	cli
    13aa:	de bf       	out	0x3e, r29	; 62
    13ac:	0f be       	out	0x3f, r0	; 63
    13ae:	cd bf       	out	0x3d, r28	; 61
    13b0:	88 87       	std	Y+8, r24	; 0x08
    13b2:	69 87       	std	Y+9, r22	; 0x09
    13b4:	4a 87       	std	Y+10, r20	; 0x0a
    13b6:	1b 86       	std	Y+11, r1	; 0x0b
    13b8:	2c 87       	std	Y+12, r18	; 0x0c
    13ba:	84 e0       	ldi	r24, 0x04	; 4
    13bc:	8d 87       	std	Y+13, r24	; 0x0d
    13be:	82 e0       	ldi	r24, 0x02	; 2
    13c0:	8e 87       	std	Y+14, r24	; 0x0e
    13c2:	42 30       	cpi	r20, 0x02	; 2
    13c4:	18 f0       	brcs	.+6      	; 0x13cc <lq_init+0x30>
    13c6:	82 2f       	mov	r24, r18
    13c8:	88 60       	ori	r24, 0x08	; 8
    13ca:	8c 87       	std	Y+12, r24	; 0x0c
    13cc:	22 23       	and	r18, r18
    13ce:	29 f0       	breq	.+10     	; 0x13da <lq_init+0x3e>
    13d0:	41 30       	cpi	r20, 0x01	; 1
    13d2:	19 f4       	brne	.+6      	; 0x13da <lq_init+0x3e>
    13d4:	8c 85       	ldd	r24, Y+12	; 0x0c
    13d6:	84 60       	ori	r24, 0x04	; 4
    13d8:	8c 87       	std	Y+12, r24	; 0x0c
    13da:	2f ef       	ldi	r18, 0xFF	; 255
    13dc:	81 ee       	ldi	r24, 0xE1	; 225
    13de:	94 e0       	ldi	r25, 0x04	; 4
    13e0:	21 50       	subi	r18, 0x01	; 1
    13e2:	80 40       	sbci	r24, 0x00	; 0
    13e4:	90 40       	sbci	r25, 0x00	; 0
    13e6:	e1 f7       	brne	.-8      	; 0x13e0 <lq_init+0x44>
    13e8:	00 c0       	rjmp	.+0      	; 0x13ea <lq_init+0x4e>
    13ea:	00 00       	nop
    13ec:	60 e0       	ldi	r22, 0x00	; 0
    13ee:	ce 01       	movw	r24, r28
    13f0:	08 96       	adiw	r24, 0x08	; 8
    13f2:	0e 94 e1 10 	call	0x21c2	; 0x21c2 <lq_transmitI2C>
    13f6:	2f ef       	ldi	r18, 0xFF	; 255
    13f8:	83 ed       	ldi	r24, 0xD3	; 211
    13fa:	90 e3       	ldi	r25, 0x30	; 48
    13fc:	21 50       	subi	r18, 0x01	; 1
    13fe:	80 40       	sbci	r24, 0x00	; 0
    1400:	90 40       	sbci	r25, 0x00	; 0
    1402:	e1 f7       	brne	.-8      	; 0x13fc <lq_init+0x60>
    1404:	00 c0       	rjmp	.+0      	; 0x1406 <lq_init+0x6a>
    1406:	00 00       	nop
    1408:	60 e3       	ldi	r22, 0x30	; 48
    140a:	ce 01       	movw	r24, r28
    140c:	08 96       	adiw	r24, 0x08	; 8
    140e:	0e 94 e1 10 	call	0x21c2	; 0x21c2 <lq_transmitI2C>
    1412:	8f e4       	ldi	r24, 0x4F	; 79
    1414:	96 e4       	ldi	r25, 0x46	; 70
    1416:	01 97       	sbiw	r24, 0x01	; 1
    1418:	f1 f7       	brne	.-4      	; 0x1416 <lq_init+0x7a>
    141a:	00 c0       	rjmp	.+0      	; 0x141c <lq_init+0x80>
    141c:	00 00       	nop
    141e:	60 e3       	ldi	r22, 0x30	; 48
    1420:	ce 01       	movw	r24, r28
    1422:	08 96       	adiw	r24, 0x08	; 8
    1424:	0e 94 56 10 	call	0x20ac	; 0x20ac <lq_writeDevice4Bits>
    1428:	8f e4       	ldi	r24, 0x4F	; 79
    142a:	96 e4       	ldi	r25, 0x46	; 70
    142c:	01 97       	sbiw	r24, 0x01	; 1
    142e:	f1 f7       	brne	.-4      	; 0x142c <lq_init+0x90>
    1430:	00 c0       	rjmp	.+0      	; 0x1432 <lq_init+0x96>
    1432:	00 00       	nop
    1434:	60 e3       	ldi	r22, 0x30	; 48
    1436:	ce 01       	movw	r24, r28
    1438:	08 96       	adiw	r24, 0x08	; 8
    143a:	0e 94 56 10 	call	0x20ac	; 0x20ac <lq_writeDevice4Bits>
    143e:	87 e5       	ldi	r24, 0x57	; 87
    1440:	92 e0       	ldi	r25, 0x02	; 2
    1442:	01 97       	sbiw	r24, 0x01	; 1
    1444:	f1 f7       	brne	.-4      	; 0x1442 <lq_init+0xa6>
    1446:	00 c0       	rjmp	.+0      	; 0x1448 <lq_init+0xac>
    1448:	00 00       	nop
    144a:	60 e2       	ldi	r22, 0x20	; 32
    144c:	ce 01       	movw	r24, r28
    144e:	08 96       	adiw	r24, 0x08	; 8
    1450:	0e 94 56 10 	call	0x20ac	; 0x20ac <lq_writeDevice4Bits>
    1454:	6c 85       	ldd	r22, Y+12	; 0x0c
    1456:	60 62       	ori	r22, 0x20	; 32
    1458:	ce 01       	movw	r24, r28
    145a:	08 96       	adiw	r24, 0x08	; 8
    145c:	0e 94 22 11 	call	0x2244	; 0x2244 <lq_sendCommand>
    1460:	ce 01       	movw	r24, r28
    1462:	08 96       	adiw	r24, 0x08	; 8
    1464:	0e 94 c7 10 	call	0x218e	; 0x218e <lq_turnOnDisplay>
    1468:	ce 01       	movw	r24, r28
    146a:	08 96       	adiw	r24, 0x08	; 8
    146c:	0e 94 e5 0f 	call	0x1fca	; 0x1fca <lq_clear>
    1470:	6e 85       	ldd	r22, Y+14	; 0x0e
    1472:	64 60       	ori	r22, 0x04	; 4
    1474:	ce 01       	movw	r24, r28
    1476:	08 96       	adiw	r24, 0x08	; 8
    1478:	0e 94 22 11 	call	0x2244	; 0x2244 <lq_sendCommand>
    147c:	ce 01       	movw	r24, r28
    147e:	08 96       	adiw	r24, 0x08	; 8
    1480:	0e 94 bd 10 	call	0x217a	; 0x217a <lq_returnHome>
    1484:	87 e0       	ldi	r24, 0x07	; 7
    1486:	fe 01       	movw	r30, r28
    1488:	38 96       	adiw	r30, 0x08	; 8
    148a:	de 01       	movw	r26, r28
    148c:	11 96       	adiw	r26, 0x01	; 1
    148e:	01 90       	ld	r0, Z+
    1490:	0d 92       	st	X+, r0
    1492:	8a 95       	dec	r24
    1494:	e1 f7       	brne	.-8      	; 0x148e <lq_init+0xf2>
    1496:	29 81       	ldd	r18, Y+1	; 0x01
    1498:	3a 81       	ldd	r19, Y+2	; 0x02
    149a:	4b 81       	ldd	r20, Y+3	; 0x03
    149c:	5c 81       	ldd	r21, Y+4	; 0x04
    149e:	6d 81       	ldd	r22, Y+5	; 0x05
    14a0:	7e 81       	ldd	r23, Y+6	; 0x06
    14a2:	8f 81       	ldd	r24, Y+7	; 0x07
    14a4:	90 e0       	ldi	r25, 0x00	; 0
    14a6:	2e 96       	adiw	r28, 0x0e	; 14
    14a8:	0f b6       	in	r0, 0x3f	; 63
    14aa:	f8 94       	cli
    14ac:	de bf       	out	0x3e, r29	; 62
    14ae:	0f be       	out	0x3f, r0	; 63
    14b0:	cd bf       	out	0x3d, r28	; 61
    14b2:	df 91       	pop	r29
    14b4:	cf 91       	pop	r28
    14b6:	08 95       	ret

Disassembly of section .text.i2c_master_start:

00001cc0 <i2c_master_start>:
	// wait for end of transmission
	while( !(TWCR & (1<<TWINT)) );

	// return received data from TWDR
	return TWDR;
}
    1cc0:	16 be       	out	0x36, r1	; 54
    1cc2:	94 ea       	ldi	r25, 0xA4	; 164
    1cc4:	96 bf       	out	0x36, r25	; 54
    1cc6:	06 b6       	in	r0, 0x36	; 54
    1cc8:	07 fe       	sbrs	r0, 7
    1cca:	fd cf       	rjmp	.-6      	; 0x1cc6 <i2c_master_start+0x6>
    1ccc:	91 b1       	in	r25, 0x01	; 1
    1cce:	98 7f       	andi	r25, 0xF8	; 248
    1cd0:	98 30       	cpi	r25, 0x08	; 8
    1cd2:	11 f0       	breq	.+4      	; 0x1cd8 <i2c_master_start+0x18>
    1cd4:	90 31       	cpi	r25, 0x10	; 16
    1cd6:	91 f4       	brne	.+36     	; 0x1cfc <i2c_master_start+0x3c>
    1cd8:	90 e0       	ldi	r25, 0x00	; 0
    1cda:	88 0f       	add	r24, r24
    1cdc:	99 1f       	adc	r25, r25
    1cde:	86 2b       	or	r24, r22
    1ce0:	83 b9       	out	0x03, r24	; 3
    1ce2:	84 e8       	ldi	r24, 0x84	; 132
    1ce4:	86 bf       	out	0x36, r24	; 54
    1ce6:	06 b6       	in	r0, 0x36	; 54
    1ce8:	07 fe       	sbrs	r0, 7
    1cea:	fd cf       	rjmp	.-6      	; 0x1ce6 <i2c_master_start+0x26>
    1cec:	81 b1       	in	r24, 0x01	; 1
    1cee:	88 7f       	andi	r24, 0xF8	; 248
    1cf0:	88 31       	cpi	r24, 0x18	; 24
    1cf2:	31 f0       	breq	.+12     	; 0x1d00 <i2c_master_start+0x40>
    1cf4:	80 34       	cpi	r24, 0x40	; 64
    1cf6:	31 f4       	brne	.+12     	; 0x1d04 <i2c_master_start+0x44>
    1cf8:	80 e0       	ldi	r24, 0x00	; 0
    1cfa:	08 95       	ret
    1cfc:	8a e0       	ldi	r24, 0x0A	; 10
    1cfe:	08 95       	ret
    1d00:	80 e0       	ldi	r24, 0x00	; 0
    1d02:	08 95       	ret
    1d04:	84 e1       	ldi	r24, 0x14	; 20
    1d06:	08 95       	ret

Disassembly of section .text.i2c_master_write:

000020ca <i2c_master_write>:
    20ca:	83 b9       	out	0x03, r24	; 3
    20cc:	84 e8       	ldi	r24, 0x84	; 132
    20ce:	86 bf       	out	0x36, r24	; 54
    20d0:	06 b6       	in	r0, 0x36	; 54
    20d2:	07 fe       	sbrs	r0, 7
    20d4:	fd cf       	rjmp	.-6      	; 0x20d0 <i2c_master_write+0x6>
    20d6:	81 b1       	in	r24, 0x01	; 1
    20d8:	88 7f       	andi	r24, 0xF8	; 248
    20da:	88 32       	cpi	r24, 0x28	; 40
    20dc:	11 f0       	breq	.+4      	; 0x20e2 <i2c_master_write+0x18>
    20de:	85 e1       	ldi	r24, 0x15	; 21
    20e0:	08 95       	ret
    20e2:	80 e0       	ldi	r24, 0x00	; 0
    20e4:	08 95       	ret

Disassembly of section .text.i2c_master_stop:

0000225c <i2c_master_stop>:
	return I2C_STATUS_SUCCESS;
}

void i2c_master_stop(void)
{
	TWCR = (1<<TWINT) | (1<<TWEN) | (1<<TWSTO);
    225c:	84 e9       	ldi	r24, 0x94	; 148
    225e:	86 bf       	out	0x36, r24	; 54
    2260:	08 95       	ret

Disassembly of section .text.i2c_master_sendByte:

00002068 <i2c_master_sendByte>:
	// wait for end of transmission
	while( !(TWCR & (1<<TWINT)) );

	// return received data from TWDR
	return TWDR;
}
    2068:	cf 93       	push	r28
    206a:	c6 2f       	mov	r28, r22
    206c:	60 e0       	ldi	r22, 0x00	; 0
    206e:	0e 94 60 0e 	call	0x1cc0	; 0x1cc0 <i2c_master_start>
    2072:	81 11       	cpse	r24, r1
    2074:	08 c0       	rjmp	.+16     	; 0x2086 <i2c_master_sendByte+0x1e>
    2076:	8c 2f       	mov	r24, r28
    2078:	0e 94 65 10 	call	0x20ca	; 0x20ca <i2c_master_write>
    207c:	81 11       	cpse	r24, r1
    207e:	03 c0       	rjmp	.+6      	; 0x2086 <i2c_master_sendByte+0x1e>
    2080:	0e 94 2e 11 	call	0x225c	; 0x225c <i2c_master_stop>
    2084:	80 e0       	ldi	r24, 0x00	; 0
    2086:	cf 91       	pop	r28
    2088:	08 95       	ret

Disassembly of section .text.main:

00001b82 <main>:




int main(void)
{
    1b82:	cf 93       	push	r28
    1b84:	df 93       	push	r29
    1b86:	cd b7       	in	r28, 0x3d	; 61
    1b88:	de b7       	in	r29, 0x3e	; 62
    1b8a:	6b 97       	sbiw	r28, 0x1b	; 27
    1b8c:	0f b6       	in	r0, 0x3f	; 63
    1b8e:	f8 94       	cli
    1b90:	de bf       	out	0x3e, r29	; 62
    1b92:	0f be       	out	0x3f, r0	; 63
    1b94:	cd bf       	out	0x3d, r28	; 61
	
	/*		LCD Initialization		*/
	LiquidCrystalDevice_t device = lq_init(0x27, 20, 4, LCD_5x8DOTS); // intialize 4-lines display
    1b96:	20 e0       	ldi	r18, 0x00	; 0
    1b98:	44 e0       	ldi	r20, 0x04	; 4
    1b9a:	64 e1       	ldi	r22, 0x14	; 20
    1b9c:	87 e2       	ldi	r24, 0x27	; 39
    1b9e:	0e 94 ce 09 	call	0x139c	; 0x139c <lq_init>
    1ba2:	29 83       	std	Y+1, r18	; 0x01
    1ba4:	3a 83       	std	Y+2, r19	; 0x02
    1ba6:	4b 83       	std	Y+3, r20	; 0x03
    1ba8:	5c 83       	std	Y+4, r21	; 0x04
    1baa:	6d 83       	std	Y+5, r22	; 0x05
    1bac:	7e 83       	std	Y+6, r23	; 0x06
    1bae:	8f 83       	std	Y+7, r24	; 0x07
	lq_turnOnBacklight(&device); // simply turning on the backlight
    1bb0:	ce 01       	movw	r24, r28
    1bb2:	01 96       	adiw	r24, 0x01	; 1
    1bb4:	0e 94 e8 10 	call	0x21d0	; 0x21d0 <lq_turnOnBacklight>
	//lq_setCursor(&device, 1, 0); // moving cursor to the next line
	//lq_print(&device, "How are you?");
	
	float n=3.14; 
	char str[20]; 
	sprintf(str, "%.3f", n);
    1bb8:	80 e4       	ldi	r24, 0x40	; 64
    1bba:	8f 93       	push	r24
    1bbc:	88 e4       	ldi	r24, 0x48	; 72
    1bbe:	8f 93       	push	r24
    1bc0:	85 ef       	ldi	r24, 0xF5	; 245
    1bc2:	8f 93       	push	r24
    1bc4:	83 ec       	ldi	r24, 0xC3	; 195
    1bc6:	8f 93       	push	r24
    1bc8:	8a ed       	ldi	r24, 0xDA	; 218
    1bca:	90 e0       	ldi	r25, 0x00	; 0
    1bcc:	a0 e0       	ldi	r26, 0x00	; 0
    1bce:	af 93       	push	r26
    1bd0:	9f 93       	push	r25
    1bd2:	8f 93       	push	r24
    1bd4:	8e 01       	movw	r16, r28
    1bd6:	08 5f       	subi	r16, 0xF8	; 248
    1bd8:	1f 4f       	sbci	r17, 0xFF	; 255
    1bda:	1f 93       	push	r17
    1bdc:	0f 93       	push	r16
    1bde:	0e 94 21 10 	call	0x2042	; 0x2042 <_sprintf_eE>
	lq_print(&device, str);
    1be2:	a8 01       	movw	r20, r16
    1be4:	60 e8       	ldi	r22, 0x80	; 128
    1be6:	ce 01       	movw	r24, r28
    1be8:	01 96       	adiw	r24, 0x01	; 1
    1bea:	0e 94 ca 0e 	call	0x1d94	; 0x1d94 <lq_print>
    1bee:	0f b6       	in	r0, 0x3f	; 63
    1bf0:	f8 94       	cli
    1bf2:	de bf       	out	0x3e, r29	; 62
    1bf4:	0f be       	out	0x3f, r0	; 63
    1bf6:	cd bf       	out	0x3d, r28	; 61
    1bf8:	ff cf       	rjmp	.-2      	; 0x1bf8 <main+0x76>

Disassembly of section .text.__dummy_fini:

00002282 <_fini>:
    2282:	08 95       	ret

Disassembly of section .text.__dummy_funcs_on_exit:

00002284 <__funcs_on_exit>:
    2284:	08 95       	ret

Disassembly of section .text.__dummy_simulator_exit:

00002286 <__simulator_exit>:
    2286:	08 95       	ret

Disassembly of section .text.exit:

00002164 <exit>:
    2164:	ec 01       	movw	r28, r24
    2166:	0e 94 42 11 	call	0x2284	; 0x2284 <__funcs_on_exit>
    216a:	0e 94 41 11 	call	0x2282	; 0x2282 <_fini>
    216e:	ce 01       	movw	r24, r28
    2170:	0e 94 43 11 	call	0x2286	; 0x2286 <__simulator_exit>
    2174:	ce 01       	movw	r24, r28
    2176:	0e 94 3f 11 	call	0x227e	; 0x227e <_Exit>

Disassembly of section .text.__wrap_sprintf:

00002042 <_sprintf_eE>:
    2042:	a0 e0       	ldi	r26, 0x00	; 0
    2044:	b0 e0       	ldi	r27, 0x00	; 0
    2046:	e7 e2       	ldi	r30, 0x27	; 39
    2048:	f0 e1       	ldi	r31, 0x10	; 16
    204a:	0c 94 75 0f 	jmp	0x1eea	; 0x1eea <__prologue_saves__+0x20>
    204e:	9e 01       	movw	r18, r28
    2050:	26 5f       	subi	r18, 0xF6	; 246
    2052:	3f 4f       	sbci	r19, 0xFF	; 255
    2054:	4f 81       	ldd	r20, Y+7	; 0x07
    2056:	58 85       	ldd	r21, Y+8	; 0x08
    2058:	69 85       	ldd	r22, Y+9	; 0x09
    205a:	8d 81       	ldd	r24, Y+5	; 0x05
    205c:	9e 81       	ldd	r25, Y+6	; 0x06
    205e:	0e 94 8e 10 	call	0x211c	; 0x211c <__vsprintf>
    2062:	e2 e0       	ldi	r30, 0x02	; 2
    2064:	0c 94 ac 0f 	jmp	0x1f58	; 0x1f58 <__epilogue_restores__+0x20>

Disassembly of section .text.__fmt_fp:

00000902 <__fmt_fp>:
 902:	a6 e2       	ldi	r26, 0x26	; 38
 904:	b0 e0       	ldi	r27, 0x00	; 0
 906:	e7 e8       	ldi	r30, 0x87	; 135
 908:	f4 e0       	ldi	r31, 0x04	; 4
 90a:	0c 94 65 0f 	jmp	0x1eca	; 0x1eca <__prologue_saves__>
 90e:	9f 8f       	std	Y+31, r25	; 0x1f
 910:	8e 8f       	std	Y+30, r24	; 0x1e
 912:	79 8f       	std	Y+25, r23	; 0x19
 914:	68 8f       	std	Y+24, r22	; 0x18
 916:	12 2f       	mov	r17, r18
 918:	fb 01       	movw	r30, r22
 91a:	01 90       	ld	r0, Z+
 91c:	f0 81       	ld	r31, Z
 91e:	e0 2d       	mov	r30, r0
 920:	fa 87       	std	Y+10, r31	; 0x0a
 922:	e9 87       	std	Y+9, r30	; 0x09
 924:	fb 01       	movw	r30, r22
 926:	c2 80       	ldd	r12, Z+2	; 0x02
 928:	d3 80       	ldd	r13, Z+3	; 0x03
 92a:	24 81       	ldd	r18, Z+4	; 0x04
 92c:	35 81       	ldd	r19, Z+5	; 0x05
 92e:	3c 8b       	std	Y+20, r19	; 0x14
 930:	2b 8b       	std	Y+19, r18	; 0x13
 932:	80 85       	ldd	r24, Z+8	; 0x08
 934:	91 85       	ldd	r25, Z+9	; 0x09
 936:	99 a3       	std	Y+33, r25	; 0x21
 938:	88 a3       	std	Y+32, r24	; 0x20
 93a:	06 80       	ldd	r0, Z+6	; 0x06
 93c:	f7 81       	ldd	r31, Z+7	; 0x07
 93e:	e0 2d       	mov	r30, r0
 940:	fa 83       	std	Y+2, r31	; 0x02
 942:	e9 83       	std	Y+1, r30	; 0x01
 944:	fa 01       	movw	r30, r20
 946:	80 80       	ld	r8, Z
 948:	91 80       	ldd	r9, Z+1	; 0x01
 94a:	a2 80       	ldd	r10, Z+2	; 0x02
 94c:	b3 80       	ldd	r11, Z+3	; 0x03
 94e:	20 e0       	ldi	r18, 0x00	; 0
 950:	30 e0       	ldi	r19, 0x00	; 0
 952:	a9 01       	movw	r20, r18
 954:	c5 01       	movw	r24, r10
 956:	b4 01       	movw	r22, r8
 958:	0e 94 18 11 	call	0x2230	; 0x2230 <__cmpsf2>
 95c:	87 ff       	sbrs	r24, 7
 95e:	06 c0       	rjmp	.+12     	; 0x96c <__fmt_fp+0x6a>
 960:	b7 fa       	bst	r11, 7
 962:	b0 94       	com	r11
 964:	b7 f8       	bld	r11, 7
 966:	b0 94       	com	r11
 968:	8d e2       	ldi	r24, 0x2D	; 45
 96a:	04 c0       	rjmp	.+8      	; 0x974 <__fmt_fp+0x72>
 96c:	f9 85       	ldd	r31, Y+9	; 0x09
 96e:	f2 ff       	sbrs	r31, 2
 970:	0c c3       	rjmp	.+1560   	; 0xf8a <__fmt_fp+0x688>
 972:	8b e2       	ldi	r24, 0x2B	; 43
 974:	e9 81       	ldd	r30, Y+1	; 0x01
 976:	fa 81       	ldd	r31, Y+2	; 0x02
 978:	80 83       	st	Z, r24
 97a:	2b 89       	ldd	r18, Y+19	; 0x13
 97c:	3c 89       	ldd	r19, Y+20	; 0x14
 97e:	21 50       	subi	r18, 0x01	; 1
 980:	31 09       	sbc	r19, r1
 982:	38 87       	std	Y+8, r19	; 0x08
 984:	2f 83       	std	Y+7, r18	; 0x07
 986:	41 e0       	ldi	r20, 0x01	; 1
 988:	50 e0       	ldi	r21, 0x00	; 0
 98a:	5a 8b       	std	Y+18, r21	; 0x12
 98c:	49 8b       	std	Y+17, r20	; 0x11
 98e:	06 c0       	rjmp	.+12     	; 0x99c <__fmt_fp+0x9a>
 990:	8b 89       	ldd	r24, Y+19	; 0x13
 992:	9c 89       	ldd	r25, Y+20	; 0x14
 994:	98 87       	std	Y+8, r25	; 0x08
 996:	8f 83       	std	Y+7, r24	; 0x07
 998:	1a 8a       	std	Y+18, r1	; 0x12
 99a:	19 8a       	std	Y+17, r1	; 0x11
 99c:	d5 01       	movw	r26, r10
 99e:	c4 01       	movw	r24, r8
 9a0:	bf 77       	andi	r27, 0x7F	; 127
 9a2:	00 97       	sbiw	r24, 0x00	; 0
 9a4:	e0 e8       	ldi	r30, 0x80	; 128
 9a6:	ae 07       	cpc	r26, r30
 9a8:	ef e7       	ldi	r30, 0x7F	; 127
 9aa:	be 07       	cpc	r27, r30
 9ac:	d9 f4       	brne	.+54     	; 0x9e4 <__fmt_fp+0xe2>
 9ae:	21 2f       	mov	r18, r17
 9b0:	11 0f       	add	r17, r17
 9b2:	33 0b       	sbc	r19, r19
 9b4:	21 54       	subi	r18, 0x41	; 65
 9b6:	31 09       	sbc	r19, r1
 9b8:	89 81       	ldd	r24, Y+1	; 0x01
 9ba:	9a 81       	ldd	r25, Y+2	; 0x02
 9bc:	49 89       	ldd	r20, Y+17	; 0x11
 9be:	5a 89       	ldd	r21, Y+18	; 0x12
 9c0:	84 0f       	add	r24, r20
 9c2:	95 1f       	adc	r25, r21
 9c4:	2a 31       	cpi	r18, 0x1A	; 26
 9c6:	31 05       	cpc	r19, r1
 9c8:	20 f4       	brcc	.+8      	; 0x9d2 <__fmt_fp+0xd0>
 9ca:	44 ec       	ldi	r20, 0xC4	; 196
 9cc:	50 e0       	ldi	r21, 0x00	; 0
 9ce:	60 e0       	ldi	r22, 0x00	; 0
 9d0:	03 c0       	rjmp	.+6      	; 0x9d8 <__fmt_fp+0xd6>
 9d2:	48 ec       	ldi	r20, 0xC8	; 200
 9d4:	50 e0       	ldi	r21, 0x00	; 0
 9d6:	60 e0       	ldi	r22, 0x00	; 0
 9d8:	0e 94 73 10 	call	0x20e6	; 0x20e6 <strcpy>
 9dc:	68 ec       	ldi	r22, 0xC8	; 200
 9de:	70 e0       	ldi	r23, 0x00	; 0
 9e0:	80 e0       	ldi	r24, 0x00	; 0
 9e2:	1e c0       	rjmp	.+60     	; 0xa20 <__fmt_fp+0x11e>
 9e4:	01 97       	sbiw	r24, 0x01	; 1
 9e6:	a0 48       	sbci	r26, 0x80	; 128
 9e8:	bf 47       	sbci	r27, 0x7F	; 127
 9ea:	30 f1       	brcs	.+76     	; 0xa38 <__fmt_fp+0x136>
 9ec:	21 2f       	mov	r18, r17
 9ee:	11 0f       	add	r17, r17
 9f0:	33 0b       	sbc	r19, r19
 9f2:	21 54       	subi	r18, 0x41	; 65
 9f4:	31 09       	sbc	r19, r1
 9f6:	89 81       	ldd	r24, Y+1	; 0x01
 9f8:	9a 81       	ldd	r25, Y+2	; 0x02
 9fa:	49 89       	ldd	r20, Y+17	; 0x11
 9fc:	5a 89       	ldd	r21, Y+18	; 0x12
 9fe:	84 0f       	add	r24, r20
 a00:	95 1f       	adc	r25, r21
 a02:	2a 31       	cpi	r18, 0x1A	; 26
 a04:	31 05       	cpc	r19, r1
 a06:	20 f4       	brcc	.+8      	; 0xa10 <__fmt_fp+0x10e>
 a08:	4c ec       	ldi	r20, 0xCC	; 204
 a0a:	50 e0       	ldi	r21, 0x00	; 0
 a0c:	60 e0       	ldi	r22, 0x00	; 0
 a0e:	03 c0       	rjmp	.+6      	; 0xa16 <__fmt_fp+0x114>
 a10:	40 ed       	ldi	r20, 0xD0	; 208
 a12:	50 e0       	ldi	r21, 0x00	; 0
 a14:	60 e0       	ldi	r22, 0x00	; 0
 a16:	0e 94 73 10 	call	0x20e6	; 0x20e6 <strcpy>
 a1a:	60 ed       	ldi	r22, 0xD0	; 208
 a1c:	70 e0       	ldi	r23, 0x00	; 0
 a1e:	80 e0       	ldi	r24, 0x00	; 0
 a20:	0e 94 cf 0f 	call	0x1f9e	; 0x1f9e <strlen>
 a24:	e9 81       	ldd	r30, Y+1	; 0x01
 a26:	fa 81       	ldd	r31, Y+2	; 0x02
 a28:	af 01       	movw	r20, r30
 a2a:	60 e8       	ldi	r22, 0x80	; 128
 a2c:	e9 84       	ldd	r14, Y+9	; 0x09
 a2e:	fa 84       	ldd	r15, Y+10	; 0x0a
 a30:	0b 89       	ldd	r16, Y+19	; 0x13
 a32:	1c 89       	ldd	r17, Y+20	; 0x14
 a34:	9c 01       	movw	r18, r24
 a36:	a1 c2       	rjmp	.+1346   	; 0xf7a <__fmt_fp+0x678>
 a38:	20 e0       	ldi	r18, 0x00	; 0
 a3a:	30 e0       	ldi	r19, 0x00	; 0
 a3c:	a9 01       	movw	r20, r18
 a3e:	c5 01       	movw	r24, r10
 a40:	b4 01       	movw	r22, r8
 a42:	0e 94 18 11 	call	0x2230	; 0x2230 <__cmpsf2>
 a46:	1b 82       	std	Y+3, r1	; 0x03
 a48:	1c 82       	std	Y+4, r1	; 0x04
 a4a:	88 23       	and	r24, r24
 a4c:	09 f4       	brne	.+2      	; 0xa50 <__fmt_fp+0x14e>
 a4e:	67 c0       	rjmp	.+206    	; 0xb1e <__fmt_fp+0x21c>
 a50:	f0 e8       	ldi	r31, 0x80	; 128
 a52:	fd 83       	std	Y+5, r31	; 0x05
 a54:	2f e3       	ldi	r18, 0x3F	; 63
 a56:	2e 83       	std	Y+6, r18	; 0x06
 a58:	21 2c       	mov	r2, r1
 a5a:	31 2c       	mov	r3, r1
 a5c:	20 e0       	ldi	r18, 0x00	; 0
 a5e:	30 e0       	ldi	r19, 0x00	; 0
 a60:	40 e2       	ldi	r20, 0x20	; 32
 a62:	51 e4       	ldi	r21, 0x41	; 65
 a64:	6b 81       	ldd	r22, Y+3	; 0x03
 a66:	7c 81       	ldd	r23, Y+4	; 0x04
 a68:	8d 81       	ldd	r24, Y+5	; 0x05
 a6a:	9e 81       	ldd	r25, Y+6	; 0x06
 a6c:	0e 94 2a 11 	call	0x2254	; 0x2254 <__mulsf3>
 a70:	f6 2e       	mov	r15, r22
 a72:	07 2f       	mov	r16, r23
 a74:	8d 87       	std	Y+13, r24	; 0x0d
 a76:	9b 87       	std	Y+11, r25	; 0x0b
 a78:	a5 01       	movw	r20, r10
 a7a:	94 01       	movw	r18, r8
 a7c:	0e 94 1d 11 	call	0x223a	; 0x223a <__gesf2>
 a80:	18 16       	cp	r1, r24
 a82:	54 f0       	brlt	.+20     	; 0xa98 <__fmt_fp+0x196>
 a84:	3f ef       	ldi	r19, 0xFF	; 255
 a86:	23 1a       	sub	r2, r19
 a88:	33 0a       	sbc	r3, r19
 a8a:	fb 82       	std	Y+3, r15	; 0x03
 a8c:	0c 83       	std	Y+4, r16	; 0x04
 a8e:	4d 85       	ldd	r20, Y+13	; 0x0d
 a90:	4d 83       	std	Y+5, r20	; 0x05
 a92:	5b 85       	ldd	r21, Y+11	; 0x0b
 a94:	5e 83       	std	Y+6, r21	; 0x06
 a96:	e2 cf       	rjmp	.-60     	; 0xa5c <__fmt_fp+0x15a>
 a98:	1c 86       	std	Y+12, r1	; 0x0c
 a9a:	1b 86       	std	Y+11, r1	; 0x0b
 a9c:	2b 81       	ldd	r18, Y+3	; 0x03
 a9e:	3c 81       	ldd	r19, Y+4	; 0x04
 aa0:	4d 81       	ldd	r20, Y+5	; 0x05
 aa2:	5e 81       	ldd	r21, Y+6	; 0x06
 aa4:	c5 01       	movw	r24, r10
 aa6:	b4 01       	movw	r22, r8
 aa8:	0e 94 18 11 	call	0x2230	; 0x2230 <__cmpsf2>
 aac:	87 ff       	sbrs	r24, 7
 aae:	3d c0       	rjmp	.+122    	; 0xb2a <__fmt_fp+0x228>
 ab0:	84 ed       	ldi	r24, 0xD4	; 212
 ab2:	28 16       	cp	r2, r24
 ab4:	8e ef       	ldi	r24, 0xFE	; 254
 ab6:	38 06       	cpc	r3, r24
 ab8:	04 f5       	brge	.+64     	; 0xafa <__fmt_fp+0x1f8>
 aba:	eb 85       	ldd	r30, Y+11	; 0x0b
 abc:	fc 85       	ldd	r31, Y+12	; 0x0c
 abe:	ef 2b       	or	r30, r31
 ac0:	e1 f4       	brne	.+56     	; 0xafa <__fmt_fp+0x1f8>
 ac2:	20 e0       	ldi	r18, 0x00	; 0
 ac4:	30 e0       	ldi	r19, 0x00	; 0
 ac6:	40 e8       	ldi	r20, 0x80	; 128
 ac8:	5a e5       	ldi	r21, 0x5A	; 90
 aca:	c5 01       	movw	r24, r10
 acc:	b4 01       	movw	r22, r8
 ace:	0e 94 2a 11 	call	0x2254	; 0x2254 <__mulsf3>
 ad2:	4b 01       	movw	r8, r22
 ad4:	5c 01       	movw	r10, r24
 ad6:	20 e0       	ldi	r18, 0x00	; 0
 ad8:	30 e0       	ldi	r19, 0x00	; 0
 ada:	40 e8       	ldi	r20, 0x80	; 128
 adc:	5a e5       	ldi	r21, 0x5A	; 90
 ade:	6b 81       	ldd	r22, Y+3	; 0x03
 ae0:	7c 81       	ldd	r23, Y+4	; 0x04
 ae2:	8d 81       	ldd	r24, Y+5	; 0x05
 ae4:	9e 81       	ldd	r25, Y+6	; 0x06
 ae6:	0e 94 2a 11 	call	0x2254	; 0x2254 <__mulsf3>
 aea:	6b 83       	std	Y+3, r22	; 0x03
 aec:	7c 83       	std	Y+4, r23	; 0x04
 aee:	8d 83       	std	Y+5, r24	; 0x05
 af0:	9e 83       	std	Y+6, r25	; 0x06
 af2:	21 e0       	ldi	r18, 0x01	; 1
 af4:	30 e0       	ldi	r19, 0x00	; 0
 af6:	3c 87       	std	Y+12, r19	; 0x0c
 af8:	2b 87       	std	Y+11, r18	; 0x0b
 afa:	20 e0       	ldi	r18, 0x00	; 0
 afc:	30 e0       	ldi	r19, 0x00	; 0
 afe:	40 e2       	ldi	r20, 0x20	; 32
 b00:	51 e4       	ldi	r21, 0x41	; 65
 b02:	6b 81       	ldd	r22, Y+3	; 0x03
 b04:	7c 81       	ldd	r23, Y+4	; 0x04
 b06:	8d 81       	ldd	r24, Y+5	; 0x05
 b08:	9e 81       	ldd	r25, Y+6	; 0x06
 b0a:	0e 94 26 11 	call	0x224c	; 0x224c <__divsf3>
 b0e:	6b 83       	std	Y+3, r22	; 0x03
 b10:	7c 83       	std	Y+4, r23	; 0x04
 b12:	8d 83       	std	Y+5, r24	; 0x05
 b14:	9e 83       	std	Y+6, r25	; 0x06
 b16:	31 e0       	ldi	r19, 0x01	; 1
 b18:	23 1a       	sub	r2, r19
 b1a:	31 08       	sbc	r3, r1
 b1c:	bf cf       	rjmp	.-130    	; 0xa9c <__fmt_fp+0x19a>
 b1e:	40 e8       	ldi	r20, 0x80	; 128
 b20:	4d 83       	std	Y+5, r20	; 0x05
 b22:	5f e3       	ldi	r21, 0x3F	; 63
 b24:	5e 83       	std	Y+6, r21	; 0x06
 b26:	21 2c       	mov	r2, r1
 b28:	31 2c       	mov	r3, r1
 b2a:	81 2f       	mov	r24, r17
 b2c:	11 0f       	add	r17, r17
 b2e:	99 0b       	sbc	r25, r25
 b30:	9b a3       	std	Y+35, r25	; 0x23
 b32:	8a a3       	std	Y+34, r24	; 0x22
 b34:	0e 94 d9 10 	call	0x21b2	; 0x21b2 <tolower>
 b38:	8b 8f       	std	Y+27, r24	; 0x1b
 b3a:	d7 fc       	sbrc	r13, 7
 b3c:	03 c0       	rjmp	.+6      	; 0xb44 <__fmt_fp+0x242>
 b3e:	de a2       	std	Y+38, r13	; 0x26
 b40:	cd a2       	std	Y+37, r12	; 0x25
 b42:	04 c0       	rjmp	.+8      	; 0xb4c <__fmt_fp+0x24a>
 b44:	e6 e0       	ldi	r30, 0x06	; 6
 b46:	f0 e0       	ldi	r31, 0x00	; 0
 b48:	fe a3       	std	Y+38, r31	; 0x26
 b4a:	ed a3       	std	Y+37, r30	; 0x25
 b4c:	fb 8d       	ldd	r31, Y+27	; 0x1b
 b4e:	f7 36       	cpi	r31, 0x67	; 103
 b50:	41 f4       	brne	.+16     	; 0xb62 <__fmt_fp+0x260>
 b52:	cd 28       	or	r12, r13
 b54:	09 f0       	breq	.+2      	; 0xb58 <__fmt_fp+0x256>
 b56:	1e c2       	rjmp	.+1084   	; 0xf94 <__fmt_fp+0x692>
 b58:	21 e0       	ldi	r18, 0x01	; 1
 b5a:	30 e0       	ldi	r19, 0x00	; 0
 b5c:	3e a3       	std	Y+38, r19	; 0x26
 b5e:	2d a3       	std	Y+37, r18	; 0x25
 b60:	19 c2       	rjmp	.+1074   	; 0xf94 <__fmt_fp+0x692>
 b62:	8b 8d       	ldd	r24, Y+27	; 0x1b
 b64:	8d 8b       	std	Y+21, r24	; 0x15
 b66:	04 c0       	rjmp	.+8      	; 0xb70 <__fmt_fp+0x26e>
 b68:	37 fe       	sbrs	r3, 7
 b6a:	25 c2       	rjmp	.+1098   	; 0xfb6 <__fmt_fp+0x6b4>
 b6c:	96 e6       	ldi	r25, 0x66	; 102
 b6e:	9d 8b       	std	Y+21, r25	; 0x15
 b70:	ed a1       	ldd	r30, Y+37	; 0x25
 b72:	fe a1       	ldd	r31, Y+38	; 0x26
 b74:	31 96       	adiw	r30, 0x01	; 1
 b76:	fe a3       	std	Y+38, r31	; 0x26
 b78:	ed a3       	std	Y+37, r30	; 0x25
 b7a:	fd 89       	ldd	r31, Y+21	; 0x15
 b7c:	f6 36       	cpi	r31, 0x66	; 102
 b7e:	99 f4       	brne	.+38     	; 0xba6 <__fmt_fp+0x2a4>
 b80:	37 fe       	sbrs	r3, 7
 b82:	08 c0       	rjmp	.+16     	; 0xb94 <__fmt_fp+0x292>
 b84:	1b 82       	std	Y+3, r1	; 0x03
 b86:	1c 82       	std	Y+4, r1	; 0x04
 b88:	20 e8       	ldi	r18, 0x80	; 128
 b8a:	2d 83       	std	Y+5, r18	; 0x05
 b8c:	3f e3       	ldi	r19, 0x3F	; 63
 b8e:	3e 83       	std	Y+6, r19	; 0x06
 b90:	21 2c       	mov	r2, r1
 b92:	31 2c       	mov	r3, r1
 b94:	4b 8d       	ldd	r20, Y+27	; 0x1b
 b96:	47 36       	cpi	r20, 0x67	; 103
 b98:	31 f0       	breq	.+12     	; 0xba6 <__fmt_fp+0x2a4>
 b9a:	8d a1       	ldd	r24, Y+37	; 0x25
 b9c:	9e a1       	ldd	r25, Y+38	; 0x26
 b9e:	82 0d       	add	r24, r2
 ba0:	93 1d       	adc	r25, r3
 ba2:	9e a3       	std	Y+38, r25	; 0x26
 ba4:	8d a3       	std	Y+37, r24	; 0x25
 ba6:	9b 81       	ldd	r25, Y+3	; 0x03
 ba8:	9b 87       	std	Y+11, r25	; 0x0b
 baa:	ec 81       	ldd	r30, Y+4	; 0x04
 bac:	ed 87       	std	Y+13, r30	; 0x0d
 bae:	fd 81       	ldd	r31, Y+5	; 0x05
 bb0:	fe 8b       	std	Y+22, r31	; 0x16
 bb2:	2e 81       	ldd	r18, Y+6	; 0x06
 bb4:	2a 8f       	std	Y+26, r18	; 0x1a
 bb6:	75 01       	movw	r14, r10
 bb8:	64 01       	movw	r12, r8
 bba:	1d 8e       	std	Y+29, r1	; 0x1d
 bbc:	1c 8e       	std	Y+28, r1	; 0x1c
 bbe:	8c 8d       	ldd	r24, Y+28	; 0x1c
 bc0:	9d 8d       	ldd	r25, Y+29	; 0x1d
 bc2:	ed a1       	ldd	r30, Y+37	; 0x25
 bc4:	fe a1       	ldd	r31, Y+38	; 0x26
 bc6:	8e 17       	cp	r24, r30
 bc8:	9f 07       	cpc	r25, r31
 bca:	c1 f1       	breq	.+112    	; 0xc3c <__fmt_fp+0x33a>
 bcc:	2b 85       	ldd	r18, Y+11	; 0x0b
 bce:	3d 85       	ldd	r19, Y+13	; 0x0d
 bd0:	4e 89       	ldd	r20, Y+22	; 0x16
 bd2:	5a 8d       	ldd	r21, Y+26	; 0x1a
 bd4:	c7 01       	movw	r24, r14
 bd6:	b6 01       	movw	r22, r12
 bd8:	0e 94 26 11 	call	0x224c	; 0x224c <__divsf3>
 bdc:	0e 94 35 09 	call	0x126a	; 0x126a <floorf>
 be0:	2b 01       	movw	r4, r22
 be2:	3c 01       	movw	r6, r24
 be4:	0e 94 f6 10 	call	0x21ec	; 0x21ec <__fixsfsi>
 be8:	6c a3       	std	Y+36, r22	; 0x24
 bea:	87 01       	movw	r16, r14
 bec:	76 01       	movw	r14, r12
 bee:	17 fb       	bst	r17, 7
 bf0:	10 95       	com	r17
 bf2:	17 f9       	bld	r17, 7
 bf4:	10 95       	com	r17
 bf6:	2b 85       	ldd	r18, Y+11	; 0x0b
 bf8:	3d 85       	ldd	r19, Y+13	; 0x0d
 bfa:	4e 89       	ldd	r20, Y+22	; 0x16
 bfc:	5a 8d       	ldd	r21, Y+26	; 0x1a
 bfe:	c3 01       	movw	r24, r6
 c00:	b2 01       	movw	r22, r4
 c02:	0e 94 97 08 	call	0x112e	; 0x112e <fmaf>
 c06:	6b 01       	movw	r12, r22
 c08:	7c 01       	movw	r14, r24
 c0a:	f7 fa       	bst	r15, 7
 c0c:	f0 94       	com	r15
 c0e:	f7 f8       	bld	r15, 7
 c10:	f0 94       	com	r15
 c12:	20 e0       	ldi	r18, 0x00	; 0
 c14:	30 e0       	ldi	r19, 0x00	; 0
 c16:	40 e2       	ldi	r20, 0x20	; 32
 c18:	51 e4       	ldi	r21, 0x41	; 65
 c1a:	6b 85       	ldd	r22, Y+11	; 0x0b
 c1c:	7d 85       	ldd	r23, Y+13	; 0x0d
 c1e:	8e 89       	ldd	r24, Y+22	; 0x16
 c20:	9a 8d       	ldd	r25, Y+26	; 0x1a
 c22:	0e 94 26 11 	call	0x224c	; 0x224c <__divsf3>
 c26:	6b 87       	std	Y+11, r22	; 0x0b
 c28:	7d 87       	std	Y+13, r23	; 0x0d
 c2a:	8e 8b       	std	Y+22, r24	; 0x16
 c2c:	9a 8f       	std	Y+26, r25	; 0x1a
 c2e:	4c 8d       	ldd	r20, Y+28	; 0x1c
 c30:	5d 8d       	ldd	r21, Y+29	; 0x1d
 c32:	4f 5f       	subi	r20, 0xFF	; 255
 c34:	5f 4f       	sbci	r21, 0xFF	; 255
 c36:	5d 8f       	std	Y+29, r21	; 0x1d
 c38:	4c 8f       	std	Y+28, r20	; 0x1c
 c3a:	c1 cf       	rjmp	.-126    	; 0xbbe <__fmt_fp+0x2bc>
 c3c:	20 e0       	ldi	r18, 0x00	; 0
 c3e:	30 e0       	ldi	r19, 0x00	; 0
 c40:	40 ea       	ldi	r20, 0xA0	; 160
 c42:	50 e4       	ldi	r21, 0x40	; 64
 c44:	6b 85       	ldd	r22, Y+11	; 0x0b
 c46:	7d 85       	ldd	r23, Y+13	; 0x0d
 c48:	8e 89       	ldd	r24, Y+22	; 0x16
 c4a:	9a 8d       	ldd	r25, Y+26	; 0x1a
 c4c:	0e 94 2a 11 	call	0x2254	; 0x2254 <__mulsf3>
 c50:	2b 01       	movw	r4, r22
 c52:	3c 01       	movw	r6, r24
 c54:	9b 01       	movw	r18, r22
 c56:	ac 01       	movw	r20, r24
 c58:	c7 01       	movw	r24, r14
 c5a:	b6 01       	movw	r22, r12
 c5c:	0e 94 18 11 	call	0x2230	; 0x2230 <__cmpsf2>
 c60:	87 fd       	sbrc	r24, 7
 c62:	0b c0       	rjmp	.+22     	; 0xc7a <__fmt_fp+0x378>
 c64:	a3 01       	movw	r20, r6
 c66:	92 01       	movw	r18, r4
 c68:	c7 01       	movw	r24, r14
 c6a:	b6 01       	movw	r22, r12
 c6c:	0e 94 18 11 	call	0x2230	; 0x2230 <__cmpsf2>
 c70:	81 11       	cpse	r24, r1
 c72:	06 c0       	rjmp	.+12     	; 0xc80 <__fmt_fp+0x37e>
 c74:	fc a1       	ldd	r31, Y+36	; 0x24
 c76:	f0 fd       	sbrc	r31, 0
 c78:	03 c0       	rjmp	.+6      	; 0xc80 <__fmt_fp+0x37e>
 c7a:	41 2c       	mov	r4, r1
 c7c:	51 2c       	mov	r5, r1
 c7e:	32 01       	movw	r6, r4
 c80:	a3 01       	movw	r20, r6
 c82:	92 01       	movw	r18, r4
 c84:	c5 01       	movw	r24, r10
 c86:	b4 01       	movw	r22, r8
 c88:	0e 94 f0 10 	call	0x21e0	; 0x21e0 <__addsf3>
 c8c:	4b 01       	movw	r8, r22
 c8e:	5c 01       	movw	r10, r24
 c90:	2d 89       	ldd	r18, Y+21	; 0x15
 c92:	25 36       	cpi	r18, 0x65	; 101
 c94:	11 f0       	breq	.+4      	; 0xc9a <__fmt_fp+0x398>
 c96:	31 01       	movw	r6, r2
 c98:	02 c0       	rjmp	.+4      	; 0xc9e <__fmt_fp+0x39c>
 c9a:	61 2c       	mov	r6, r1
 c9c:	71 2c       	mov	r7, r1
 c9e:	23 01       	movw	r4, r6
 ca0:	4d a1       	ldd	r20, Y+37	; 0x25
 ca2:	5e a1       	ldd	r21, Y+38	; 0x26
 ca4:	44 1a       	sub	r4, r20
 ca6:	55 0a       	sbc	r5, r21
 ca8:	c9 88       	ldd	r12, Y+17	; 0x11
 caa:	da 88       	ldd	r13, Y+18	; 0x12
 cac:	00 e0       	ldi	r16, 0x00	; 0
 cae:	10 e0       	ldi	r17, 0x00	; 0
 cb0:	1c 86       	std	Y+12, r1	; 0x0c
 cb2:	1b 86       	std	Y+11, r1	; 0x0b
 cb4:	89 85       	ldd	r24, Y+9	; 0x09
 cb6:	9a 85       	ldd	r25, Y+10	; 0x0a
 cb8:	80 71       	andi	r24, 0x10	; 16
 cba:	99 27       	eor	r25, r25
 cbc:	9f 8b       	std	Y+23, r25	; 0x17
 cbe:	8e 8b       	std	Y+22, r24	; 0x16
 cc0:	64 14       	cp	r6, r4
 cc2:	75 04       	cpc	r7, r5
 cc4:	31 f4       	brne	.+12     	; 0xcd2 <__fmt_fp+0x3d0>
 cc6:	8b 85       	ldd	r24, Y+11	; 0x0b
 cc8:	9c 85       	ldd	r25, Y+12	; 0x0c
 cca:	89 2b       	or	r24, r25
 ccc:	09 f4       	brne	.+2      	; 0xcd0 <__fmt_fp+0x3ce>
 cce:	9a c0       	rjmp	.+308    	; 0xe04 <__fmt_fp+0x502>
 cd0:	a6 c0       	rjmp	.+332    	; 0xe1e <__fmt_fp+0x51c>
 cd2:	dd 8e       	std	Y+29, r13	; 0x1d
 cd4:	cc 8e       	std	Y+28, r12	; 0x1c
 cd6:	e8 8d       	ldd	r30, Y+24	; 0x18
 cd8:	f9 8d       	ldd	r31, Y+25	; 0x19
 cda:	80 85       	ldd	r24, Z+8	; 0x08
 cdc:	91 85       	ldd	r25, Z+9	; 0x09
 cde:	05 97       	sbiw	r24, 0x05	; 5
 ce0:	c8 16       	cp	r12, r24
 ce2:	d9 06       	cpc	r13, r25
 ce4:	80 f7       	brcc	.-32     	; 0xcc6 <__fmt_fp+0x3c4>
 ce6:	2b 81       	ldd	r18, Y+3	; 0x03
 ce8:	3c 81       	ldd	r19, Y+4	; 0x04
 cea:	4d 81       	ldd	r20, Y+5	; 0x05
 cec:	5e 81       	ldd	r21, Y+6	; 0x06
 cee:	c5 01       	movw	r24, r10
 cf0:	b4 01       	movw	r22, r8
 cf2:	0e 94 26 11 	call	0x224c	; 0x224c <__divsf3>
 cf6:	0e 94 35 09 	call	0x126a	; 0x126a <floorf>
 cfa:	6d 87       	std	Y+13, r22	; 0x0d
 cfc:	7e 87       	std	Y+14, r23	; 0x0e
 cfe:	8f 87       	std	Y+15, r24	; 0x0f
 d00:	98 8b       	std	Y+16, r25	; 0x10
 d02:	0e 94 f6 10 	call	0x21ec	; 0x21ec <__fixsfsi>
 d06:	cb 01       	movw	r24, r22
 d08:	ee 89       	ldd	r30, Y+22	; 0x16
 d0a:	ff 89       	ldd	r31, Y+23	; 0x17
 d0c:	ef 2b       	or	r30, r31
 d0e:	69 f4       	brne	.+26     	; 0xd2a <__fmt_fp+0x428>
 d10:	89 2b       	or	r24, r25
 d12:	59 f4       	brne	.+22     	; 0xd2a <__fmt_fp+0x428>
 d14:	fb 8d       	ldd	r31, Y+27	; 0x1b
 d16:	f7 36       	cpi	r31, 0x67	; 103
 d18:	41 f4       	brne	.+16     	; 0xd2a <__fmt_fp+0x428>
 d1a:	77 fe       	sbrs	r7, 7
 d1c:	06 c0       	rjmp	.+12     	; 0xd2a <__fmt_fp+0x428>
 d1e:	98 01       	movw	r18, r16
 d20:	2f 5f       	subi	r18, 0xFF	; 255
 d22:	3f 4f       	sbci	r19, 0xFF	; 255
 d24:	3d 8f       	std	Y+29, r19	; 0x1d
 d26:	2c 8f       	std	Y+28, r18	; 0x1c
 d28:	43 c0       	rjmp	.+134    	; 0xdb0 <__fmt_fp+0x4ae>
 d2a:	4b 85       	ldd	r20, Y+11	; 0x0b
 d2c:	5c 85       	ldd	r21, Y+12	; 0x0c
 d2e:	45 2b       	or	r20, r21
 d30:	b1 f4       	brne	.+44     	; 0xd5e <__fmt_fp+0x45c>
 d32:	77 fe       	sbrs	r7, 7
 d34:	14 c0       	rjmp	.+40     	; 0xd5e <__fmt_fp+0x45c>
 d36:	5f ef       	ldi	r21, 0xFF	; 255
 d38:	c5 1a       	sub	r12, r21
 d3a:	d5 0a       	sbc	r13, r21
 d3c:	e9 81       	ldd	r30, Y+1	; 0x01
 d3e:	fa 81       	ldd	r31, Y+2	; 0x02
 d40:	8c 8d       	ldd	r24, Y+28	; 0x1c
 d42:	9d 8d       	ldd	r25, Y+29	; 0x1d
 d44:	e8 0f       	add	r30, r24
 d46:	f9 1f       	adc	r31, r25
 d48:	9e e2       	ldi	r25, 0x2E	; 46
 d4a:	90 83       	st	Z, r25
 d4c:	ef 81       	ldd	r30, Y+7	; 0x07
 d4e:	f8 85       	ldd	r31, Y+8	; 0x08
 d50:	31 97       	sbiw	r30, 0x01	; 1
 d52:	f8 87       	std	Y+8, r31	; 0x08
 d54:	ef 83       	std	Y+7, r30	; 0x07
 d56:	21 e0       	ldi	r18, 0x01	; 1
 d58:	30 e0       	ldi	r19, 0x00	; 0
 d5a:	3c 87       	std	Y+12, r19	; 0x0c
 d5c:	2b 87       	std	Y+11, r18	; 0x0b
 d5e:	e9 81       	ldd	r30, Y+1	; 0x01
 d60:	fa 81       	ldd	r31, Y+2	; 0x02
 d62:	ec 0d       	add	r30, r12
 d64:	fd 1d       	adc	r31, r13
 d66:	1d 8f       	std	Y+29, r17	; 0x1d
 d68:	0c 8f       	std	Y+28, r16	; 0x1c
 d6a:	8c 8d       	ldd	r24, Y+28	; 0x1c
 d6c:	9d 8d       	ldd	r25, Y+29	; 0x1d
 d6e:	89 2b       	or	r24, r25
 d70:	49 f0       	breq	.+18     	; 0xd84 <__fmt_fp+0x482>
 d72:	30 e3       	ldi	r19, 0x30	; 48
 d74:	31 93       	st	Z+, r19
 d76:	4c 8d       	ldd	r20, Y+28	; 0x1c
 d78:	5d 8d       	ldd	r21, Y+29	; 0x1d
 d7a:	41 50       	subi	r20, 0x01	; 1
 d7c:	51 09       	sbc	r21, r1
 d7e:	5d 8f       	std	Y+29, r21	; 0x1d
 d80:	4c 8f       	std	Y+28, r20	; 0x1c
 d82:	f3 cf       	rjmp	.-26     	; 0xd6a <__fmt_fp+0x468>
 d84:	c8 01       	movw	r24, r16
 d86:	8c 0d       	add	r24, r12
 d88:	9d 1d       	adc	r25, r13
 d8a:	2f 81       	ldd	r18, Y+7	; 0x07
 d8c:	38 85       	ldd	r19, Y+8	; 0x08
 d8e:	20 1b       	sub	r18, r16
 d90:	31 0b       	sbc	r19, r17
 d92:	6c 01       	movw	r12, r24
 d94:	ef ef       	ldi	r30, 0xFF	; 255
 d96:	ce 1a       	sub	r12, r30
 d98:	de 0a       	sbc	r13, r30
 d9a:	e9 81       	ldd	r30, Y+1	; 0x01
 d9c:	fa 81       	ldd	r31, Y+2	; 0x02
 d9e:	e8 0f       	add	r30, r24
 da0:	f9 1f       	adc	r31, r25
 da2:	60 5d       	subi	r22, 0xD0	; 208
 da4:	60 83       	st	Z, r22
 da6:	a9 01       	movw	r20, r18
 da8:	41 50       	subi	r20, 0x01	; 1
 daa:	51 09       	sbc	r21, r1
 dac:	58 87       	std	Y+8, r21	; 0x08
 dae:	4f 83       	std	Y+7, r20	; 0x07
 db0:	85 01       	movw	r16, r10
 db2:	74 01       	movw	r14, r8
 db4:	17 fb       	bst	r17, 7
 db6:	10 95       	com	r17
 db8:	17 f9       	bld	r17, 7
 dba:	10 95       	com	r17
 dbc:	2b 81       	ldd	r18, Y+3	; 0x03
 dbe:	3c 81       	ldd	r19, Y+4	; 0x04
 dc0:	4d 81       	ldd	r20, Y+5	; 0x05
 dc2:	5e 81       	ldd	r21, Y+6	; 0x06
 dc4:	6d 85       	ldd	r22, Y+13	; 0x0d
 dc6:	7e 85       	ldd	r23, Y+14	; 0x0e
 dc8:	8f 85       	ldd	r24, Y+15	; 0x0f
 dca:	98 89       	ldd	r25, Y+16	; 0x10
 dcc:	0e 94 97 08 	call	0x112e	; 0x112e <fmaf>
 dd0:	4b 01       	movw	r8, r22
 dd2:	5c 01       	movw	r10, r24
 dd4:	b7 fa       	bst	r11, 7
 dd6:	b0 94       	com	r11
 dd8:	b7 f8       	bld	r11, 7
 dda:	b0 94       	com	r11
 ddc:	20 e0       	ldi	r18, 0x00	; 0
 dde:	30 e0       	ldi	r19, 0x00	; 0
 de0:	40 e2       	ldi	r20, 0x20	; 32
 de2:	51 e4       	ldi	r21, 0x41	; 65
 de4:	6b 81       	ldd	r22, Y+3	; 0x03
 de6:	7c 81       	ldd	r23, Y+4	; 0x04
 de8:	8d 81       	ldd	r24, Y+5	; 0x05
 dea:	9e 81       	ldd	r25, Y+6	; 0x06
 dec:	0e 94 26 11 	call	0x224c	; 0x224c <__divsf3>
 df0:	6b 83       	std	Y+3, r22	; 0x03
 df2:	7c 83       	std	Y+4, r23	; 0x04
 df4:	8d 83       	std	Y+5, r24	; 0x05
 df6:	9e 83       	std	Y+6, r25	; 0x06
 df8:	51 e0       	ldi	r21, 0x01	; 1
 dfa:	65 1a       	sub	r6, r21
 dfc:	71 08       	sbc	r7, r1
 dfe:	0c 8d       	ldd	r16, Y+28	; 0x1c
 e00:	1d 8d       	ldd	r17, Y+29	; 0x1d
 e02:	5e cf       	rjmp	.-324    	; 0xcc0 <__fmt_fp+0x3be>
 e04:	f9 85       	ldd	r31, Y+9	; 0x09
 e06:	f4 ff       	sbrs	r31, 4
 e08:	0a c0       	rjmp	.+20     	; 0xe1e <__fmt_fp+0x51c>
 e0a:	e9 81       	ldd	r30, Y+1	; 0x01
 e0c:	fa 81       	ldd	r31, Y+2	; 0x02
 e0e:	ec 0d       	add	r30, r12
 e10:	fd 1d       	adc	r31, r13
 e12:	8e e2       	ldi	r24, 0x2E	; 46
 e14:	80 83       	st	Z, r24
 e16:	96 01       	movw	r18, r12
 e18:	2f 5f       	subi	r18, 0xFF	; 255
 e1a:	3f 4f       	sbci	r19, 0xFF	; 255
 e1c:	69 01       	movw	r12, r18
 e1e:	49 81       	ldd	r20, Y+1	; 0x01
 e20:	5a 81       	ldd	r21, Y+2	; 0x02
 e22:	4c 0d       	add	r20, r12
 e24:	5d 1d       	adc	r21, r13
 e26:	5c 87       	std	Y+12, r21	; 0x0c
 e28:	4b 87       	std	Y+11, r20	; 0x0b
 e2a:	fa 01       	movw	r30, r20
 e2c:	10 82       	st	Z, r1
 e2e:	fd 89       	ldd	r31, Y+21	; 0x15
 e30:	f5 36       	cpi	r31, 0x65	; 101
 e32:	09 f0       	breq	.+2      	; 0xe36 <__fmt_fp+0x534>
 e34:	61 c0       	rjmp	.+194    	; 0xef8 <__fmt_fp+0x5f6>
 e36:	e9 81       	ldd	r30, Y+1	; 0x01
 e38:	fa 81       	ldd	r31, Y+2	; 0x02
 e3a:	28 a1       	ldd	r18, Y+32	; 0x20
 e3c:	39 a1       	ldd	r19, Y+33	; 0x21
 e3e:	e2 0f       	add	r30, r18
 e40:	f3 1f       	adc	r31, r19
 e42:	31 97       	sbiw	r30, 0x01	; 1
 e44:	10 82       	st	Z, r1
 e46:	37 fe       	sbrs	r3, 7
 e48:	06 c0       	rjmp	.+12     	; 0xe56 <__fmt_fp+0x554>
 e4a:	31 94       	neg	r3
 e4c:	21 94       	neg	r2
 e4e:	31 08       	sbc	r3, r1
 e50:	01 e0       	ldi	r16, 0x01	; 1
 e52:	10 e0       	ldi	r17, 0x00	; 0
 e54:	02 c0       	rjmp	.+4      	; 0xe5a <__fmt_fp+0x558>
 e56:	00 e0       	ldi	r16, 0x00	; 0
 e58:	10 e0       	ldi	r17, 0x00	; 0
 e5a:	e8 a1       	ldd	r30, Y+32	; 0x20
 e5c:	f9 a1       	ldd	r31, Y+33	; 0x21
 e5e:	31 97       	sbiw	r30, 0x01	; 1
 e60:	49 81       	ldd	r20, Y+1	; 0x01
 e62:	5a 81       	ldd	r21, Y+2	; 0x02
 e64:	e4 0f       	add	r30, r20
 e66:	f5 1f       	adc	r31, r21
 e68:	22 e0       	ldi	r18, 0x02	; 2
 e6a:	30 e0       	ldi	r19, 0x00	; 0
 e6c:	8a e0       	ldi	r24, 0x0A	; 10
 e6e:	e8 2e       	mov	r14, r24
 e70:	f1 2c       	mov	r15, r1
 e72:	cf 01       	movw	r24, r30
 e74:	49 81       	ldd	r20, Y+1	; 0x01
 e76:	5a 81       	ldd	r21, Y+2	; 0x02
 e78:	84 1b       	sub	r24, r20
 e7a:	95 0b       	sbc	r25, r21
 e7c:	21 14       	cp	r2, r1
 e7e:	31 04       	cpc	r3, r1
 e80:	79 f0       	breq	.+30     	; 0xea0 <__fmt_fp+0x59e>
 e82:	c1 01       	movw	r24, r2
 e84:	b7 01       	movw	r22, r14
 e86:	0e 94 f9 0f 	call	0x1ff2	; 0x1ff2 <__divmodhi4>
 e8a:	80 5d       	subi	r24, 0xD0	; 208
 e8c:	82 93       	st	-Z, r24
 e8e:	1b 01       	movw	r2, r22
 e90:	21 50       	subi	r18, 0x01	; 1
 e92:	31 09       	sbc	r19, r1
 e94:	8f 81       	ldd	r24, Y+7	; 0x07
 e96:	98 85       	ldd	r25, Y+8	; 0x08
 e98:	01 97       	sbiw	r24, 0x01	; 1
 e9a:	98 87       	std	Y+8, r25	; 0x08
 e9c:	8f 83       	std	Y+7, r24	; 0x07
 e9e:	e9 cf       	rjmp	.-46     	; 0xe72 <__fmt_fp+0x570>
 ea0:	12 16       	cp	r1, r18
 ea2:	13 06       	cpc	r1, r19
 ea4:	74 f3       	brlt	.-36     	; 0xe82 <__fmt_fp+0x580>
 ea6:	fc 01       	movw	r30, r24
 ea8:	31 97       	sbiw	r30, 0x01	; 1
 eaa:	e4 0f       	add	r30, r20
 eac:	f5 1f       	adc	r31, r21
 eae:	01 2b       	or	r16, r17
 eb0:	11 f4       	brne	.+4      	; 0xeb6 <__fmt_fp+0x5b4>
 eb2:	2b e2       	ldi	r18, 0x2B	; 43
 eb4:	01 c0       	rjmp	.+2      	; 0xeb8 <__fmt_fp+0x5b6>
 eb6:	2d e2       	ldi	r18, 0x2D	; 45
 eb8:	20 83       	st	Z, r18
 eba:	02 97       	sbiw	r24, 0x02	; 2
 ebc:	e9 81       	ldd	r30, Y+1	; 0x01
 ebe:	fa 81       	ldd	r31, Y+2	; 0x02
 ec0:	e8 0f       	add	r30, r24
 ec2:	f9 1f       	adc	r31, r25
 ec4:	2a a1       	ldd	r18, Y+34	; 0x22
 ec6:	3b a1       	ldd	r19, Y+35	; 0x23
 ec8:	21 54       	subi	r18, 0x41	; 65
 eca:	31 09       	sbc	r19, r1
 ecc:	2a 31       	cpi	r18, 0x1A	; 26
 ece:	31 05       	cpc	r19, r1
 ed0:	10 f0       	brcs	.+4      	; 0xed6 <__fmt_fp+0x5d4>
 ed2:	25 e6       	ldi	r18, 0x65	; 101
 ed4:	01 c0       	rjmp	.+2      	; 0xed8 <__fmt_fp+0x5d6>
 ed6:	25 e4       	ldi	r18, 0x45	; 69
 ed8:	20 83       	st	Z, r18
 eda:	2f 81       	ldd	r18, Y+7	; 0x07
 edc:	38 85       	ldd	r19, Y+8	; 0x08
 ede:	22 50       	subi	r18, 0x02	; 2
 ee0:	31 09       	sbc	r19, r1
 ee2:	38 87       	std	Y+8, r19	; 0x08
 ee4:	2f 83       	std	Y+7, r18	; 0x07
 ee6:	c8 16       	cp	r12, r24
 ee8:	d9 06       	cpc	r13, r25
 eea:	34 f4       	brge	.+12     	; 0xef8 <__fmt_fp+0x5f6>
 eec:	af 01       	movw	r20, r30
 eee:	60 e8       	ldi	r22, 0x80	; 128
 ef0:	8b 85       	ldd	r24, Y+11	; 0x0b
 ef2:	9c 85       	ldd	r25, Y+12	; 0x0c
 ef4:	0e 94 73 10 	call	0x20e6	; 0x20e6 <strcpy>
 ef8:	49 81       	ldd	r20, Y+1	; 0x01
 efa:	5a 81       	ldd	r21, Y+2	; 0x02
 efc:	3a 01       	movw	r6, r20
 efe:	80 e8       	ldi	r24, 0x80	; 128
 f00:	88 2e       	mov	r8, r24
 f02:	99 85       	ldd	r25, Y+9	; 0x09
 f04:	91 ff       	sbrs	r25, 1
 f06:	2e c0       	rjmp	.+92     	; 0xf64 <__fmt_fp+0x662>
 f08:	90 fd       	sbrc	r25, 0
 f0a:	2c c0       	rjmp	.+88     	; 0xf64 <__fmt_fp+0x662>
 f0c:	ef 81       	ldd	r30, Y+7	; 0x07
 f0e:	f8 85       	ldd	r31, Y+8	; 0x08
 f10:	1e 16       	cp	r1, r30
 f12:	1f 06       	cpc	r1, r31
 f14:	3c f5       	brge	.+78     	; 0xf64 <__fmt_fp+0x662>
 f16:	88 2d       	mov	r24, r8
 f18:	b3 01       	movw	r22, r6
 f1a:	0e 94 cf 0f 	call	0x1f9e	; 0x1f9e <strlen>
 f1e:	29 81       	ldd	r18, Y+1	; 0x01
 f20:	3a 81       	ldd	r19, Y+2	; 0x02
 f22:	82 0f       	add	r24, r18
 f24:	93 1f       	adc	r25, r19
 f26:	9c 01       	movw	r18, r24
 f28:	49 81       	ldd	r20, Y+1	; 0x01
 f2a:	5a 81       	ldd	r21, Y+2	; 0x02
 f2c:	24 1b       	sub	r18, r20
 f2e:	35 0b       	sbc	r19, r21
 f30:	e9 89       	ldd	r30, Y+17	; 0x11
 f32:	fa 89       	ldd	r31, Y+18	; 0x12
 f34:	2e 17       	cp	r18, r30
 f36:	3f 07       	cpc	r19, r31
 f38:	4c f0       	brlt	.+18     	; 0xf4c <__fmt_fp+0x64a>
 f3a:	fc 01       	movw	r30, r24
 f3c:	20 81       	ld	r18, Z
 f3e:	ef 81       	ldd	r30, Y+7	; 0x07
 f40:	f8 85       	ldd	r31, Y+8	; 0x08
 f42:	e8 0f       	add	r30, r24
 f44:	f9 1f       	adc	r31, r25
 f46:	20 83       	st	Z, r18
 f48:	01 97       	sbiw	r24, 0x01	; 1
 f4a:	ed cf       	rjmp	.-38     	; 0xf26 <__fmt_fp+0x624>
 f4c:	4f 81       	ldd	r20, Y+7	; 0x07
 f4e:	58 85       	ldd	r21, Y+8	; 0x08
 f50:	60 e3       	ldi	r22, 0x30	; 48
 f52:	70 e0       	ldi	r23, 0x00	; 0
 f54:	89 81       	ldd	r24, Y+1	; 0x01
 f56:	9a 81       	ldd	r25, Y+2	; 0x02
 f58:	8e 0f       	add	r24, r30
 f5a:	9f 1f       	adc	r25, r31
 f5c:	0e 94 d0 10 	call	0x21a0	; 0x21a0 <memset>
 f60:	1c 8a       	std	Y+20, r1	; 0x14
 f62:	1b 8a       	std	Y+19, r1	; 0x13
 f64:	88 2d       	mov	r24, r8
 f66:	b3 01       	movw	r22, r6
 f68:	0e 94 cf 0f 	call	0x1f9e	; 0x1f9e <strlen>
 f6c:	e9 84       	ldd	r14, Y+9	; 0x09
 f6e:	fa 84       	ldd	r15, Y+10	; 0x0a
 f70:	0b 89       	ldd	r16, Y+19	; 0x13
 f72:	1c 89       	ldd	r17, Y+20	; 0x14
 f74:	9c 01       	movw	r18, r24
 f76:	68 2d       	mov	r22, r8
 f78:	a3 01       	movw	r20, r6
 f7a:	8e 8d       	ldd	r24, Y+30	; 0x1e
 f7c:	9f 8d       	ldd	r25, Y+31	; 0x1f
 f7e:	0e 94 5c 0a 	call	0x14b8	; 0x14b8 <__pad>
 f82:	a6 96       	adiw	r28, 0x26	; 38
 f84:	e2 e1       	ldi	r30, 0x12	; 18
 f86:	0c 94 9c 0f 	jmp	0x1f38	; 0x1f38 <__epilogue_restores__>
 f8a:	59 85       	ldd	r21, Y+9	; 0x09
 f8c:	53 ff       	sbrs	r21, 3
 f8e:	00 cd       	rjmp	.-1536   	; 0x990 <__fmt_fp+0x8e>
 f90:	80 e2       	ldi	r24, 0x20	; 32
 f92:	f0 cc       	rjmp	.-1568   	; 0x974 <__fmt_fp+0x72>
 f94:	2c ef       	ldi	r18, 0xFC	; 252
 f96:	22 16       	cp	r2, r18
 f98:	2f ef       	ldi	r18, 0xFF	; 255
 f9a:	32 06       	cpc	r3, r18
 f9c:	4c f0       	brlt	.+18     	; 0xfb0 <__fmt_fp+0x6ae>
 f9e:	4d a1       	ldd	r20, Y+37	; 0x25
 fa0:	5e a1       	ldd	r21, Y+38	; 0x26
 fa2:	24 16       	cp	r2, r20
 fa4:	35 06       	cpc	r3, r21
 fa6:	0c f4       	brge	.+2      	; 0xfaa <__fmt_fp+0x6a8>
 fa8:	df cd       	rjmp	.-1090   	; 0xb68 <__fmt_fp+0x266>
 faa:	55 e6       	ldi	r21, 0x65	; 101
 fac:	5d 8b       	std	Y+21, r21	; 0x15
 fae:	fb cd       	rjmp	.-1034   	; 0xba6 <__fmt_fp+0x2a4>
 fb0:	35 e6       	ldi	r19, 0x65	; 101
 fb2:	3d 8b       	std	Y+21, r19	; 0x15
 fb4:	f8 cd       	rjmp	.-1040   	; 0xba6 <__fmt_fp+0x2a4>
 fb6:	46 e6       	ldi	r20, 0x66	; 102
 fb8:	4d 8b       	std	Y+21, r20	; 0x15
 fba:	f5 cd       	rjmp	.-1046   	; 0xba6 <__fmt_fp+0x2a4>

Disassembly of section .text.__out:

00001bfa <__out>:
    1bfa:	6f 92       	push	r6
    1bfc:	7f 92       	push	r7
    1bfe:	8f 92       	push	r8
    1c00:	cf 92       	push	r12
    1c02:	df 92       	push	r13
    1c04:	ef 92       	push	r14
    1c06:	0f 93       	push	r16
    1c08:	1f 93       	push	r17
    1c0a:	cf 93       	push	r28
    1c0c:	df 93       	push	r29
    1c0e:	8c 01       	movw	r16, r24
    1c10:	6a 01       	movw	r12, r20
    1c12:	e6 2e       	mov	r14, r22
    1c14:	e9 01       	movw	r28, r18
    1c16:	3a 01       	movw	r6, r20
    1c18:	86 2e       	mov	r8, r22
    1c1a:	62 0e       	add	r6, r18
    1c1c:	73 1e       	adc	r7, r19
    1c1e:	81 1c       	adc	r8, r1
    1c20:	37 fd       	sbrc	r19, 7
    1c22:	8a 94       	dec	r8
    1c24:	c6 14       	cp	r12, r6
    1c26:	d7 04       	cpc	r13, r7
    1c28:	e8 04       	cpc	r14, r8
    1c2a:	79 f0       	breq	.+30     	; 0x1c4a <__out+0x50>
    1c2c:	f6 01       	movw	r30, r12
    1c2e:	84 91       	lpm	r24, Z
    1c30:	e7 fc       	sbrc	r14, 7
    1c32:	80 81       	ld	r24, Z
    1c34:	b8 01       	movw	r22, r16
    1c36:	08 2e       	mov	r0, r24
    1c38:	00 0c       	add	r0, r0
    1c3a:	99 0b       	sbc	r25, r25
    1c3c:	0e 94 30 0d 	call	0x1a60	; 0x1a60 <fputc>
    1c40:	8f ef       	ldi	r24, 0xFF	; 255
    1c42:	c8 1a       	sub	r12, r24
    1c44:	d8 0a       	sbc	r13, r24
    1c46:	e8 0a       	sbc	r14, r24
    1c48:	ed cf       	rjmp	.-38     	; 0x1c24 <__out+0x2a>
    1c4a:	ce 01       	movw	r24, r28
    1c4c:	df 91       	pop	r29
    1c4e:	cf 91       	pop	r28
    1c50:	1f 91       	pop	r17
    1c52:	0f 91       	pop	r16
    1c54:	ef 90       	pop	r14
    1c56:	df 90       	pop	r13
    1c58:	cf 90       	pop	r12
    1c5a:	8f 90       	pop	r8
    1c5c:	7f 90       	pop	r7
    1c5e:	6f 90       	pop	r6
    1c60:	08 95       	ret

Disassembly of section .text.__pad:

000014b8 <__pad>:
    14b8:	2f 92       	push	r2
    14ba:	3f 92       	push	r3
    14bc:	4f 92       	push	r4
    14be:	6f 92       	push	r6
    14c0:	7f 92       	push	r7
    14c2:	8f 92       	push	r8
    14c4:	af 92       	push	r10
    14c6:	bf 92       	push	r11
    14c8:	cf 92       	push	r12
    14ca:	df 92       	push	r13
    14cc:	ef 92       	push	r14
    14ce:	ff 92       	push	r15
    14d0:	0f 93       	push	r16
    14d2:	1f 93       	push	r17
    14d4:	cf 93       	push	r28
    14d6:	df 93       	push	r29
    14d8:	cd b7       	in	r28, 0x3d	; 61
    14da:	de b7       	in	r29, 0x3e	; 62
    14dc:	66 97       	sbiw	r28, 0x16	; 22
    14de:	0f b6       	in	r0, 0x3f	; 63
    14e0:	f8 94       	cli
    14e2:	de bf       	out	0x3e, r29	; 62
    14e4:	0f be       	out	0x3f, r0	; 63
    14e6:	cd bf       	out	0x3d, r28	; 61
    14e8:	5c 01       	movw	r10, r24
    14ea:	3a 01       	movw	r6, r20
    14ec:	86 2e       	mov	r8, r22
    14ee:	69 01       	movw	r12, r18
    14f0:	c7 01       	movw	r24, r14
    14f2:	81 70       	andi	r24, 0x01	; 1
    14f4:	99 27       	eor	r25, r25
    14f6:	9c 8b       	std	Y+20, r25	; 0x14
    14f8:	8b 8b       	std	Y+19, r24	; 0x13
    14fa:	e0 fc       	sbrc	r14, 0
    14fc:	1d c0       	rjmp	.+58     	; 0x1538 <__pad+0x80>
    14fe:	20 17       	cp	r18, r16
    1500:	31 07       	cpc	r19, r17
    1502:	d4 f4       	brge	.+52     	; 0x1538 <__pad+0x80>
    1504:	78 01       	movw	r14, r16
    1506:	ec 18       	sub	r14, r12
    1508:	fd 08       	sbc	r15, r13
    150a:	fe 8a       	std	Y+22, r15	; 0x16
    150c:	ed 8a       	std	Y+21, r14	; 0x15
    150e:	a7 01       	movw	r20, r14
    1510:	91 e1       	ldi	r25, 0x11	; 17
    1512:	e9 16       	cp	r14, r25
    1514:	f1 04       	cpc	r15, r1
    1516:	10 f0       	brcs	.+4      	; 0x151c <__pad+0x64>
    1518:	40 e1       	ldi	r20, 0x10	; 16
    151a:	50 e0       	ldi	r21, 0x00	; 0
    151c:	60 e2       	ldi	r22, 0x20	; 32
    151e:	70 e0       	ldi	r23, 0x00	; 0
    1520:	ce 01       	movw	r24, r28
    1522:	01 96       	adiw	r24, 0x01	; 1
    1524:	9a 8b       	std	Y+18, r25	; 0x12
    1526:	89 8b       	std	Y+17, r24	; 0x11
    1528:	0e 94 d0 10 	call	0x21a0	; 0x21a0 <memset>
    152c:	89 89       	ldd	r24, Y+17	; 0x11
    152e:	9a 89       	ldd	r25, Y+18	; 0x12
    1530:	1c 01       	movw	r2, r24
    1532:	20 e8       	ldi	r18, 0x80	; 128
    1534:	42 2e       	mov	r4, r18
    1536:	0b c0       	rjmp	.+22     	; 0x154e <__pad+0x96>
    1538:	96 01       	movw	r18, r12
    153a:	68 2d       	mov	r22, r8
    153c:	a3 01       	movw	r20, r6
    153e:	c5 01       	movw	r24, r10
    1540:	0e 94 fd 0d 	call	0x1bfa	; 0x1bfa <__out>
    1544:	c0 16       	cp	r12, r16
    1546:	d1 06       	cpc	r13, r17
    1548:	ec f2       	brlt	.-70     	; 0x1504 <__pad+0x4c>
    154a:	c6 01       	movw	r24, r12
    154c:	25 c0       	rjmp	.+74     	; 0x1598 <__pad+0xe0>
    154e:	90 e1       	ldi	r25, 0x10	; 16
    1550:	e9 16       	cp	r14, r25
    1552:	f1 04       	cpc	r15, r1
    1554:	58 f0       	brcs	.+22     	; 0x156c <__pad+0xb4>
    1556:	20 e1       	ldi	r18, 0x10	; 16
    1558:	30 e0       	ldi	r19, 0x00	; 0
    155a:	64 2d       	mov	r22, r4
    155c:	a1 01       	movw	r20, r2
    155e:	c5 01       	movw	r24, r10
    1560:	0e 94 fd 0d 	call	0x1bfa	; 0x1bfa <__out>
    1564:	80 e1       	ldi	r24, 0x10	; 16
    1566:	e8 1a       	sub	r14, r24
    1568:	f1 08       	sbc	r15, r1
    156a:	f1 cf       	rjmp	.-30     	; 0x154e <__pad+0x96>
    156c:	2d 89       	ldd	r18, Y+21	; 0x15
    156e:	3e 89       	ldd	r19, Y+22	; 0x16
    1570:	2f 70       	andi	r18, 0x0F	; 15
    1572:	33 27       	eor	r19, r19
    1574:	89 89       	ldd	r24, Y+17	; 0x11
    1576:	9a 89       	ldd	r25, Y+18	; 0x12
    1578:	ac 01       	movw	r20, r24
    157a:	60 e8       	ldi	r22, 0x80	; 128
    157c:	c5 01       	movw	r24, r10
    157e:	0e 94 fd 0d 	call	0x1bfa	; 0x1bfa <__out>
    1582:	8b 89       	ldd	r24, Y+19	; 0x13
    1584:	9c 89       	ldd	r25, Y+20	; 0x14
    1586:	89 2b       	or	r24, r25
    1588:	31 f4       	brne	.+12     	; 0x1596 <__pad+0xde>
    158a:	96 01       	movw	r18, r12
    158c:	68 2d       	mov	r22, r8
    158e:	a3 01       	movw	r20, r6
    1590:	c5 01       	movw	r24, r10
    1592:	0e 94 fd 0d 	call	0x1bfa	; 0x1bfa <__out>
    1596:	c8 01       	movw	r24, r16
    1598:	66 96       	adiw	r28, 0x16	; 22
    159a:	0f b6       	in	r0, 0x3f	; 63
    159c:	f8 94       	cli
    159e:	de bf       	out	0x3e, r29	; 62
    15a0:	0f be       	out	0x3f, r0	; 63
    15a2:	cd bf       	out	0x3d, r28	; 61
    15a4:	df 91       	pop	r29
    15a6:	cf 91       	pop	r28
    15a8:	1f 91       	pop	r17
    15aa:	0f 91       	pop	r16
    15ac:	ff 90       	pop	r15
    15ae:	ef 90       	pop	r14
    15b0:	df 90       	pop	r13
    15b2:	cf 90       	pop	r12
    15b4:	bf 90       	pop	r11
    15b6:	af 90       	pop	r10
    15b8:	8f 90       	pop	r8
    15ba:	7f 90       	pop	r7
    15bc:	6f 90       	pop	r6
    15be:	4f 90       	pop	r4
    15c0:	3f 90       	pop	r3
    15c2:	2f 90       	pop	r2
    15c4:	08 95       	ret

Disassembly of section .text.__dummy_fmt3:

00002262 <__fmt_d>:
    2262:	80 e0       	ldi	r24, 0x00	; 0
    2264:	90 e0       	ldi	r25, 0x00	; 0
    2266:	08 95       	ret

Disassembly of section .text.__dummy_fmt4:

00002268 <__fmt_a>:
    2268:	80 e0       	ldi	r24, 0x00	; 0
    226a:	90 e0       	ldi	r25, 0x00	; 0
    226c:	08 95       	ret

Disassembly of section .text.__dummy_fmts:

0000226e <__fmt_s>:
    226e:	80 e0       	ldi	r24, 0x00	; 0
    2270:	90 e0       	ldi	r25, 0x00	; 0
    2272:	08 95       	ret

Disassembly of section .text.__fmt_state:

000019c2 <__fmt_state>:
    19c2:	cf 92       	push	r12
    19c4:	df 92       	push	r13
    19c6:	ef 92       	push	r14
    19c8:	dc 01       	movw	r26, r24
    19ca:	90 e0       	ldi	r25, 0x00	; 0
    19cc:	29 2f       	mov	r18, r25
    19ce:	30 e0       	ldi	r19, 0x00	; 0
    19d0:	22 0f       	add	r18, r18
    19d2:	33 1f       	adc	r19, r19
    19d4:	69 01       	movw	r12, r18
    19d6:	03 2e       	mov	r0, r19
    19d8:	00 0c       	add	r0, r0
    19da:	ee 08       	sbc	r14, r14
    19dc:	6e 2d       	mov	r22, r14
    19de:	a6 01       	movw	r20, r12
    19e0:	42 55       	subi	r20, 0x52	; 82
    19e2:	5f 4f       	sbci	r21, 0xFF	; 255
    19e4:	6f 4f       	sbci	r22, 0xFF	; 255
    19e6:	6a 01       	movw	r12, r20
    19e8:	e6 2e       	mov	r14, r22
    19ea:	fa 01       	movw	r30, r20
    19ec:	84 91       	lpm	r24, Z
    19ee:	e7 fc       	sbrc	r14, 7
    19f0:	80 81       	ld	r24, Z
    19f2:	81 11       	cpse	r24, r1
    19f4:	0d c0       	rjmp	.+26     	; 0x1a10 <__fmt_state+0x4e>
    19f6:	2f 5f       	subi	r18, 0xFF	; 255
    19f8:	3f 4f       	sbci	r19, 0xFF	; 255
    19fa:	03 2e       	mov	r0, r19
    19fc:	00 0c       	add	r0, r0
    19fe:	44 0b       	sbc	r20, r20
    1a00:	22 55       	subi	r18, 0x52	; 82
    1a02:	3f 4f       	sbci	r19, 0xFF	; 255
    1a04:	4f 4f       	sbci	r20, 0xFF	; 255
    1a06:	f9 01       	movw	r30, r18
    1a08:	84 91       	lpm	r24, Z
    1a0a:	47 fd       	sbrc	r20, 7
    1a0c:	80 81       	ld	r24, Z
    1a0e:	24 c0       	rjmp	.+72     	; 0x1a58 <__fmt_state+0x96>
    1a10:	cd 90       	ld	r12, X+
    1a12:	dd 90       	ld	r13, X+
    1a14:	ec 90       	ld	r14, X
    1a16:	12 97       	sbiw	r26, 0x02	; 2
    1a18:	f6 01       	movw	r30, r12
    1a1a:	44 91       	lpm	r20, Z
    1a1c:	e7 fc       	sbrc	r14, 7
    1a1e:	40 81       	ld	r20, Z
    1a20:	84 13       	cpse	r24, r20
    1a22:	15 c0       	rjmp	.+42     	; 0x1a4e <__fmt_state+0x8c>
    1a24:	2f 5f       	subi	r18, 0xFF	; 255
    1a26:	3f 4f       	sbci	r19, 0xFF	; 255
    1a28:	03 2e       	mov	r0, r19
    1a2a:	00 0c       	add	r0, r0
    1a2c:	44 0b       	sbc	r20, r20
    1a2e:	22 55       	subi	r18, 0x52	; 82
    1a30:	3f 4f       	sbci	r19, 0xFF	; 255
    1a32:	4f 4f       	sbci	r20, 0xFF	; 255
    1a34:	f9 01       	movw	r30, r18
    1a36:	94 91       	lpm	r25, Z
    1a38:	47 fd       	sbrc	r20, 7
    1a3a:	90 81       	ld	r25, Z
    1a3c:	5f ef       	ldi	r21, 0xFF	; 255
    1a3e:	c5 1a       	sub	r12, r21
    1a40:	d5 0a       	sbc	r13, r21
    1a42:	e5 0a       	sbc	r14, r21
    1a44:	cd 92       	st	X+, r12
    1a46:	dd 92       	st	X+, r13
    1a48:	ec 92       	st	X, r14
    1a4a:	12 97       	sbiw	r26, 0x02	; 2
    1a4c:	01 c0       	rjmp	.+2      	; 0x1a50 <__fmt_state+0x8e>
    1a4e:	9f 5f       	subi	r25, 0xFF	; 255
    1a50:	9b 30       	cpi	r25, 0x0B	; 11
    1a52:	08 f4       	brcc	.+2      	; 0x1a56 <__fmt_state+0x94>
    1a54:	bb cf       	rjmp	.-138    	; 0x19cc <__fmt_state+0xa>
    1a56:	89 2f       	mov	r24, r25
    1a58:	ef 90       	pop	r14
    1a5a:	df 90       	pop	r13
    1a5c:	cf 90       	pop	r12
    1a5e:	08 95       	ret

Disassembly of section .text.__printf_core:

000000e0 <__printf_core>:
  e0:	a3 ea       	ldi	r26, 0xA3	; 163
  e2:	b0 e0       	ldi	r27, 0x00	; 0
  e4:	e6 e7       	ldi	r30, 0x76	; 118
  e6:	f0 e0       	ldi	r31, 0x00	; 0
  e8:	0c 94 65 0f 	jmp	0x1eca	; 0x1eca <__prologue_saves__>
  ec:	4c 01       	movw	r8, r24
  ee:	59 01       	movw	r10, r18
  f0:	c7 56       	subi	r28, 0x67	; 103
  f2:	df 4f       	sbci	r29, 0xFF	; 255
  f4:	48 83       	st	Y, r20
  f6:	59 83       	std	Y+1, r21	; 0x01
  f8:	6a 83       	std	Y+2, r22	; 0x02
  fa:	c9 59       	subi	r28, 0x99	; 153
  fc:	d0 40       	sbci	r29, 0x00	; 0
  fe:	21 2c       	mov	r2, r1
 100:	31 2c       	mov	r3, r1
 102:	6e 01       	movw	r12, r28
 104:	2b e8       	ldi	r18, 0x8B	; 139
 106:	c2 0e       	add	r12, r18
 108:	d1 1c       	adc	r13, r1
 10a:	85 e2       	ldi	r24, 0x25	; 37
 10c:	78 2e       	mov	r7, r24
 10e:	26 01       	movw	r4, r12
 110:	30 e8       	ldi	r19, 0x80	; 128
 112:	63 2e       	mov	r6, r19
 114:	ce 01       	movw	r24, r28
 116:	8d 56       	subi	r24, 0x6D	; 109
 118:	9f 4f       	sbci	r25, 0xFF	; 255
 11a:	c4 56       	subi	r28, 0x64	; 100
 11c:	df 4f       	sbci	r29, 0xFF	; 255
 11e:	99 83       	std	Y+1, r25	; 0x01
 120:	88 83       	st	Y, r24
 122:	cc 59       	subi	r28, 0x9C	; 156
 124:	d0 40       	sbci	r29, 0x00	; 0
 126:	9c 01       	movw	r18, r24
 128:	40 e8       	ldi	r20, 0x80	; 128
 12a:	cf 55       	subi	r28, 0x5F	; 95
 12c:	df 4f       	sbci	r29, 0xFF	; 255
 12e:	28 83       	st	Y, r18
 130:	39 83       	std	Y+1, r19	; 0x01
 132:	4a 83       	std	Y+2, r20	; 0x02
 134:	c1 5a       	subi	r28, 0xA1	; 161
 136:	d0 40       	sbci	r29, 0x00	; 0
 138:	c7 56       	subi	r28, 0x67	; 103
 13a:	df 4f       	sbci	r29, 0xFF	; 255
 13c:	48 81       	ld	r20, Y
 13e:	c9 59       	subi	r28, 0x99	; 153
 140:	d0 40       	sbci	r29, 0x00	; 0
 142:	c6 56       	subi	r28, 0x66	; 102
 144:	df 4f       	sbci	r29, 0xFF	; 255
 146:	58 81       	ld	r21, Y
 148:	ca 59       	subi	r28, 0x9A	; 154
 14a:	d0 40       	sbci	r29, 0x00	; 0
 14c:	c5 56       	subi	r28, 0x65	; 101
 14e:	df 4f       	sbci	r29, 0xFF	; 255
 150:	68 81       	ld	r22, Y
 152:	cb 59       	subi	r28, 0x9B	; 155
 154:	d0 40       	sbci	r29, 0x00	; 0
 156:	fa 01       	movw	r30, r20
 158:	84 91       	lpm	r24, Z
 15a:	67 fd       	sbrc	r22, 7
 15c:	80 81       	ld	r24, Z
 15e:	88 23       	and	r24, r24
 160:	09 f4       	brne	.+2      	; 0x164 <__printf_core+0x84>
 162:	c9 c3       	rjmp	.+1938   	; 0x8f6 <__stack+0x97>
 164:	cf 57       	subi	r28, 0x7F	; 127
 166:	df 4f       	sbci	r29, 0xFF	; 255
 168:	19 82       	std	Y+1, r1	; 0x01
 16a:	18 82       	st	Y, r1
 16c:	c1 58       	subi	r28, 0x81	; 129
 16e:	d0 40       	sbci	r29, 0x00	; 0
 170:	8f ef       	ldi	r24, 0xFF	; 255
 172:	9f ef       	ldi	r25, 0xFF	; 255
 174:	cd 57       	subi	r28, 0x7D	; 125
 176:	df 4f       	sbci	r29, 0xFF	; 255
 178:	99 83       	std	Y+1, r25	; 0x01
 17a:	88 83       	st	Y, r24
 17c:	c3 58       	subi	r28, 0x83	; 131
 17e:	d0 40       	sbci	r29, 0x00	; 0
 180:	cb 57       	subi	r28, 0x7B	; 123
 182:	df 4f       	sbci	r29, 0xFF	; 255
 184:	19 82       	std	Y+1, r1	; 0x01
 186:	18 82       	st	Y, r1
 188:	c5 58       	subi	r28, 0x85	; 133
 18a:	d0 40       	sbci	r29, 0x00	; 0
 18c:	a1 e0       	ldi	r26, 0x01	; 1
 18e:	b0 e0       	ldi	r27, 0x00	; 0
 190:	ac 0f       	add	r26, r28
 192:	bd 1f       	adc	r27, r29
 194:	c9 57       	subi	r28, 0x79	; 121
 196:	df 4f       	sbci	r29, 0xFF	; 255
 198:	b9 83       	std	Y+1, r27	; 0x01
 19a:	a8 83       	st	Y, r26
 19c:	c7 58       	subi	r28, 0x87	; 135
 19e:	d0 40       	sbci	r29, 0x00	; 0
 1a0:	e0 e8       	ldi	r30, 0x80	; 128
 1a2:	f0 e0       	ldi	r31, 0x00	; 0
 1a4:	c7 57       	subi	r28, 0x77	; 119
 1a6:	df 4f       	sbci	r29, 0xFF	; 255
 1a8:	f9 83       	std	Y+1, r31	; 0x01
 1aa:	e8 83       	st	Y, r30
 1ac:	c9 58       	subi	r28, 0x89	; 137
 1ae:	d0 40       	sbci	r29, 0x00	; 0
 1b0:	ca 01       	movw	r24, r20
 1b2:	a6 2f       	mov	r26, r22
 1b4:	e1 2c       	mov	r14, r1
 1b6:	f1 2c       	mov	r15, r1
 1b8:	fc 01       	movw	r30, r24
 1ba:	24 91       	lpm	r18, Z
 1bc:	a7 fd       	sbrc	r26, 7
 1be:	20 81       	ld	r18, Z
 1c0:	21 11       	cpse	r18, r1
 1c2:	1b c0       	rjmp	.+54     	; 0x1fa <__printf_core+0x11a>
 1c4:	e1 14       	cp	r14, r1
 1c6:	f1 04       	cpc	r15, r1
 1c8:	01 f1       	breq	.+64     	; 0x20a <__printf_core+0x12a>
 1ca:	97 01       	movw	r18, r14
 1cc:	c4 01       	movw	r24, r8
 1ce:	0e 94 fd 0d 	call	0x1bfa	; 0x1bfa <__out>
 1d2:	c7 56       	subi	r28, 0x67	; 103
 1d4:	df 4f       	sbci	r29, 0xFF	; 255
 1d6:	88 81       	ld	r24, Y
 1d8:	99 81       	ldd	r25, Y+1	; 0x01
 1da:	aa 81       	ldd	r26, Y+2	; 0x02
 1dc:	c9 59       	subi	r28, 0x99	; 153
 1de:	d0 40       	sbci	r29, 0x00	; 0
 1e0:	8e 0d       	add	r24, r14
 1e2:	9f 1d       	adc	r25, r15
 1e4:	a1 1d       	adc	r26, r1
 1e6:	f7 fc       	sbrc	r15, 7
 1e8:	aa 95       	dec	r26
 1ea:	c7 56       	subi	r28, 0x67	; 103
 1ec:	df 4f       	sbci	r29, 0xFF	; 255
 1ee:	88 83       	st	Y, r24
 1f0:	99 83       	std	Y+1, r25	; 0x01
 1f2:	aa 83       	std	Y+2, r26	; 0x02
 1f4:	c9 59       	subi	r28, 0x99	; 153
 1f6:	d0 40       	sbci	r29, 0x00	; 0
 1f8:	08 c0       	rjmp	.+16     	; 0x20a <__printf_core+0x12a>
 1fa:	01 96       	adiw	r24, 0x01	; 1
 1fc:	a1 1d       	adc	r26, r1
 1fe:	25 32       	cpi	r18, 0x25	; 37
 200:	09 f3       	breq	.-62     	; 0x1c4 <__printf_core+0xe4>
 202:	ff ef       	ldi	r31, 0xFF	; 255
 204:	ef 1a       	sub	r14, r31
 206:	ff 0a       	sbc	r15, r31
 208:	d7 cf       	rjmp	.-82     	; 0x1b8 <__printf_core+0xd8>
 20a:	c7 56       	subi	r28, 0x67	; 103
 20c:	df 4f       	sbci	r29, 0xFF	; 255
 20e:	88 81       	ld	r24, Y
 210:	99 81       	ldd	r25, Y+1	; 0x01
 212:	aa 81       	ldd	r26, Y+2	; 0x02
 214:	c9 59       	subi	r28, 0x99	; 153
 216:	d0 40       	sbci	r29, 0x00	; 0
 218:	fc 01       	movw	r30, r24
 21a:	24 91       	lpm	r18, Z
 21c:	a7 fd       	sbrc	r26, 7
 21e:	20 81       	ld	r18, Z
 220:	25 32       	cpi	r18, 0x25	; 37
 222:	09 f0       	breq	.+2      	; 0x226 <__printf_core+0x146>
 224:	56 c3       	rjmp	.+1708   	; 0x8d2 <__stack+0x73>
 226:	9c 01       	movw	r18, r24
 228:	4a 2f       	mov	r20, r26
 22a:	2f 5f       	subi	r18, 0xFF	; 255
 22c:	3f 4f       	sbci	r19, 0xFF	; 255
 22e:	4f 4f       	sbci	r20, 0xFF	; 255
 230:	c2 56       	subi	r28, 0x62	; 98
 232:	df 4f       	sbci	r29, 0xFF	; 255
 234:	28 83       	st	Y, r18
 236:	39 83       	std	Y+1, r19	; 0x01
 238:	4a 83       	std	Y+2, r20	; 0x02
 23a:	ce 59       	subi	r28, 0x9E	; 158
 23c:	d0 40       	sbci	r29, 0x00	; 0
 23e:	c7 56       	subi	r28, 0x67	; 103
 240:	df 4f       	sbci	r29, 0xFF	; 255
 242:	28 83       	st	Y, r18
 244:	39 83       	std	Y+1, r19	; 0x01
 246:	4a 83       	std	Y+2, r20	; 0x02
 248:	c9 59       	subi	r28, 0x99	; 153
 24a:	d0 40       	sbci	r29, 0x00	; 0
 24c:	c7 56       	subi	r28, 0x67	; 103
 24e:	df 4f       	sbci	r29, 0xFF	; 255
 250:	88 81       	ld	r24, Y
 252:	99 81       	ldd	r25, Y+1	; 0x01
 254:	aa 81       	ldd	r26, Y+2	; 0x02
 256:	c9 59       	subi	r28, 0x99	; 153
 258:	d0 40       	sbci	r29, 0x00	; 0
 25a:	fc 01       	movw	r30, r24
 25c:	24 91       	lpm	r18, Z
 25e:	a7 fd       	sbrc	r26, 7
 260:	20 81       	ld	r18, Z
 262:	2b 32       	cpi	r18, 0x2B	; 43
 264:	41 f4       	brne	.+16     	; 0x276 <__printf_core+0x196>
 266:	cf 57       	subi	r28, 0x7F	; 127
 268:	df 4f       	sbci	r29, 0xFF	; 255
 26a:	28 81       	ld	r18, Y
 26c:	39 81       	ldd	r19, Y+1	; 0x01
 26e:	c1 58       	subi	r28, 0x81	; 129
 270:	d0 40       	sbci	r29, 0x00	; 0
 272:	24 60       	ori	r18, 0x04	; 4
 274:	0b c0       	rjmp	.+22     	; 0x28c <__printf_core+0x1ac>
 276:	2c 32       	cpi	r18, 0x2C	; 44
 278:	cc f0       	brlt	.+50     	; 0x2ac <__printf_core+0x1cc>
 27a:	2d 32       	cpi	r18, 0x2D	; 45
 27c:	59 f5       	brne	.+86     	; 0x2d4 <__printf_core+0x1f4>
 27e:	cf 57       	subi	r28, 0x7F	; 127
 280:	df 4f       	sbci	r29, 0xFF	; 255
 282:	28 81       	ld	r18, Y
 284:	39 81       	ldd	r19, Y+1	; 0x01
 286:	c1 58       	subi	r28, 0x81	; 129
 288:	d0 40       	sbci	r29, 0x00	; 0
 28a:	21 60       	ori	r18, 0x01	; 1
 28c:	cf 57       	subi	r28, 0x7F	; 127
 28e:	df 4f       	sbci	r29, 0xFF	; 255
 290:	39 83       	std	Y+1, r19	; 0x01
 292:	28 83       	st	Y, r18
 294:	c1 58       	subi	r28, 0x81	; 129
 296:	d0 40       	sbci	r29, 0x00	; 0
 298:	01 96       	adiw	r24, 0x01	; 1
 29a:	a1 1d       	adc	r26, r1
 29c:	c7 56       	subi	r28, 0x67	; 103
 29e:	df 4f       	sbci	r29, 0xFF	; 255
 2a0:	88 83       	st	Y, r24
 2a2:	99 83       	std	Y+1, r25	; 0x01
 2a4:	aa 83       	std	Y+2, r26	; 0x02
 2a6:	c9 59       	subi	r28, 0x99	; 153
 2a8:	d0 40       	sbci	r29, 0x00	; 0
 2aa:	d0 cf       	rjmp	.-96     	; 0x24c <__printf_core+0x16c>
 2ac:	20 32       	cpi	r18, 0x20	; 32
 2ae:	41 f4       	brne	.+16     	; 0x2c0 <__printf_core+0x1e0>
 2b0:	cf 57       	subi	r28, 0x7F	; 127
 2b2:	df 4f       	sbci	r29, 0xFF	; 255
 2b4:	28 81       	ld	r18, Y
 2b6:	39 81       	ldd	r19, Y+1	; 0x01
 2b8:	c1 58       	subi	r28, 0x81	; 129
 2ba:	d0 40       	sbci	r29, 0x00	; 0
 2bc:	28 60       	ori	r18, 0x08	; 8
 2be:	e6 cf       	rjmp	.-52     	; 0x28c <__printf_core+0x1ac>
 2c0:	23 32       	cpi	r18, 0x23	; 35
 2c2:	91 f4       	brne	.+36     	; 0x2e8 <__printf_core+0x208>
 2c4:	cf 57       	subi	r28, 0x7F	; 127
 2c6:	df 4f       	sbci	r29, 0xFF	; 255
 2c8:	28 81       	ld	r18, Y
 2ca:	39 81       	ldd	r19, Y+1	; 0x01
 2cc:	c1 58       	subi	r28, 0x81	; 129
 2ce:	d0 40       	sbci	r29, 0x00	; 0
 2d0:	20 61       	ori	r18, 0x10	; 16
 2d2:	dc cf       	rjmp	.-72     	; 0x28c <__printf_core+0x1ac>
 2d4:	20 33       	cpi	r18, 0x30	; 48
 2d6:	41 f4       	brne	.+16     	; 0x2e8 <__printf_core+0x208>
 2d8:	cf 57       	subi	r28, 0x7F	; 127
 2da:	df 4f       	sbci	r29, 0xFF	; 255
 2dc:	28 81       	ld	r18, Y
 2de:	39 81       	ldd	r19, Y+1	; 0x01
 2e0:	c1 58       	subi	r28, 0x81	; 129
 2e2:	d0 40       	sbci	r29, 0x00	; 0
 2e4:	22 60       	ori	r18, 0x02	; 2
 2e6:	d2 cf       	rjmp	.-92     	; 0x28c <__printf_core+0x1ac>
 2e8:	2a 32       	cpi	r18, 0x2A	; 42
 2ea:	99 f5       	brne	.+102    	; 0x352 <__printf_core+0x272>
 2ec:	01 96       	adiw	r24, 0x01	; 1
 2ee:	a1 1d       	adc	r26, r1
 2f0:	c7 56       	subi	r28, 0x67	; 103
 2f2:	df 4f       	sbci	r29, 0xFF	; 255
 2f4:	88 83       	st	Y, r24
 2f6:	99 83       	std	Y+1, r25	; 0x01
 2f8:	aa 83       	std	Y+2, r26	; 0x02
 2fa:	c9 59       	subi	r28, 0x99	; 153
 2fc:	d0 40       	sbci	r29, 0x00	; 0
 2fe:	d5 01       	movw	r26, r10
 300:	ed 91       	ld	r30, X+
 302:	fc 91       	ld	r31, X
 304:	11 97       	sbiw	r26, 0x01	; 1
 306:	cf 01       	movw	r24, r30
 308:	02 96       	adiw	r24, 0x02	; 2
 30a:	8d 93       	st	X+, r24
 30c:	9c 93       	st	X, r25
 30e:	80 81       	ld	r24, Z
 310:	91 81       	ldd	r25, Z+1	; 0x01
 312:	cb 57       	subi	r28, 0x7B	; 123
 314:	df 4f       	sbci	r29, 0xFF	; 255
 316:	99 83       	std	Y+1, r25	; 0x01
 318:	88 83       	st	Y, r24
 31a:	c5 58       	subi	r28, 0x85	; 133
 31c:	d0 40       	sbci	r29, 0x00	; 0
 31e:	97 ff       	sbrs	r25, 7
 320:	3e c0       	rjmp	.+124    	; 0x39e <__printf_core+0x2be>
 322:	cf 57       	subi	r28, 0x7F	; 127
 324:	df 4f       	sbci	r29, 0xFF	; 255
 326:	28 81       	ld	r18, Y
 328:	39 81       	ldd	r19, Y+1	; 0x01
 32a:	c1 58       	subi	r28, 0x81	; 129
 32c:	d0 40       	sbci	r29, 0x00	; 0
 32e:	b1 e0       	ldi	r27, 0x01	; 1
 330:	2b 27       	eor	r18, r27
 332:	cf 57       	subi	r28, 0x7F	; 127
 334:	df 4f       	sbci	r29, 0xFF	; 255
 336:	39 83       	std	Y+1, r19	; 0x01
 338:	28 83       	st	Y, r18
 33a:	c1 58       	subi	r28, 0x81	; 129
 33c:	d0 40       	sbci	r29, 0x00	; 0
 33e:	91 95       	neg	r25
 340:	81 95       	neg	r24
 342:	91 09       	sbc	r25, r1
 344:	cb 57       	subi	r28, 0x7B	; 123
 346:	df 4f       	sbci	r29, 0xFF	; 255
 348:	99 83       	std	Y+1, r25	; 0x01
 34a:	88 83       	st	Y, r24
 34c:	c5 58       	subi	r28, 0x85	; 133
 34e:	d0 40       	sbci	r29, 0x00	; 0
 350:	26 c0       	rjmp	.+76     	; 0x39e <__printf_core+0x2be>
 352:	bc 01       	movw	r22, r24
 354:	8a 2f       	mov	r24, r26
 356:	0e 94 79 0d 	call	0x1af2	; 0x1af2 <atoi>
 35a:	cb 57       	subi	r28, 0x7B	; 123
 35c:	df 4f       	sbci	r29, 0xFF	; 255
 35e:	99 83       	std	Y+1, r25	; 0x01
 360:	88 83       	st	Y, r24
 362:	c5 58       	subi	r28, 0x85	; 133
 364:	d0 40       	sbci	r29, 0x00	; 0
 366:	c7 56       	subi	r28, 0x67	; 103
 368:	df 4f       	sbci	r29, 0xFF	; 255
 36a:	28 81       	ld	r18, Y
 36c:	39 81       	ldd	r19, Y+1	; 0x01
 36e:	4a 81       	ldd	r20, Y+2	; 0x02
 370:	c9 59       	subi	r28, 0x99	; 153
 372:	d0 40       	sbci	r29, 0x00	; 0
 374:	f9 01       	movw	r30, r18
 376:	84 91       	lpm	r24, Z
 378:	47 fd       	sbrc	r20, 7
 37a:	80 81       	ld	r24, Z
 37c:	08 2e       	mov	r0, r24
 37e:	00 0c       	add	r0, r0
 380:	99 0b       	sbc	r25, r25
 382:	c0 97       	sbiw	r24, 0x30	; 48
 384:	0a 97       	sbiw	r24, 0x0a	; 10
 386:	58 f4       	brcc	.+22     	; 0x39e <__printf_core+0x2be>
 388:	2f 5f       	subi	r18, 0xFF	; 255
 38a:	3f 4f       	sbci	r19, 0xFF	; 255
 38c:	4f 4f       	sbci	r20, 0xFF	; 255
 38e:	c7 56       	subi	r28, 0x67	; 103
 390:	df 4f       	sbci	r29, 0xFF	; 255
 392:	28 83       	st	Y, r18
 394:	39 83       	std	Y+1, r19	; 0x01
 396:	4a 83       	std	Y+2, r20	; 0x02
 398:	c9 59       	subi	r28, 0x99	; 153
 39a:	d0 40       	sbci	r29, 0x00	; 0
 39c:	e4 cf       	rjmp	.-56     	; 0x366 <__printf_core+0x286>
 39e:	cf 57       	subi	r28, 0x7F	; 127
 3a0:	df 4f       	sbci	r29, 0xFF	; 255
 3a2:	88 81       	ld	r24, Y
 3a4:	99 81       	ldd	r25, Y+1	; 0x01
 3a6:	c1 58       	subi	r28, 0x81	; 129
 3a8:	d0 40       	sbci	r29, 0x00	; 0
 3aa:	80 ff       	sbrs	r24, 0
 3ac:	07 c0       	rjmp	.+14     	; 0x3bc <__printf_core+0x2dc>
 3ae:	8d 7f       	andi	r24, 0xFD	; 253
 3b0:	cf 57       	subi	r28, 0x7F	; 127
 3b2:	df 4f       	sbci	r29, 0xFF	; 255
 3b4:	99 83       	std	Y+1, r25	; 0x01
 3b6:	88 83       	st	Y, r24
 3b8:	c1 58       	subi	r28, 0x81	; 129
 3ba:	d0 40       	sbci	r29, 0x00	; 0
 3bc:	c7 56       	subi	r28, 0x67	; 103
 3be:	df 4f       	sbci	r29, 0xFF	; 255
 3c0:	88 81       	ld	r24, Y
 3c2:	99 81       	ldd	r25, Y+1	; 0x01
 3c4:	aa 81       	ldd	r26, Y+2	; 0x02
 3c6:	c9 59       	subi	r28, 0x99	; 153
 3c8:	d0 40       	sbci	r29, 0x00	; 0
 3ca:	fc 01       	movw	r30, r24
 3cc:	24 91       	lpm	r18, Z
 3ce:	a7 fd       	sbrc	r26, 7
 3d0:	20 81       	ld	r18, Z
 3d2:	2e 32       	cpi	r18, 0x2E	; 46
 3d4:	09 f0       	breq	.+2      	; 0x3d8 <__printf_core+0x2f8>
 3d6:	58 c0       	rjmp	.+176    	; 0x488 <__EEPROM_REGION_LENGTH__+0x88>
 3d8:	cd 57       	subi	r28, 0x7D	; 125
 3da:	df 4f       	sbci	r29, 0xFF	; 255
 3dc:	19 82       	std	Y+1, r1	; 0x01
 3de:	18 82       	st	Y, r1
 3e0:	c3 58       	subi	r28, 0x83	; 131
 3e2:	d0 40       	sbci	r29, 0x00	; 0
 3e4:	9c 01       	movw	r18, r24
 3e6:	4a 2f       	mov	r20, r26
 3e8:	2f 5f       	subi	r18, 0xFF	; 255
 3ea:	3f 4f       	sbci	r19, 0xFF	; 255
 3ec:	4f 4f       	sbci	r20, 0xFF	; 255
 3ee:	c7 56       	subi	r28, 0x67	; 103
 3f0:	df 4f       	sbci	r29, 0xFF	; 255
 3f2:	28 83       	st	Y, r18
 3f4:	39 83       	std	Y+1, r19	; 0x01
 3f6:	4a 83       	std	Y+2, r20	; 0x02
 3f8:	c9 59       	subi	r28, 0x99	; 153
 3fa:	d0 40       	sbci	r29, 0x00	; 0
 3fc:	f9 01       	movw	r30, r18
 3fe:	54 91       	lpm	r21, Z
 400:	47 fd       	sbrc	r20, 7
 402:	50 81       	ld	r21, Z
 404:	5a 32       	cpi	r21, 0x2A	; 42
 406:	d1 f4       	brne	.+52     	; 0x43c <__EEPROM_REGION_LENGTH__+0x3c>
 408:	02 96       	adiw	r24, 0x02	; 2
 40a:	a1 1d       	adc	r26, r1
 40c:	c7 56       	subi	r28, 0x67	; 103
 40e:	df 4f       	sbci	r29, 0xFF	; 255
 410:	88 83       	st	Y, r24
 412:	99 83       	std	Y+1, r25	; 0x01
 414:	aa 83       	std	Y+2, r26	; 0x02
 416:	c9 59       	subi	r28, 0x99	; 153
 418:	d0 40       	sbci	r29, 0x00	; 0
 41a:	d5 01       	movw	r26, r10
 41c:	ed 91       	ld	r30, X+
 41e:	fc 91       	ld	r31, X
 420:	11 97       	sbiw	r26, 0x01	; 1
 422:	cf 01       	movw	r24, r30
 424:	02 96       	adiw	r24, 0x02	; 2
 426:	8d 93       	st	X+, r24
 428:	9c 93       	st	X, r25
 42a:	80 81       	ld	r24, Z
 42c:	91 81       	ldd	r25, Z+1	; 0x01
 42e:	cd 57       	subi	r28, 0x7D	; 125
 430:	df 4f       	sbci	r29, 0xFF	; 255
 432:	99 83       	std	Y+1, r25	; 0x01
 434:	88 83       	st	Y, r24
 436:	c3 58       	subi	r28, 0x83	; 131
 438:	d0 40       	sbci	r29, 0x00	; 0
 43a:	26 c0       	rjmp	.+76     	; 0x488 <__EEPROM_REGION_LENGTH__+0x88>
 43c:	84 2f       	mov	r24, r20
 43e:	b9 01       	movw	r22, r18
 440:	0e 94 79 0d 	call	0x1af2	; 0x1af2 <atoi>
 444:	cd 57       	subi	r28, 0x7D	; 125
 446:	df 4f       	sbci	r29, 0xFF	; 255
 448:	99 83       	std	Y+1, r25	; 0x01
 44a:	88 83       	st	Y, r24
 44c:	c3 58       	subi	r28, 0x83	; 131
 44e:	d0 40       	sbci	r29, 0x00	; 0
 450:	c7 56       	subi	r28, 0x67	; 103
 452:	df 4f       	sbci	r29, 0xFF	; 255
 454:	28 81       	ld	r18, Y
 456:	39 81       	ldd	r19, Y+1	; 0x01
 458:	4a 81       	ldd	r20, Y+2	; 0x02
 45a:	c9 59       	subi	r28, 0x99	; 153
 45c:	d0 40       	sbci	r29, 0x00	; 0
 45e:	f9 01       	movw	r30, r18
 460:	84 91       	lpm	r24, Z
 462:	47 fd       	sbrc	r20, 7
 464:	80 81       	ld	r24, Z
 466:	08 2e       	mov	r0, r24
 468:	00 0c       	add	r0, r0
 46a:	99 0b       	sbc	r25, r25
 46c:	c0 97       	sbiw	r24, 0x30	; 48
 46e:	0a 97       	sbiw	r24, 0x0a	; 10
 470:	58 f4       	brcc	.+22     	; 0x488 <__EEPROM_REGION_LENGTH__+0x88>
 472:	2f 5f       	subi	r18, 0xFF	; 255
 474:	3f 4f       	sbci	r19, 0xFF	; 255
 476:	4f 4f       	sbci	r20, 0xFF	; 255
 478:	c7 56       	subi	r28, 0x67	; 103
 47a:	df 4f       	sbci	r29, 0xFF	; 255
 47c:	28 83       	st	Y, r18
 47e:	39 83       	std	Y+1, r19	; 0x01
 480:	4a 83       	std	Y+2, r20	; 0x02
 482:	c9 59       	subi	r28, 0x99	; 153
 484:	d0 40       	sbci	r29, 0x00	; 0
 486:	e4 cf       	rjmp	.-56     	; 0x450 <__EEPROM_REGION_LENGTH__+0x50>
 488:	ce 01       	movw	r24, r28
 48a:	87 56       	subi	r24, 0x67	; 103
 48c:	9f 4f       	sbci	r25, 0xFF	; 255
 48e:	0e 94 e1 0c 	call	0x19c2	; 0x19c2 <__fmt_state>
 492:	18 2f       	mov	r17, r24
 494:	c7 56       	subi	r28, 0x67	; 103
 496:	df 4f       	sbci	r29, 0xFF	; 255
 498:	28 81       	ld	r18, Y
 49a:	c9 59       	subi	r28, 0x99	; 153
 49c:	d0 40       	sbci	r29, 0x00	; 0
 49e:	c6 56       	subi	r28, 0x66	; 102
 4a0:	df 4f       	sbci	r29, 0xFF	; 255
 4a2:	88 81       	ld	r24, Y
 4a4:	ca 59       	subi	r28, 0x9A	; 154
 4a6:	d0 40       	sbci	r29, 0x00	; 0
 4a8:	c5 56       	subi	r28, 0x65	; 101
 4aa:	df 4f       	sbci	r29, 0xFF	; 255
 4ac:	98 81       	ld	r25, Y
 4ae:	cb 59       	subi	r28, 0x9B	; 155
 4b0:	d0 40       	sbci	r29, 0x00	; 0
 4b2:	e2 2f       	mov	r30, r18
 4b4:	f8 2f       	mov	r31, r24
 4b6:	84 91       	lpm	r24, Z
 4b8:	97 fd       	sbrc	r25, 7
 4ba:	80 81       	ld	r24, Z
 4bc:	08 2e       	mov	r0, r24
 4be:	00 0c       	add	r0, r0
 4c0:	99 0b       	sbc	r25, r25
 4c2:	0e 94 d9 10 	call	0x21b2	; 0x21b2 <tolower>
 4c6:	89 36       	cpi	r24, 0x69	; 105
 4c8:	91 05       	cpc	r25, r1
 4ca:	09 f4       	brne	.+2      	; 0x4ce <__EEPROM_REGION_LENGTH__+0xce>
 4cc:	5a c0       	rjmp	.+180    	; 0x582 <__EEPROM_REGION_LENGTH__+0x182>
 4ce:	b4 f4       	brge	.+44     	; 0x4fc <__EEPROM_REGION_LENGTH__+0xfc>
 4d0:	83 36       	cpi	r24, 0x63	; 99
 4d2:	91 05       	cpc	r25, r1
 4d4:	09 f4       	brne	.+2      	; 0x4d8 <__EEPROM_REGION_LENGTH__+0xd8>
 4d6:	66 c1       	rjmp	.+716    	; 0x7a4 <__EEPROM_REGION_LENGTH__+0x3a4>
 4d8:	44 f4       	brge	.+16     	; 0x4ea <__EEPROM_REGION_LENGTH__+0xea>
 4da:	85 32       	cpi	r24, 0x25	; 37
 4dc:	91 05       	cpc	r25, r1
 4de:	09 f4       	brne	.+2      	; 0x4e2 <__EEPROM_REGION_LENGTH__+0xe2>
 4e0:	a1 c1       	rjmp	.+834    	; 0x824 <__DATA_REGION_LENGTH__+0x24>
 4e2:	81 36       	cpi	r24, 0x61	; 97
 4e4:	91 05       	cpc	r25, r1
 4e6:	29 f1       	breq	.+74     	; 0x532 <__EEPROM_REGION_LENGTH__+0x132>
 4e8:	b3 c1       	rjmp	.+870    	; 0x850 <__DATA_REGION_LENGTH__+0x50>
 4ea:	84 36       	cpi	r24, 0x64	; 100
 4ec:	91 05       	cpc	r25, r1
 4ee:	09 f4       	brne	.+2      	; 0x4f2 <__EEPROM_REGION_LENGTH__+0xf2>
 4f0:	48 c0       	rjmp	.+144    	; 0x582 <__EEPROM_REGION_LENGTH__+0x182>
 4f2:	88 36       	cpi	r24, 0x68	; 104
 4f4:	91 05       	cpc	r25, r1
 4f6:	0c f4       	brge	.+2      	; 0x4fa <__EEPROM_REGION_LENGTH__+0xfa>
 4f8:	2d c1       	rjmp	.+602    	; 0x754 <__EEPROM_REGION_LENGTH__+0x354>
 4fa:	aa c1       	rjmp	.+852    	; 0x850 <__DATA_REGION_LENGTH__+0x50>
 4fc:	80 37       	cpi	r24, 0x70	; 112
 4fe:	91 05       	cpc	r25, r1
 500:	09 f4       	brne	.+2      	; 0x504 <__EEPROM_REGION_LENGTH__+0x104>
 502:	cb c0       	rjmp	.+406    	; 0x69a <__EEPROM_REGION_LENGTH__+0x29a>
 504:	4c f4       	brge	.+18     	; 0x518 <__EEPROM_REGION_LENGTH__+0x118>
 506:	8e 36       	cpi	r24, 0x6E	; 110
 508:	91 05       	cpc	r25, r1
 50a:	09 f4       	brne	.+2      	; 0x50e <__EEPROM_REGION_LENGTH__+0x10e>
 50c:	19 c1       	rjmp	.+562    	; 0x740 <__EEPROM_REGION_LENGTH__+0x340>
 50e:	8f 36       	cpi	r24, 0x6F	; 111
 510:	91 05       	cpc	r25, r1
 512:	09 f4       	brne	.+2      	; 0x516 <__EEPROM_REGION_LENGTH__+0x116>
 514:	7c c0       	rjmp	.+248    	; 0x60e <__EEPROM_REGION_LENGTH__+0x20e>
 516:	9c c1       	rjmp	.+824    	; 0x850 <__DATA_REGION_LENGTH__+0x50>
 518:	85 37       	cpi	r24, 0x75	; 117
 51a:	91 05       	cpc	r25, r1
 51c:	09 f4       	brne	.+2      	; 0x520 <__EEPROM_REGION_LENGTH__+0x120>
 51e:	54 c0       	rjmp	.+168    	; 0x5c8 <__EEPROM_REGION_LENGTH__+0x1c8>
 520:	88 37       	cpi	r24, 0x78	; 120
 522:	91 05       	cpc	r25, r1
 524:	09 f4       	brne	.+2      	; 0x528 <__EEPROM_REGION_LENGTH__+0x128>
 526:	96 c0       	rjmp	.+300    	; 0x654 <__EEPROM_REGION_LENGTH__+0x254>
 528:	83 37       	cpi	r24, 0x73	; 115
 52a:	91 05       	cpc	r25, r1
 52c:	09 f0       	breq	.+2      	; 0x530 <__EEPROM_REGION_LENGTH__+0x130>
 52e:	90 c1       	rjmp	.+800    	; 0x850 <__DATA_REGION_LENGTH__+0x50>
 530:	58 c1       	rjmp	.+688    	; 0x7e2 <__EEPROM_REGION_LENGTH__+0x3e2>
 532:	61 2f       	mov	r22, r17
 534:	70 e0       	ldi	r23, 0x00	; 0
 536:	a5 01       	movw	r20, r10
 538:	c6 01       	movw	r24, r12
 53a:	0e 94 eb 0e 	call	0x1dd6	; 0x1dd6 <__pop_float>
 53e:	89 2b       	or	r24, r25
 540:	09 f4       	brne	.+2      	; 0x544 <__EEPROM_REGION_LENGTH__+0x144>
 542:	b7 c1       	rjmp	.+878    	; 0x8b2 <__stack+0x53>
 544:	c7 56       	subi	r28, 0x67	; 103
 546:	df 4f       	sbci	r29, 0xFF	; 255
 548:	88 81       	ld	r24, Y
 54a:	99 81       	ldd	r25, Y+1	; 0x01
 54c:	aa 81       	ldd	r26, Y+2	; 0x02
 54e:	c9 59       	subi	r28, 0x99	; 153
 550:	d0 40       	sbci	r29, 0x00	; 0
 552:	9c 01       	movw	r18, r24
 554:	4a 2f       	mov	r20, r26
 556:	2f 5f       	subi	r18, 0xFF	; 255
 558:	3f 4f       	sbci	r19, 0xFF	; 255
 55a:	4f 4f       	sbci	r20, 0xFF	; 255
 55c:	c7 56       	subi	r28, 0x67	; 103
 55e:	df 4f       	sbci	r29, 0xFF	; 255
 560:	28 83       	st	Y, r18
 562:	39 83       	std	Y+1, r19	; 0x01
 564:	4a 83       	std	Y+2, r20	; 0x02
 566:	c9 59       	subi	r28, 0x99	; 153
 568:	d0 40       	sbci	r29, 0x00	; 0
 56a:	fc 01       	movw	r30, r24
 56c:	24 91       	lpm	r18, Z
 56e:	a7 fd       	sbrc	r26, 7
 570:	20 81       	ld	r18, Z
 572:	a6 01       	movw	r20, r12
 574:	be 01       	movw	r22, r28
 576:	6f 57       	subi	r22, 0x7F	; 127
 578:	7f 4f       	sbci	r23, 0xFF	; 255
 57a:	c4 01       	movw	r24, r8
 57c:	0e 94 34 11 	call	0x2268	; 0x2268 <__fmt_a>
 580:	95 c1       	rjmp	.+810    	; 0x8ac <__stack+0x4d>
 582:	61 2f       	mov	r22, r17
 584:	70 e0       	ldi	r23, 0x00	; 0
 586:	95 01       	movw	r18, r10
 588:	41 e0       	ldi	r20, 0x01	; 1
 58a:	50 e0       	ldi	r21, 0x00	; 0
 58c:	c6 01       	movw	r24, r12
 58e:	0e 94 de 07 	call	0xfbc	; 0xfbc <__pop_int>
 592:	89 2b       	or	r24, r25
 594:	09 f4       	brne	.+2      	; 0x598 <__EEPROM_REGION_LENGTH__+0x198>
 596:	8d c1       	rjmp	.+794    	; 0x8b2 <__stack+0x53>
 598:	c7 56       	subi	r28, 0x67	; 103
 59a:	df 4f       	sbci	r29, 0xFF	; 255
 59c:	88 81       	ld	r24, Y
 59e:	99 81       	ldd	r25, Y+1	; 0x01
 5a0:	aa 81       	ldd	r26, Y+2	; 0x02
 5a2:	c9 59       	subi	r28, 0x99	; 153
 5a4:	d0 40       	sbci	r29, 0x00	; 0
 5a6:	01 96       	adiw	r24, 0x01	; 1
 5a8:	a1 1d       	adc	r26, r1
 5aa:	c7 56       	subi	r28, 0x67	; 103
 5ac:	df 4f       	sbci	r29, 0xFF	; 255
 5ae:	88 83       	st	Y, r24
 5b0:	99 83       	std	Y+1, r25	; 0x01
 5b2:	aa 83       	std	Y+2, r26	; 0x02
 5b4:	c9 59       	subi	r28, 0x99	; 153
 5b6:	d0 40       	sbci	r29, 0x00	; 0
 5b8:	a6 01       	movw	r20, r12
 5ba:	be 01       	movw	r22, r28
 5bc:	6f 57       	subi	r22, 0x7F	; 127
 5be:	7f 4f       	sbci	r23, 0xFF	; 255
 5c0:	c4 01       	movw	r24, r8
 5c2:	0e 94 31 11 	call	0x2262	; 0x2262 <__fmt_d>
 5c6:	72 c1       	rjmp	.+740    	; 0x8ac <__stack+0x4d>
 5c8:	61 2f       	mov	r22, r17
 5ca:	70 e0       	ldi	r23, 0x00	; 0
 5cc:	95 01       	movw	r18, r10
 5ce:	40 e0       	ldi	r20, 0x00	; 0
 5d0:	50 e0       	ldi	r21, 0x00	; 0
 5d2:	c6 01       	movw	r24, r12
 5d4:	0e 94 de 07 	call	0xfbc	; 0xfbc <__pop_int>
 5d8:	89 2b       	or	r24, r25
 5da:	09 f4       	brne	.+2      	; 0x5de <__EEPROM_REGION_LENGTH__+0x1de>
 5dc:	6a c1       	rjmp	.+724    	; 0x8b2 <__stack+0x53>
 5de:	c7 56       	subi	r28, 0x67	; 103
 5e0:	df 4f       	sbci	r29, 0xFF	; 255
 5e2:	88 81       	ld	r24, Y
 5e4:	99 81       	ldd	r25, Y+1	; 0x01
 5e6:	aa 81       	ldd	r26, Y+2	; 0x02
 5e8:	c9 59       	subi	r28, 0x99	; 153
 5ea:	d0 40       	sbci	r29, 0x00	; 0
 5ec:	01 96       	adiw	r24, 0x01	; 1
 5ee:	a1 1d       	adc	r26, r1
 5f0:	c7 56       	subi	r28, 0x67	; 103
 5f2:	df 4f       	sbci	r29, 0xFF	; 255
 5f4:	88 83       	st	Y, r24
 5f6:	99 83       	std	Y+1, r25	; 0x01
 5f8:	aa 83       	std	Y+2, r26	; 0x02
 5fa:	c9 59       	subi	r28, 0x99	; 153
 5fc:	d0 40       	sbci	r29, 0x00	; 0
 5fe:	a6 01       	movw	r20, r12
 600:	be 01       	movw	r22, r28
 602:	6f 57       	subi	r22, 0x7F	; 127
 604:	7f 4f       	sbci	r23, 0xFF	; 255
 606:	c4 01       	movw	r24, r8
 608:	0e 94 31 11 	call	0x2262	; 0x2262 <__fmt_d>
 60c:	4f c1       	rjmp	.+670    	; 0x8ac <__stack+0x4d>
 60e:	61 2f       	mov	r22, r17
 610:	70 e0       	ldi	r23, 0x00	; 0
 612:	95 01       	movw	r18, r10
 614:	40 e0       	ldi	r20, 0x00	; 0
 616:	50 e0       	ldi	r21, 0x00	; 0
 618:	c6 01       	movw	r24, r12
 61a:	0e 94 de 07 	call	0xfbc	; 0xfbc <__pop_int>
 61e:	89 2b       	or	r24, r25
 620:	09 f4       	brne	.+2      	; 0x624 <__EEPROM_REGION_LENGTH__+0x224>
 622:	47 c1       	rjmp	.+654    	; 0x8b2 <__stack+0x53>
 624:	c7 56       	subi	r28, 0x67	; 103
 626:	df 4f       	sbci	r29, 0xFF	; 255
 628:	88 81       	ld	r24, Y
 62a:	99 81       	ldd	r25, Y+1	; 0x01
 62c:	aa 81       	ldd	r26, Y+2	; 0x02
 62e:	c9 59       	subi	r28, 0x99	; 153
 630:	d0 40       	sbci	r29, 0x00	; 0
 632:	01 96       	adiw	r24, 0x01	; 1
 634:	a1 1d       	adc	r26, r1
 636:	c7 56       	subi	r28, 0x67	; 103
 638:	df 4f       	sbci	r29, 0xFF	; 255
 63a:	88 83       	st	Y, r24
 63c:	99 83       	std	Y+1, r25	; 0x01
 63e:	aa 83       	std	Y+2, r26	; 0x02
 640:	c9 59       	subi	r28, 0x99	; 153
 642:	d0 40       	sbci	r29, 0x00	; 0
 644:	a6 01       	movw	r20, r12
 646:	be 01       	movw	r22, r28
 648:	6f 57       	subi	r22, 0x7F	; 127
 64a:	7f 4f       	sbci	r23, 0xFF	; 255
 64c:	c4 01       	movw	r24, r8
 64e:	0e 94 31 11 	call	0x2262	; 0x2262 <__fmt_d>
 652:	2c c1       	rjmp	.+600    	; 0x8ac <__stack+0x4d>
 654:	61 2f       	mov	r22, r17
 656:	70 e0       	ldi	r23, 0x00	; 0
 658:	95 01       	movw	r18, r10
 65a:	40 e0       	ldi	r20, 0x00	; 0
 65c:	50 e0       	ldi	r21, 0x00	; 0
 65e:	c6 01       	movw	r24, r12
 660:	0e 94 de 07 	call	0xfbc	; 0xfbc <__pop_int>
 664:	89 2b       	or	r24, r25
 666:	09 f4       	brne	.+2      	; 0x66a <__EEPROM_REGION_LENGTH__+0x26a>
 668:	24 c1       	rjmp	.+584    	; 0x8b2 <__stack+0x53>
 66a:	c7 56       	subi	r28, 0x67	; 103
 66c:	df 4f       	sbci	r29, 0xFF	; 255
 66e:	88 81       	ld	r24, Y
 670:	99 81       	ldd	r25, Y+1	; 0x01
 672:	aa 81       	ldd	r26, Y+2	; 0x02
 674:	c9 59       	subi	r28, 0x99	; 153
 676:	d0 40       	sbci	r29, 0x00	; 0
 678:	9c 01       	movw	r18, r24
 67a:	4a 2f       	mov	r20, r26
 67c:	2f 5f       	subi	r18, 0xFF	; 255
 67e:	3f 4f       	sbci	r19, 0xFF	; 255
 680:	4f 4f       	sbci	r20, 0xFF	; 255
 682:	c7 56       	subi	r28, 0x67	; 103
 684:	df 4f       	sbci	r29, 0xFF	; 255
 686:	28 83       	st	Y, r18
 688:	39 83       	std	Y+1, r19	; 0x01
 68a:	4a 83       	std	Y+2, r20	; 0x02
 68c:	c9 59       	subi	r28, 0x99	; 153
 68e:	d0 40       	sbci	r29, 0x00	; 0
 690:	fc 01       	movw	r30, r24
 692:	24 91       	lpm	r18, Z
 694:	a7 fd       	sbrc	r26, 7
 696:	20 81       	ld	r18, Z
 698:	4b c0       	rjmp	.+150    	; 0x730 <__EEPROM_REGION_LENGTH__+0x330>
 69a:	95 01       	movw	r18, r10
 69c:	40 e0       	ldi	r20, 0x00	; 0
 69e:	50 e0       	ldi	r21, 0x00	; 0
 6a0:	60 ef       	ldi	r22, 0xF0	; 240
 6a2:	70 e0       	ldi	r23, 0x00	; 0
 6a4:	c6 01       	movw	r24, r12
 6a6:	0e 94 de 07 	call	0xfbc	; 0xfbc <__pop_int>
 6aa:	89 2b       	or	r24, r25
 6ac:	09 f4       	brne	.+2      	; 0x6b0 <__EEPROM_REGION_LENGTH__+0x2b0>
 6ae:	01 c1       	rjmp	.+514    	; 0x8b2 <__stack+0x53>
 6b0:	c7 56       	subi	r28, 0x67	; 103
 6b2:	df 4f       	sbci	r29, 0xFF	; 255
 6b4:	88 81       	ld	r24, Y
 6b6:	99 81       	ldd	r25, Y+1	; 0x01
 6b8:	aa 81       	ldd	r26, Y+2	; 0x02
 6ba:	c9 59       	subi	r28, 0x99	; 153
 6bc:	d0 40       	sbci	r29, 0x00	; 0
 6be:	01 96       	adiw	r24, 0x01	; 1
 6c0:	a1 1d       	adc	r26, r1
 6c2:	c7 56       	subi	r28, 0x67	; 103
 6c4:	df 4f       	sbci	r29, 0xFF	; 255
 6c6:	88 83       	st	Y, r24
 6c8:	99 83       	std	Y+1, r25	; 0x01
 6ca:	aa 83       	std	Y+2, r26	; 0x02
 6cc:	c9 59       	subi	r28, 0x99	; 153
 6ce:	d0 40       	sbci	r29, 0x00	; 0
 6d0:	86 e0       	ldi	r24, 0x06	; 6
 6d2:	24 ed       	ldi	r18, 0xD4	; 212
 6d4:	30 e0       	ldi	r19, 0x00	; 0
 6d6:	40 e0       	ldi	r20, 0x00	; 0
 6d8:	f9 01       	movw	r30, r18
 6da:	de 01       	movw	r26, r28
 6dc:	ad 56       	subi	r26, 0x6D	; 109
 6de:	bf 4f       	sbci	r27, 0xFF	; 255
 6e0:	74 2f       	mov	r23, r20
 6e2:	0e 94 81 10 	call	0x2102	; 0x2102 <__movmemx_qi>
 6e6:	d6 01       	movw	r26, r12
 6e8:	2c 91       	ld	r18, X
 6ea:	11 96       	adiw	r26, 0x01	; 1
 6ec:	3c 91       	ld	r19, X
 6ee:	11 97       	sbiw	r26, 0x01	; 1
 6f0:	12 96       	adiw	r26, 0x02	; 2
 6f2:	4c 91       	ld	r20, X
 6f4:	12 97       	sbiw	r26, 0x02	; 2
 6f6:	13 96       	adiw	r26, 0x03	; 3
 6f8:	5c 91       	ld	r21, X
 6fa:	13 97       	sbiw	r26, 0x03	; 3
 6fc:	14 96       	adiw	r26, 0x04	; 4
 6fe:	6c 91       	ld	r22, X
 700:	14 97       	sbiw	r26, 0x04	; 4
 702:	15 96       	adiw	r26, 0x05	; 5
 704:	7c 91       	ld	r23, X
 706:	15 97       	sbiw	r26, 0x05	; 5
 708:	16 96       	adiw	r26, 0x06	; 6
 70a:	8c 91       	ld	r24, X
 70c:	16 97       	sbiw	r26, 0x06	; 6
 70e:	17 96       	adiw	r26, 0x07	; 7
 710:	9c 91       	ld	r25, X
 712:	a0 e0       	ldi	r26, 0x00	; 0
 714:	0e 94 9a 10 	call	0x2134	; 0x2134 <__cmpdi2_s8>
 718:	51 f4       	brne	.+20     	; 0x72e <__EEPROM_REGION_LENGTH__+0x32e>
 71a:	00 e0       	ldi	r16, 0x00	; 0
 71c:	10 e0       	ldi	r17, 0x00	; 0
 71e:	cf 55       	subi	r28, 0x5F	; 95
 720:	df 4f       	sbci	r29, 0xFF	; 255
 722:	28 81       	ld	r18, Y
 724:	39 81       	ldd	r19, Y+1	; 0x01
 726:	4a 81       	ldd	r20, Y+2	; 0x02
 728:	c1 5a       	subi	r28, 0xA1	; 161
 72a:	d0 40       	sbci	r29, 0x00	; 0
 72c:	b9 c0       	rjmp	.+370    	; 0x8a0 <__stack+0x41>
 72e:	28 e7       	ldi	r18, 0x78	; 120
 730:	a6 01       	movw	r20, r12
 732:	be 01       	movw	r22, r28
 734:	6f 57       	subi	r22, 0x7F	; 127
 736:	7f 4f       	sbci	r23, 0xFF	; 255
 738:	c4 01       	movw	r24, r8
 73a:	0e 94 34 11 	call	0x2268	; 0x2268 <__fmt_a>
 73e:	b6 c0       	rjmp	.+364    	; 0x8ac <__stack+0x4d>
 740:	61 2f       	mov	r22, r17
 742:	70 e0       	ldi	r23, 0x00	; 0
 744:	95 01       	movw	r18, r10
 746:	a1 01       	movw	r20, r2
 748:	4e 0d       	add	r20, r14
 74a:	5f 1d       	adc	r21, r15
 74c:	c6 01       	movw	r24, r12
 74e:	0e 94 52 0b 	call	0x16a4	; 0x16a4 <__pop_ptr>
 752:	af c0       	rjmp	.+350    	; 0x8b2 <__stack+0x53>
 754:	61 2f       	mov	r22, r17
 756:	70 e0       	ldi	r23, 0x00	; 0
 758:	a5 01       	movw	r20, r10
 75a:	c6 01       	movw	r24, r12
 75c:	0e 94 eb 0e 	call	0x1dd6	; 0x1dd6 <__pop_float>
 760:	89 2b       	or	r24, r25
 762:	09 f4       	brne	.+2      	; 0x766 <__EEPROM_REGION_LENGTH__+0x366>
 764:	a6 c0       	rjmp	.+332    	; 0x8b2 <__stack+0x53>
 766:	c7 56       	subi	r28, 0x67	; 103
 768:	df 4f       	sbci	r29, 0xFF	; 255
 76a:	88 81       	ld	r24, Y
 76c:	99 81       	ldd	r25, Y+1	; 0x01
 76e:	aa 81       	ldd	r26, Y+2	; 0x02
 770:	c9 59       	subi	r28, 0x99	; 153
 772:	d0 40       	sbci	r29, 0x00	; 0
 774:	9c 01       	movw	r18, r24
 776:	4a 2f       	mov	r20, r26
 778:	2f 5f       	subi	r18, 0xFF	; 255
 77a:	3f 4f       	sbci	r19, 0xFF	; 255
 77c:	4f 4f       	sbci	r20, 0xFF	; 255
 77e:	c7 56       	subi	r28, 0x67	; 103
 780:	df 4f       	sbci	r29, 0xFF	; 255
 782:	28 83       	st	Y, r18
 784:	39 83       	std	Y+1, r19	; 0x01
 786:	4a 83       	std	Y+2, r20	; 0x02
 788:	c9 59       	subi	r28, 0x99	; 153
 78a:	d0 40       	sbci	r29, 0x00	; 0
 78c:	fc 01       	movw	r30, r24
 78e:	24 91       	lpm	r18, Z
 790:	a7 fd       	sbrc	r26, 7
 792:	20 81       	ld	r18, Z
 794:	a6 01       	movw	r20, r12
 796:	be 01       	movw	r22, r28
 798:	6f 57       	subi	r22, 0x7F	; 127
 79a:	7f 4f       	sbci	r23, 0xFF	; 255
 79c:	c4 01       	movw	r24, r8
 79e:	0e 94 81 04 	call	0x902	; 0x902 <__fmt_fp>
 7a2:	84 c0       	rjmp	.+264    	; 0x8ac <__stack+0x4d>
 7a4:	10 38       	cpi	r17, 0x80	; 128
 7a6:	09 f0       	breq	.+2      	; 0x7aa <__EEPROM_REGION_LENGTH__+0x3aa>
 7a8:	84 c0       	rjmp	.+264    	; 0x8b2 <__stack+0x53>
 7aa:	c7 56       	subi	r28, 0x67	; 103
 7ac:	df 4f       	sbci	r29, 0xFF	; 255
 7ae:	88 81       	ld	r24, Y
 7b0:	99 81       	ldd	r25, Y+1	; 0x01
 7b2:	aa 81       	ldd	r26, Y+2	; 0x02
 7b4:	c9 59       	subi	r28, 0x99	; 153
 7b6:	d0 40       	sbci	r29, 0x00	; 0
 7b8:	01 96       	adiw	r24, 0x01	; 1
 7ba:	a1 1d       	adc	r26, r1
 7bc:	c7 56       	subi	r28, 0x67	; 103
 7be:	df 4f       	sbci	r29, 0xFF	; 255
 7c0:	88 83       	st	Y, r24
 7c2:	99 83       	std	Y+1, r25	; 0x01
 7c4:	aa 83       	std	Y+2, r26	; 0x02
 7c6:	c9 59       	subi	r28, 0x99	; 153
 7c8:	d0 40       	sbci	r29, 0x00	; 0
 7ca:	d5 01       	movw	r26, r10
 7cc:	ed 91       	ld	r30, X+
 7ce:	fc 91       	ld	r31, X
 7d0:	11 97       	sbiw	r26, 0x01	; 1
 7d2:	cf 01       	movw	r24, r30
 7d4:	02 96       	adiw	r24, 0x02	; 2
 7d6:	8d 93       	st	X+, r24
 7d8:	9c 93       	st	X, r25
 7da:	80 81       	ld	r24, Z
 7dc:	f6 01       	movw	r30, r12
 7de:	80 83       	st	Z, r24
 7e0:	5b c0       	rjmp	.+182    	; 0x898 <__stack+0x39>
 7e2:	10 38       	cpi	r17, 0x80	; 128
 7e4:	09 f0       	breq	.+2      	; 0x7e8 <__EEPROM_REGION_LENGTH__+0x3e8>
 7e6:	65 c0       	rjmp	.+202    	; 0x8b2 <__stack+0x53>
 7e8:	c7 56       	subi	r28, 0x67	; 103
 7ea:	df 4f       	sbci	r29, 0xFF	; 255
 7ec:	88 81       	ld	r24, Y
 7ee:	99 81       	ldd	r25, Y+1	; 0x01
 7f0:	aa 81       	ldd	r26, Y+2	; 0x02
 7f2:	c9 59       	subi	r28, 0x99	; 153
 7f4:	d0 40       	sbci	r29, 0x00	; 0
 7f6:	01 96       	adiw	r24, 0x01	; 1
 7f8:	a1 1d       	adc	r26, r1
 7fa:	c7 56       	subi	r28, 0x67	; 103
 7fc:	df 4f       	sbci	r29, 0xFF	; 255
 7fe:	88 83       	st	Y, r24
 800:	99 83       	std	Y+1, r25	; 0x01
 802:	aa 83       	std	Y+2, r26	; 0x02
 804:	c9 59       	subi	r28, 0x99	; 153
 806:	d0 40       	sbci	r29, 0x00	; 0
 808:	d5 01       	movw	r26, r10
 80a:	ed 91       	ld	r30, X+
 80c:	fc 91       	ld	r31, X
 80e:	11 97       	sbiw	r26, 0x01	; 1
 810:	cf 01       	movw	r24, r30
 812:	03 96       	adiw	r24, 0x03	; 3
 814:	8d 93       	st	X+, r24
 816:	9c 93       	st	X, r25
 818:	20 81       	ld	r18, Z
 81a:	31 81       	ldd	r19, Z+1	; 0x01
 81c:	42 81       	ldd	r20, Z+2	; 0x02
 81e:	00 e0       	ldi	r16, 0x00	; 0
 820:	10 e0       	ldi	r17, 0x00	; 0
 822:	3e c0       	rjmp	.+124    	; 0x8a0 <__stack+0x41>
 824:	10 38       	cpi	r17, 0x80	; 128
 826:	09 f0       	breq	.+2      	; 0x82a <__DATA_REGION_LENGTH__+0x2a>
 828:	44 c0       	rjmp	.+136    	; 0x8b2 <__stack+0x53>
 82a:	c7 56       	subi	r28, 0x67	; 103
 82c:	df 4f       	sbci	r29, 0xFF	; 255
 82e:	88 81       	ld	r24, Y
 830:	99 81       	ldd	r25, Y+1	; 0x01
 832:	aa 81       	ldd	r26, Y+2	; 0x02
 834:	c9 59       	subi	r28, 0x99	; 153
 836:	d0 40       	sbci	r29, 0x00	; 0
 838:	01 96       	adiw	r24, 0x01	; 1
 83a:	a1 1d       	adc	r26, r1
 83c:	c7 56       	subi	r28, 0x67	; 103
 83e:	df 4f       	sbci	r29, 0xFF	; 255
 840:	88 83       	st	Y, r24
 842:	99 83       	std	Y+1, r25	; 0x01
 844:	aa 83       	std	Y+2, r26	; 0x02
 846:	c9 59       	subi	r28, 0x99	; 153
 848:	d0 40       	sbci	r29, 0x00	; 0
 84a:	f6 01       	movw	r30, r12
 84c:	70 82       	st	Z, r7
 84e:	24 c0       	rjmp	.+72     	; 0x898 <__stack+0x39>
 850:	d6 01       	movw	r26, r12
 852:	7c 92       	st	X, r7
 854:	c2 56       	subi	r28, 0x62	; 98
 856:	df 4f       	sbci	r29, 0xFF	; 255
 858:	28 81       	ld	r18, Y
 85a:	39 81       	ldd	r19, Y+1	; 0x01
 85c:	4a 81       	ldd	r20, Y+2	; 0x02
 85e:	ce 59       	subi	r28, 0x9E	; 158
 860:	d0 40       	sbci	r29, 0x00	; 0
 862:	c7 56       	subi	r28, 0x67	; 103
 864:	df 4f       	sbci	r29, 0xFF	; 255
 866:	28 83       	st	Y, r18
 868:	39 83       	std	Y+1, r19	; 0x01
 86a:	4a 83       	std	Y+2, r20	; 0x02
 86c:	c9 59       	subi	r28, 0x99	; 153
 86e:	d0 40       	sbci	r29, 0x00	; 0
 870:	cf 57       	subi	r28, 0x7F	; 127
 872:	df 4f       	sbci	r29, 0xFF	; 255
 874:	19 82       	std	Y+1, r1	; 0x01
 876:	18 82       	st	Y, r1
 878:	c1 58       	subi	r28, 0x81	; 129
 87a:	d0 40       	sbci	r29, 0x00	; 0
 87c:	cb 57       	subi	r28, 0x7B	; 123
 87e:	df 4f       	sbci	r29, 0xFF	; 255
 880:	19 82       	std	Y+1, r1	; 0x01
 882:	18 82       	st	Y, r1
 884:	c5 58       	subi	r28, 0x85	; 133
 886:	d0 40       	sbci	r29, 0x00	; 0
 888:	8f ef       	ldi	r24, 0xFF	; 255
 88a:	9f ef       	ldi	r25, 0xFF	; 255
 88c:	cd 57       	subi	r28, 0x7D	; 125
 88e:	df 4f       	sbci	r29, 0xFF	; 255
 890:	99 83       	std	Y+1, r25	; 0x01
 892:	88 83       	st	Y, r24
 894:	c3 58       	subi	r28, 0x83	; 131
 896:	d0 40       	sbci	r29, 0x00	; 0
 898:	01 e0       	ldi	r16, 0x01	; 1
 89a:	10 e0       	ldi	r17, 0x00	; 0
 89c:	46 2d       	mov	r20, r6
 89e:	92 01       	movw	r18, r4
 8a0:	be 01       	movw	r22, r28
 8a2:	6f 57       	subi	r22, 0x7F	; 127
 8a4:	7f 4f       	sbci	r23, 0xFF	; 255
 8a6:	c4 01       	movw	r24, r8
 8a8:	0e 94 37 11 	call	0x226e	; 0x226e <__fmt_s>
 8ac:	8e 0d       	add	r24, r14
 8ae:	9f 1d       	adc	r25, r15
 8b0:	11 c0       	rjmp	.+34     	; 0x8d4 <__stack+0x75>
 8b2:	c7 56       	subi	r28, 0x67	; 103
 8b4:	df 4f       	sbci	r29, 0xFF	; 255
 8b6:	88 81       	ld	r24, Y
 8b8:	99 81       	ldd	r25, Y+1	; 0x01
 8ba:	aa 81       	ldd	r26, Y+2	; 0x02
 8bc:	c9 59       	subi	r28, 0x99	; 153
 8be:	d0 40       	sbci	r29, 0x00	; 0
 8c0:	01 96       	adiw	r24, 0x01	; 1
 8c2:	a1 1d       	adc	r26, r1
 8c4:	c7 56       	subi	r28, 0x67	; 103
 8c6:	df 4f       	sbci	r29, 0xFF	; 255
 8c8:	88 83       	st	Y, r24
 8ca:	99 83       	std	Y+1, r25	; 0x01
 8cc:	aa 83       	std	Y+2, r26	; 0x02
 8ce:	c9 59       	subi	r28, 0x99	; 153
 8d0:	d0 40       	sbci	r29, 0x00	; 0
 8d2:	c7 01       	movw	r24, r14
 8d4:	71 01       	movw	r14, r2
 8d6:	e8 0e       	add	r14, r24
 8d8:	f9 1e       	adc	r15, r25
 8da:	e2 14       	cp	r14, r2
 8dc:	f3 04       	cpc	r15, r3
 8de:	4c f4       	brge	.+18     	; 0x8f2 <__stack+0x93>
 8e0:	8f e4       	ldi	r24, 0x4F	; 79
 8e2:	90 e0       	ldi	r25, 0x00	; 0
 8e4:	90 93 61 00 	sts	0x0061, r25	; 0x800061 <_edata+0x1>
 8e8:	80 93 60 00 	sts	0x0060, r24	; 0x800060 <_edata>
 8ec:	8f ef       	ldi	r24, 0xFF	; 255
 8ee:	9f ef       	ldi	r25, 0xFF	; 255
 8f0:	03 c0       	rjmp	.+6      	; 0x8f8 <__stack+0x99>
 8f2:	17 01       	movw	r2, r14
 8f4:	21 cc       	rjmp	.-1982   	; 0x138 <__printf_core+0x58>
 8f6:	c1 01       	movw	r24, r2
 8f8:	cd 55       	subi	r28, 0x5D	; 93
 8fa:	df 4f       	sbci	r29, 0xFF	; 255
 8fc:	e2 e1       	ldi	r30, 0x12	; 18
 8fe:	0c 94 9c 0f 	jmp	0x1f38	; 0x1f38 <__epilogue_restores__>

Disassembly of section .text.fputc:

00001a60 <fputc>:
    1a60:	0f 93       	push	r16
    1a62:	1f 93       	push	r17
    1a64:	cf 93       	push	r28
    1a66:	df 93       	push	r29
    1a68:	db 01       	movw	r26, r22
    1a6a:	2d 91       	ld	r18, X+
    1a6c:	3c 91       	ld	r19, X
    1a6e:	11 97       	sbiw	r26, 0x01	; 1
    1a70:	30 ff       	sbrs	r19, 0
    1a72:	25 c0       	rjmp	.+74     	; 0x1abe <fputc+0x5e>
    1a74:	17 96       	adiw	r26, 0x07	; 7
    1a76:	4d 91       	ld	r20, X+
    1a78:	5c 91       	ld	r21, X
    1a7a:	18 97       	sbiw	r26, 0x08	; 8
    1a7c:	15 96       	adiw	r26, 0x05	; 5
    1a7e:	2d 91       	ld	r18, X+
    1a80:	3c 91       	ld	r19, X
    1a82:	16 97       	sbiw	r26, 0x06	; 6
    1a84:	42 17       	cp	r20, r18
    1a86:	53 07       	cpc	r21, r19
    1a88:	78 f4       	brcc	.+30     	; 0x1aa8 <fputc+0x48>
    1a8a:	12 96       	adiw	r26, 0x02	; 2
    1a8c:	ed 91       	ld	r30, X+
    1a8e:	fc 91       	ld	r31, X
    1a90:	13 97       	sbiw	r26, 0x03	; 3
    1a92:	80 83       	st	Z, r24
    1a94:	12 96       	adiw	r26, 0x02	; 2
    1a96:	2d 91       	ld	r18, X+
    1a98:	3c 91       	ld	r19, X
    1a9a:	13 97       	sbiw	r26, 0x03	; 3
    1a9c:	2f 5f       	subi	r18, 0xFF	; 255
    1a9e:	3f 4f       	sbci	r19, 0xFF	; 255
    1aa0:	13 96       	adiw	r26, 0x03	; 3
    1aa2:	3c 93       	st	X, r19
    1aa4:	2e 93       	st	-X, r18
    1aa6:	12 97       	sbiw	r26, 0x02	; 2
    1aa8:	17 96       	adiw	r26, 0x07	; 7
    1aaa:	2d 91       	ld	r18, X+
    1aac:	3c 91       	ld	r19, X
    1aae:	18 97       	sbiw	r26, 0x08	; 8
    1ab0:	2f 5f       	subi	r18, 0xFF	; 255
    1ab2:	3f 4f       	sbci	r19, 0xFF	; 255
    1ab4:	18 96       	adiw	r26, 0x08	; 8
    1ab6:	3c 93       	st	X, r19
    1ab8:	2e 93       	st	-X, r18
    1aba:	17 97       	sbiw	r26, 0x07	; 7
    1abc:	15 c0       	rjmp	.+42     	; 0x1ae8 <fputc+0x88>
    1abe:	1d 96       	adiw	r26, 0x0d	; 13
    1ac0:	ed 91       	ld	r30, X+
    1ac2:	fc 91       	ld	r31, X
    1ac4:	1e 97       	sbiw	r26, 0x0e	; 14
    1ac6:	30 97       	sbiw	r30, 0x00	; 0
    1ac8:	19 f4       	brne	.+6      	; 0x1ad0 <fputc+0x70>
    1aca:	8f ef       	ldi	r24, 0xFF	; 255
    1acc:	9f ef       	ldi	r25, 0xFF	; 255
    1ace:	0c c0       	rjmp	.+24     	; 0x1ae8 <fputc+0x88>
    1ad0:	8b 01       	movw	r16, r22
    1ad2:	ec 01       	movw	r28, r24
    1ad4:	09 95       	icall
    1ad6:	89 2b       	or	r24, r25
    1ad8:	c1 f7       	brne	.-16     	; 0x1aca <fputc+0x6a>
    1ada:	f8 01       	movw	r30, r16
    1adc:	87 81       	ldd	r24, Z+7	; 0x07
    1ade:	90 85       	ldd	r25, Z+8	; 0x08
    1ae0:	01 96       	adiw	r24, 0x01	; 1
    1ae2:	90 87       	std	Z+8, r25	; 0x08
    1ae4:	87 83       	std	Z+7, r24	; 0x07
    1ae6:	ce 01       	movw	r24, r28
    1ae8:	df 91       	pop	r29
    1aea:	cf 91       	pop	r28
    1aec:	1f 91       	pop	r17
    1aee:	0f 91       	pop	r16
    1af0:	08 95       	ret

Disassembly of section .text.__pop_float:

00001dd6 <__pop_float>:
    1dd6:	fa 01       	movw	r30, r20
    1dd8:	60 38       	cpi	r22, 0x80	; 128
    1dda:	71 05       	cpc	r23, r1
    1ddc:	cc f0       	brlt	.+50     	; 0x1e10 <__pop_float+0x3a>
    1dde:	62 38       	cpi	r22, 0x82	; 130
    1de0:	71 05       	cpc	r23, r1
    1de2:	1c f0       	brlt	.+6      	; 0x1dea <__pop_float+0x14>
    1de4:	63 38       	cpi	r22, 0x83	; 131
    1de6:	71 05       	cpc	r23, r1
    1de8:	99 f4       	brne	.+38     	; 0x1e10 <__pop_float+0x3a>
    1dea:	a0 81       	ld	r26, Z
    1dec:	b1 81       	ldd	r27, Z+1	; 0x01
    1dee:	9d 01       	movw	r18, r26
    1df0:	2c 5f       	subi	r18, 0xFC	; 252
    1df2:	3f 4f       	sbci	r19, 0xFF	; 255
    1df4:	31 83       	std	Z+1, r19	; 0x01
    1df6:	20 83       	st	Z, r18
    1df8:	4d 91       	ld	r20, X+
    1dfa:	5d 91       	ld	r21, X+
    1dfc:	6d 91       	ld	r22, X+
    1dfe:	7c 91       	ld	r23, X
    1e00:	fc 01       	movw	r30, r24
    1e02:	40 83       	st	Z, r20
    1e04:	51 83       	std	Z+1, r21	; 0x01
    1e06:	62 83       	std	Z+2, r22	; 0x02
    1e08:	73 83       	std	Z+3, r23	; 0x03
    1e0a:	81 e0       	ldi	r24, 0x01	; 1
    1e0c:	90 e0       	ldi	r25, 0x00	; 0
    1e0e:	08 95       	ret
    1e10:	80 e0       	ldi	r24, 0x00	; 0
    1e12:	90 e0       	ldi	r25, 0x00	; 0
    1e14:	08 95       	ret

Disassembly of section .text.__pop_int:

00000fbc <__pop_int>:
     fbc:	0f 93       	push	r16
     fbe:	1f 93       	push	r17
     fc0:	cf 93       	push	r28
     fc2:	df 93       	push	r29
     fc4:	fc 01       	movw	r30, r24
     fc6:	d9 01       	movw	r26, r18
     fc8:	68 38       	cpi	r22, 0x88	; 136
     fca:	71 05       	cpc	r23, r1
     fcc:	31 f1       	breq	.+76     	; 0x101a <__pop_int+0x5e>
     fce:	94 f4       	brge	.+36     	; 0xff4 <__pop_int+0x38>
     fd0:	61 38       	cpi	r22, 0x81	; 129
     fd2:	71 05       	cpc	r23, r1
     fd4:	b1 f1       	breq	.+108    	; 0x1042 <__pop_int+0x86>
     fd6:	2c f4       	brge	.+10     	; 0xfe2 <__pop_int+0x26>
     fd8:	60 38       	cpi	r22, 0x80	; 128
     fda:	71 05       	cpc	r23, r1
     fdc:	09 f4       	brne	.+2      	; 0xfe0 <__pop_int+0x24>
     fde:	78 c0       	rjmp	.+240    	; 0x10d0 <__pop_int+0x114>
     fe0:	9f c0       	rjmp	.+318    	; 0x1120 <__pop_int+0x164>
     fe2:	62 38       	cpi	r22, 0x82	; 130
     fe4:	71 05       	cpc	r23, r1
     fe6:	09 f4       	brne	.+2      	; 0xfea <__pop_int+0x2e>
     fe8:	59 c0       	rjmp	.+178    	; 0x109c <__pop_int+0xe0>
     fea:	64 38       	cpi	r22, 0x84	; 132
     fec:	71 05       	cpc	r23, r1
     fee:	09 f4       	brne	.+2      	; 0xff2 <__pop_int+0x36>
     ff0:	6f c0       	rjmp	.+222    	; 0x10d0 <__pop_int+0x114>
     ff2:	96 c0       	rjmp	.+300    	; 0x1120 <__pop_int+0x164>
     ff4:	60 3a       	cpi	r22, 0xA0	; 160
     ff6:	71 05       	cpc	r23, r1
     ff8:	09 f4       	brne	.+2      	; 0xffc <__pop_int+0x40>
     ffa:	48 c0       	rjmp	.+144    	; 0x108c <__pop_int+0xd0>
     ffc:	2c f4       	brge	.+10     	; 0x1008 <__pop_int+0x4c>
     ffe:	60 39       	cpi	r22, 0x90	; 144
    1000:	71 05       	cpc	r23, r1
    1002:	09 f4       	brne	.+2      	; 0x1006 <__pop_int+0x4a>
    1004:	4b c0       	rjmp	.+150    	; 0x109c <__pop_int+0xe0>
    1006:	8c c0       	rjmp	.+280    	; 0x1120 <__pop_int+0x164>
    1008:	60 3c       	cpi	r22, 0xC0	; 192
    100a:	71 05       	cpc	r23, r1
    100c:	09 f4       	brne	.+2      	; 0x1010 <__pop_int+0x54>
    100e:	76 c0       	rjmp	.+236    	; 0x10fc <__pop_int+0x140>
    1010:	60 3f       	cpi	r22, 0xF0	; 240
    1012:	71 05       	cpc	r23, r1
    1014:	09 f4       	brne	.+2      	; 0x1018 <__pop_int+0x5c>
    1016:	72 c0       	rjmp	.+228    	; 0x10fc <__pop_int+0x140>
    1018:	83 c0       	rjmp	.+262    	; 0x1120 <__pop_int+0x164>
    101a:	cd 91       	ld	r28, X+
    101c:	dc 91       	ld	r29, X
    101e:	11 97       	sbiw	r26, 0x01	; 1
    1020:	ce 01       	movw	r24, r28
    1022:	02 96       	adiw	r24, 0x02	; 2
    1024:	8d 93       	st	X+, r24
    1026:	9c 93       	st	X, r25
    1028:	45 2b       	or	r20, r21
    102a:	39 f0       	breq	.+14     	; 0x103a <__pop_int+0x7e>
    102c:	98 81       	ld	r25, Y
    102e:	89 2f       	mov	r24, r25
    1030:	88 0f       	add	r24, r24
    1032:	88 0b       	sbc	r24, r24
    1034:	90 83       	st	Z, r25
    1036:	81 83       	std	Z+1, r24	; 0x01
    1038:	5b c0       	rjmp	.+182    	; 0x10f0 <__pop_int+0x134>
    103a:	88 81       	ld	r24, Y
    103c:	80 83       	st	Z, r24
    103e:	11 82       	std	Z+1, r1	; 0x01
    1040:	68 c0       	rjmp	.+208    	; 0x1112 <__pop_int+0x156>
    1042:	cd 91       	ld	r28, X+
    1044:	dc 91       	ld	r29, X
    1046:	11 97       	sbiw	r26, 0x01	; 1
    1048:	ce 01       	movw	r24, r28
    104a:	04 96       	adiw	r24, 0x04	; 4
    104c:	8d 93       	st	X+, r24
    104e:	9c 93       	st	X, r25
    1050:	45 2b       	or	r20, r21
    1052:	99 f0       	breq	.+38     	; 0x107a <__pop_int+0xbe>
    1054:	88 81       	ld	r24, Y
    1056:	99 81       	ldd	r25, Y+1	; 0x01
    1058:	aa 81       	ldd	r26, Y+2	; 0x02
    105a:	bb 81       	ldd	r27, Y+3	; 0x03
    105c:	ac 01       	movw	r20, r24
    105e:	bd 01       	movw	r22, r26
    1060:	77 0f       	add	r23, r23
    1062:	44 0b       	sbc	r20, r20
    1064:	54 2f       	mov	r21, r20
    1066:	ba 01       	movw	r22, r20
    1068:	80 83       	st	Z, r24
    106a:	91 83       	std	Z+1, r25	; 0x01
    106c:	a2 83       	std	Z+2, r26	; 0x02
    106e:	b3 83       	std	Z+3, r27	; 0x03
    1070:	44 83       	std	Z+4, r20	; 0x04
    1072:	45 83       	std	Z+5, r20	; 0x05
    1074:	46 83       	std	Z+6, r20	; 0x06
    1076:	47 83       	std	Z+7, r20	; 0x07
    1078:	28 c0       	rjmp	.+80     	; 0x10ca <__pop_int+0x10e>
    107a:	08 81       	ld	r16, Y
    107c:	19 81       	ldd	r17, Y+1	; 0x01
    107e:	2a 81       	ldd	r18, Y+2	; 0x02
    1080:	3b 81       	ldd	r19, Y+3	; 0x03
    1082:	00 83       	st	Z, r16
    1084:	11 83       	std	Z+1, r17	; 0x01
    1086:	22 83       	std	Z+2, r18	; 0x02
    1088:	33 83       	std	Z+3, r19	; 0x03
    108a:	45 c0       	rjmp	.+138    	; 0x1116 <__pop_int+0x15a>
    108c:	cd 91       	ld	r28, X+
    108e:	dc 91       	ld	r29, X
    1090:	11 97       	sbiw	r26, 0x01	; 1
    1092:	ce 01       	movw	r24, r28
    1094:	02 96       	adiw	r24, 0x02	; 2
    1096:	8d 93       	st	X+, r24
    1098:	9c 93       	st	X, r25
    109a:	23 c0       	rjmp	.+70     	; 0x10e2 <__pop_int+0x126>
    109c:	cd 91       	ld	r28, X+
    109e:	dc 91       	ld	r29, X
    10a0:	11 97       	sbiw	r26, 0x01	; 1
    10a2:	ce 01       	movw	r24, r28
    10a4:	08 96       	adiw	r24, 0x08	; 8
    10a6:	8d 93       	st	X+, r24
    10a8:	9c 93       	st	X, r25
    10aa:	78 81       	ld	r23, Y
    10ac:	69 81       	ldd	r22, Y+1	; 0x01
    10ae:	5a 81       	ldd	r21, Y+2	; 0x02
    10b0:	4b 81       	ldd	r20, Y+3	; 0x03
    10b2:	3c 81       	ldd	r19, Y+4	; 0x04
    10b4:	2d 81       	ldd	r18, Y+5	; 0x05
    10b6:	9e 81       	ldd	r25, Y+6	; 0x06
    10b8:	8f 81       	ldd	r24, Y+7	; 0x07
    10ba:	70 83       	st	Z, r23
    10bc:	61 83       	std	Z+1, r22	; 0x01
    10be:	52 83       	std	Z+2, r21	; 0x02
    10c0:	43 83       	std	Z+3, r20	; 0x03
    10c2:	34 83       	std	Z+4, r19	; 0x04
    10c4:	25 83       	std	Z+5, r18	; 0x05
    10c6:	96 83       	std	Z+6, r25	; 0x06
    10c8:	87 83       	std	Z+7, r24	; 0x07
    10ca:	81 e0       	ldi	r24, 0x01	; 1
    10cc:	90 e0       	ldi	r25, 0x00	; 0
    10ce:	2a c0       	rjmp	.+84     	; 0x1124 <__pop_int+0x168>
    10d0:	cd 91       	ld	r28, X+
    10d2:	dc 91       	ld	r29, X
    10d4:	11 97       	sbiw	r26, 0x01	; 1
    10d6:	ce 01       	movw	r24, r28
    10d8:	02 96       	adiw	r24, 0x02	; 2
    10da:	8d 93       	st	X+, r24
    10dc:	9c 93       	st	X, r25
    10de:	45 2b       	or	r20, r21
    10e0:	a1 f0       	breq	.+40     	; 0x110a <__pop_int+0x14e>
    10e2:	99 81       	ldd	r25, Y+1	; 0x01
    10e4:	28 81       	ld	r18, Y
    10e6:	89 2f       	mov	r24, r25
    10e8:	88 0f       	add	r24, r24
    10ea:	88 0b       	sbc	r24, r24
    10ec:	20 83       	st	Z, r18
    10ee:	91 83       	std	Z+1, r25	; 0x01
    10f0:	82 83       	std	Z+2, r24	; 0x02
    10f2:	83 83       	std	Z+3, r24	; 0x03
    10f4:	84 83       	std	Z+4, r24	; 0x04
    10f6:	85 83       	std	Z+5, r24	; 0x05
    10f8:	86 83       	std	Z+6, r24	; 0x06
    10fa:	e6 cf       	rjmp	.-52     	; 0x10c8 <__pop_int+0x10c>
    10fc:	cd 91       	ld	r28, X+
    10fe:	dc 91       	ld	r29, X
    1100:	11 97       	sbiw	r26, 0x01	; 1
    1102:	ce 01       	movw	r24, r28
    1104:	02 96       	adiw	r24, 0x02	; 2
    1106:	8d 93       	st	X+, r24
    1108:	9c 93       	st	X, r25
    110a:	08 81       	ld	r16, Y
    110c:	19 81       	ldd	r17, Y+1	; 0x01
    110e:	00 83       	st	Z, r16
    1110:	11 83       	std	Z+1, r17	; 0x01
    1112:	12 82       	std	Z+2, r1	; 0x02
    1114:	13 82       	std	Z+3, r1	; 0x03
    1116:	14 82       	std	Z+4, r1	; 0x04
    1118:	15 82       	std	Z+5, r1	; 0x05
    111a:	16 82       	std	Z+6, r1	; 0x06
    111c:	17 82       	std	Z+7, r1	; 0x07
    111e:	d5 cf       	rjmp	.-86     	; 0x10ca <__pop_int+0x10e>
    1120:	80 e0       	ldi	r24, 0x00	; 0
    1122:	90 e0       	ldi	r25, 0x00	; 0
    1124:	df 91       	pop	r29
    1126:	cf 91       	pop	r28
    1128:	1f 91       	pop	r17
    112a:	0f 91       	pop	r16
    112c:	08 95       	ret

Disassembly of section .text.__pop_ptr:

000016a4 <__pop_ptr>:
    16a4:	cf 93       	push	r28
    16a6:	df 93       	push	r29
    16a8:	dc 01       	movw	r26, r24
    16aa:	f9 01       	movw	r30, r18
    16ac:	64 38       	cpi	r22, 0x84	; 132
    16ae:	71 05       	cpc	r23, r1
    16b0:	d9 f1       	breq	.+118    	; 0x1728 <__pop_ptr+0x84>
    16b2:	64 f4       	brge	.+24     	; 0x16cc <__pop_ptr+0x28>
    16b4:	61 38       	cpi	r22, 0x81	; 129
    16b6:	71 05       	cpc	r23, r1
    16b8:	21 f1       	breq	.+72     	; 0x1702 <__pop_ptr+0x5e>
    16ba:	62 38       	cpi	r22, 0x82	; 130
    16bc:	71 05       	cpc	r23, r1
    16be:	09 f4       	brne	.+2      	; 0x16c2 <__pop_ptr+0x1e>
    16c0:	40 c0       	rjmp	.+128    	; 0x1742 <__pop_ptr+0x9e>
    16c2:	60 38       	cpi	r22, 0x80	; 128
    16c4:	71 05       	cpc	r23, r1
    16c6:	09 f0       	breq	.+2      	; 0x16ca <__pop_ptr+0x26>
    16c8:	54 c0       	rjmp	.+168    	; 0x1772 <__pop_ptr+0xce>
    16ca:	2e c0       	rjmp	.+92     	; 0x1728 <__pop_ptr+0x84>
    16cc:	60 39       	cpi	r22, 0x90	; 144
    16ce:	71 05       	cpc	r23, r1
    16d0:	c1 f1       	breq	.+112    	; 0x1742 <__pop_ptr+0x9e>
    16d2:	84 f4       	brge	.+32     	; 0x16f4 <__pop_ptr+0x50>
    16d4:	68 38       	cpi	r22, 0x88	; 136
    16d6:	71 05       	cpc	r23, r1
    16d8:	09 f0       	breq	.+2      	; 0x16dc <__pop_ptr+0x38>
    16da:	4b c0       	rjmp	.+150    	; 0x1772 <__pop_ptr+0xce>
    16dc:	c0 81       	ld	r28, Z
    16de:	d1 81       	ldd	r29, Z+1	; 0x01
    16e0:	ce 01       	movw	r24, r28
    16e2:	02 96       	adiw	r24, 0x02	; 2
    16e4:	91 83       	std	Z+1, r25	; 0x01
    16e6:	80 83       	st	Z, r24
    16e8:	e8 81       	ld	r30, Y
    16ea:	f9 81       	ldd	r31, Y+1	; 0x01
    16ec:	ed 93       	st	X+, r30
    16ee:	fc 93       	st	X, r31
    16f0:	40 83       	st	Z, r20
    16f2:	3c c0       	rjmp	.+120    	; 0x176c <__pop_ptr+0xc8>
    16f4:	60 3a       	cpi	r22, 0xA0	; 160
    16f6:	71 05       	cpc	r23, r1
    16f8:	b9 f0       	breq	.+46     	; 0x1728 <__pop_ptr+0x84>
    16fa:	60 3c       	cpi	r22, 0xC0	; 192
    16fc:	71 05       	cpc	r23, r1
    16fe:	a1 f0       	breq	.+40     	; 0x1728 <__pop_ptr+0x84>
    1700:	38 c0       	rjmp	.+112    	; 0x1772 <__pop_ptr+0xce>
    1702:	c0 81       	ld	r28, Z
    1704:	d1 81       	ldd	r29, Z+1	; 0x01
    1706:	ce 01       	movw	r24, r28
    1708:	02 96       	adiw	r24, 0x02	; 2
    170a:	91 83       	std	Z+1, r25	; 0x01
    170c:	80 83       	st	Z, r24
    170e:	e8 81       	ld	r30, Y
    1710:	f9 81       	ldd	r31, Y+1	; 0x01
    1712:	ed 93       	st	X+, r30
    1714:	fc 93       	st	X, r31
    1716:	05 2e       	mov	r0, r21
    1718:	00 0c       	add	r0, r0
    171a:	66 0b       	sbc	r22, r22
    171c:	77 0b       	sbc	r23, r23
    171e:	40 83       	st	Z, r20
    1720:	51 83       	std	Z+1, r21	; 0x01
    1722:	62 83       	std	Z+2, r22	; 0x02
    1724:	73 83       	std	Z+3, r23	; 0x03
    1726:	22 c0       	rjmp	.+68     	; 0x176c <__pop_ptr+0xc8>
    1728:	c0 81       	ld	r28, Z
    172a:	d1 81       	ldd	r29, Z+1	; 0x01
    172c:	ce 01       	movw	r24, r28
    172e:	02 96       	adiw	r24, 0x02	; 2
    1730:	91 83       	std	Z+1, r25	; 0x01
    1732:	80 83       	st	Z, r24
    1734:	e8 81       	ld	r30, Y
    1736:	f9 81       	ldd	r31, Y+1	; 0x01
    1738:	ed 93       	st	X+, r30
    173a:	fc 93       	st	X, r31
    173c:	51 83       	std	Z+1, r21	; 0x01
    173e:	40 83       	st	Z, r20
    1740:	15 c0       	rjmp	.+42     	; 0x176c <__pop_ptr+0xc8>
    1742:	c0 81       	ld	r28, Z
    1744:	d1 81       	ldd	r29, Z+1	; 0x01
    1746:	ce 01       	movw	r24, r28
    1748:	02 96       	adiw	r24, 0x02	; 2
    174a:	91 83       	std	Z+1, r25	; 0x01
    174c:	80 83       	st	Z, r24
    174e:	e8 81       	ld	r30, Y
    1750:	f9 81       	ldd	r31, Y+1	; 0x01
    1752:	ed 93       	st	X+, r30
    1754:	fc 93       	st	X, r31
    1756:	51 83       	std	Z+1, r21	; 0x01
    1758:	40 83       	st	Z, r20
    175a:	85 2f       	mov	r24, r21
    175c:	88 0f       	add	r24, r24
    175e:	88 0b       	sbc	r24, r24
    1760:	82 83       	std	Z+2, r24	; 0x02
    1762:	83 83       	std	Z+3, r24	; 0x03
    1764:	84 83       	std	Z+4, r24	; 0x04
    1766:	85 83       	std	Z+5, r24	; 0x05
    1768:	86 83       	std	Z+6, r24	; 0x06
    176a:	87 83       	std	Z+7, r24	; 0x07
    176c:	81 e0       	ldi	r24, 0x01	; 1
    176e:	90 e0       	ldi	r25, 0x00	; 0
    1770:	02 c0       	rjmp	.+4      	; 0x1776 <__pop_ptr+0xd2>
    1772:	80 e0       	ldi	r24, 0x00	; 0
    1774:	90 e0       	ldi	r25, 0x00	; 0
    1776:	df 91       	pop	r29
    1778:	cf 91       	pop	r28
    177a:	08 95       	ret

Disassembly of section .text.atoi:

00001af2 <atoi>:
    1af2:	cf 93       	push	r28
    1af4:	9b 01       	movw	r18, r22
    1af6:	48 2f       	mov	r20, r24
    1af8:	f9 01       	movw	r30, r18
    1afa:	84 91       	lpm	r24, Z
    1afc:	47 fd       	sbrc	r20, 7
    1afe:	80 81       	ld	r24, Z
    1b00:	80 32       	cpi	r24, 0x20	; 32
    1b02:	c9 f1       	breq	.+114    	; 0x1b76 <atoi+0x84>
    1b04:	68 2f       	mov	r22, r24
    1b06:	08 2e       	mov	r0, r24
    1b08:	00 0c       	add	r0, r0
    1b0a:	77 0b       	sbc	r23, r23
    1b0c:	69 50       	subi	r22, 0x09	; 9
    1b0e:	71 09       	sbc	r23, r1
    1b10:	65 30       	cpi	r22, 0x05	; 5
    1b12:	71 05       	cpc	r23, r1
    1b14:	80 f1       	brcs	.+96     	; 0x1b76 <atoi+0x84>
    1b16:	8b 32       	cpi	r24, 0x2B	; 43
    1b18:	49 f5       	brne	.+82     	; 0x1b6c <atoi+0x7a>
    1b1a:	a0 e0       	ldi	r26, 0x00	; 0
    1b1c:	b0 e0       	ldi	r27, 0x00	; 0
    1b1e:	2f 5f       	subi	r18, 0xFF	; 255
    1b20:	3f 4f       	sbci	r19, 0xFF	; 255
    1b22:	4f 4f       	sbci	r20, 0xFF	; 255
    1b24:	02 c0       	rjmp	.+4      	; 0x1b2a <atoi+0x38>
    1b26:	a0 e0       	ldi	r26, 0x00	; 0
    1b28:	b0 e0       	ldi	r27, 0x00	; 0
    1b2a:	80 e0       	ldi	r24, 0x00	; 0
    1b2c:	90 e0       	ldi	r25, 0x00	; 0
    1b2e:	ca e0       	ldi	r28, 0x0A	; 10
    1b30:	f9 01       	movw	r30, r18
    1b32:	64 91       	lpm	r22, Z
    1b34:	47 fd       	sbrc	r20, 7
    1b36:	60 81       	ld	r22, Z
    1b38:	06 2e       	mov	r0, r22
    1b3a:	00 0c       	add	r0, r0
    1b3c:	77 0b       	sbc	r23, r23
    1b3e:	60 53       	subi	r22, 0x30	; 48
    1b40:	71 09       	sbc	r23, r1
    1b42:	6a 30       	cpi	r22, 0x0A	; 10
    1b44:	71 05       	cpc	r23, r1
    1b46:	60 f4       	brcc	.+24     	; 0x1b60 <atoi+0x6e>
    1b48:	c8 9f       	mul	r28, r24
    1b4a:	f0 01       	movw	r30, r0
    1b4c:	c9 9f       	mul	r28, r25
    1b4e:	f0 0d       	add	r31, r0
    1b50:	11 24       	eor	r1, r1
    1b52:	2f 5f       	subi	r18, 0xFF	; 255
    1b54:	3f 4f       	sbci	r19, 0xFF	; 255
    1b56:	4f 4f       	sbci	r20, 0xFF	; 255
    1b58:	cf 01       	movw	r24, r30
    1b5a:	86 1b       	sub	r24, r22
    1b5c:	97 0b       	sbc	r25, r23
    1b5e:	e8 cf       	rjmp	.-48     	; 0x1b30 <atoi+0x3e>
    1b60:	ab 2b       	or	r26, r27
    1b62:	69 f4       	brne	.+26     	; 0x1b7e <atoi+0x8c>
    1b64:	91 95       	neg	r25
    1b66:	81 95       	neg	r24
    1b68:	91 09       	sbc	r25, r1
    1b6a:	09 c0       	rjmp	.+18     	; 0x1b7e <atoi+0x8c>
    1b6c:	8d 32       	cpi	r24, 0x2D	; 45
    1b6e:	d9 f6       	brne	.-74     	; 0x1b26 <atoi+0x34>
    1b70:	a1 e0       	ldi	r26, 0x01	; 1
    1b72:	b0 e0       	ldi	r27, 0x00	; 0
    1b74:	d4 cf       	rjmp	.-88     	; 0x1b1e <atoi+0x2c>
    1b76:	2f 5f       	subi	r18, 0xFF	; 255
    1b78:	3f 4f       	sbci	r19, 0xFF	; 255
    1b7a:	4f 4f       	sbci	r20, 0xFF	; 255
    1b7c:	bd cf       	rjmp	.-134    	; 0x1af8 <atoi+0x6>
    1b7e:	cf 91       	pop	r28
    1b80:	08 95       	ret

Disassembly of section .text.memset:

000021a0 <memset>:
    21a0:	fc 01       	movw	r30, r24
    21a2:	48 0f       	add	r20, r24
    21a4:	59 1f       	adc	r21, r25
    21a6:	e4 17       	cp	r30, r20
    21a8:	f5 07       	cpc	r31, r21
    21aa:	11 f0       	breq	.+4      	; 0x21b0 <memset+0x10>
    21ac:	61 93       	st	Z+, r22
    21ae:	fb cf       	rjmp	.-10     	; 0x21a6 <memset+0x6>
    21b0:	08 95       	ret

Disassembly of section .text.strcpy:

000020e6 <strcpy>:
    20e6:	9a 01       	movw	r18, r20
    20e8:	46 2f       	mov	r20, r22
    20ea:	dc 01       	movw	r26, r24
    20ec:	f9 01       	movw	r30, r18
    20ee:	54 91       	lpm	r21, Z
    20f0:	47 fd       	sbrc	r20, 7
    20f2:	50 81       	ld	r21, Z
    20f4:	5d 93       	st	X+, r21
    20f6:	2f 5f       	subi	r18, 0xFF	; 255
    20f8:	3f 4f       	sbci	r19, 0xFF	; 255
    20fa:	4f 4f       	sbci	r20, 0xFF	; 255
    20fc:	51 11       	cpse	r21, r1
    20fe:	f6 cf       	rjmp	.-20     	; 0x20ec <strcpy+0x6>
    2100:	08 95       	ret

Disassembly of section .text.strlen:

00001f9e <strlen>:
    1f9e:	cf 92       	push	r12
    1fa0:	df 92       	push	r13
    1fa2:	ef 92       	push	r14
    1fa4:	6b 01       	movw	r12, r22
    1fa6:	e8 2e       	mov	r14, r24
    1fa8:	a8 2f       	mov	r26, r24
    1faa:	cb 01       	movw	r24, r22
    1fac:	fc 01       	movw	r30, r24
    1fae:	24 91       	lpm	r18, Z
    1fb0:	a7 fd       	sbrc	r26, 7
    1fb2:	20 81       	ld	r18, Z
    1fb4:	22 23       	and	r18, r18
    1fb6:	19 f0       	breq	.+6      	; 0x1fbe <strlen+0x20>
    1fb8:	01 96       	adiw	r24, 0x01	; 1
    1fba:	a1 1d       	adc	r26, r1
    1fbc:	f7 cf       	rjmp	.-18     	; 0x1fac <strlen+0xe>
    1fbe:	8c 19       	sub	r24, r12
    1fc0:	9d 09       	sbc	r25, r13
    1fc2:	ef 90       	pop	r14
    1fc4:	df 90       	pop	r13
    1fc6:	cf 90       	pop	r12
    1fc8:	08 95       	ret

Disassembly of section .text.tolower:

000021b2 <tolower>:
    21b2:	9c 01       	movw	r18, r24
    21b4:	21 54       	subi	r18, 0x41	; 65
    21b6:	31 09       	sbc	r19, r1
    21b8:	2a 31       	cpi	r18, 0x1A	; 26
    21ba:	31 05       	cpc	r19, r1
    21bc:	08 f4       	brcc	.+2      	; 0x21c0 <tolower+0xe>
    21be:	80 62       	ori	r24, 0x20	; 32
    21c0:	08 95       	ret

Disassembly of section .text._Exit:

0000227e <_Exit>:
    227e:	0e 94 55 00 	call	0xaa	; 0xaa <_exit>

Disassembly of section .text.__vsprintf:

0000211c <__vsprintf>:
    211c:	0f 93       	push	r16
    211e:	1f 93       	push	r17
    2120:	89 01       	movw	r16, r18
    2122:	9a 01       	movw	r18, r20
    2124:	46 2f       	mov	r20, r22
    2126:	6f ef       	ldi	r22, 0xFF	; 255
    2128:	7f e7       	ldi	r23, 0x7F	; 127
    212a:	0e 94 8f 0c 	call	0x191e	; 0x191e <__vsnprintf>
    212e:	1f 91       	pop	r17
    2130:	0f 91       	pop	r16
    2132:	08 95       	ret

Disassembly of section .text.__vsnprintf:

0000191e <__vsnprintf>:
    191e:	6f 92       	push	r6
    1920:	7f 92       	push	r7
    1922:	8f 92       	push	r8
    1924:	ef 92       	push	r14
    1926:	ff 92       	push	r15
    1928:	0f 93       	push	r16
    192a:	1f 93       	push	r17
    192c:	cf 93       	push	r28
    192e:	df 93       	push	r29
    1930:	cd b7       	in	r28, 0x3d	; 61
    1932:	de b7       	in	r29, 0x3e	; 62
    1934:	61 97       	sbiw	r28, 0x11	; 17
    1936:	0f b6       	in	r0, 0x3f	; 63
    1938:	f8 94       	cli
    193a:	de bf       	out	0x3e, r29	; 62
    193c:	0f be       	out	0x3f, r0	; 63
    193e:	cd bf       	out	0x3d, r28	; 61
    1940:	fe 01       	movw	r30, r28
    1942:	31 96       	adiw	r30, 0x01	; 1
    1944:	51 e1       	ldi	r21, 0x11	; 17
    1946:	df 01       	movw	r26, r30
    1948:	1d 92       	st	X+, r1
    194a:	5a 95       	dec	r21
    194c:	e9 f7       	brne	.-6      	; 0x1948 <__vsnprintf+0x2a>
    194e:	a2 e0       	ldi	r26, 0x02	; 2
    1950:	b1 e0       	ldi	r27, 0x01	; 1
    1952:	ba 83       	std	Y+2, r27	; 0x02
    1954:	a9 83       	std	Y+1, r26	; 0x01
    1956:	9c 83       	std	Y+4, r25	; 0x04
    1958:	8b 83       	std	Y+3, r24	; 0x03
    195a:	77 ff       	sbrs	r23, 7
    195c:	09 c0       	rjmp	.+18     	; 0x1970 <__vsnprintf+0x52>
    195e:	8f e4       	ldi	r24, 0x4F	; 79
    1960:	90 e0       	ldi	r25, 0x00	; 0
    1962:	90 93 61 00 	sts	0x0061, r25	; 0x800061 <_edata+0x1>
    1966:	80 93 60 00 	sts	0x0060, r24	; 0x800060 <_edata>
    196a:	8f ef       	ldi	r24, 0xFF	; 255
    196c:	9f ef       	ldi	r25, 0xFF	; 255
    196e:	19 c0       	rjmp	.+50     	; 0x19a2 <__vsnprintf+0x84>
    1970:	39 01       	movw	r6, r18
    1972:	84 2e       	mov	r8, r20
    1974:	7c 01       	movw	r14, r24
    1976:	61 50       	subi	r22, 0x01	; 1
    1978:	71 09       	sbc	r23, r1
    197a:	7f 83       	std	Y+7, r23	; 0x07
    197c:	6e 83       	std	Y+6, r22	; 0x06
    197e:	98 01       	movw	r18, r16
    1980:	68 2d       	mov	r22, r8
    1982:	a3 01       	movw	r20, r6
    1984:	cf 01       	movw	r24, r30
    1986:	0e 94 b7 0f 	call	0x1f6e	; 0x1f6e <__vfprintf>
    198a:	48 85       	ldd	r20, Y+8	; 0x08
    198c:	59 85       	ldd	r21, Y+9	; 0x09
    198e:	2e 81       	ldd	r18, Y+6	; 0x06
    1990:	3f 81       	ldd	r19, Y+7	; 0x07
    1992:	42 17       	cp	r20, r18
    1994:	53 07       	cpc	r21, r19
    1996:	08 f4       	brcc	.+2      	; 0x199a <__vsnprintf+0x7c>
    1998:	9a 01       	movw	r18, r20
    199a:	f7 01       	movw	r30, r14
    199c:	e2 0f       	add	r30, r18
    199e:	f3 1f       	adc	r31, r19
    19a0:	10 82       	st	Z, r1
    19a2:	61 96       	adiw	r28, 0x11	; 17
    19a4:	0f b6       	in	r0, 0x3f	; 63
    19a6:	f8 94       	cli
    19a8:	de bf       	out	0x3e, r29	; 62
    19aa:	0f be       	out	0x3f, r0	; 63
    19ac:	cd bf       	out	0x3d, r28	; 61
    19ae:	df 91       	pop	r29
    19b0:	cf 91       	pop	r28
    19b2:	1f 91       	pop	r17
    19b4:	0f 91       	pop	r16
    19b6:	ff 90       	pop	r15
    19b8:	ef 90       	pop	r14
    19ba:	8f 90       	pop	r8
    19bc:	7f 90       	pop	r7
    19be:	6f 90       	pop	r6
    19c0:	08 95       	ret

Disassembly of section .text.__vfprintf:

00001f6e <__vfprintf>:
    1f6e:	a2 e0       	ldi	r26, 0x02	; 2
    1f70:	b0 e0       	ldi	r27, 0x00	; 0
    1f72:	ed eb       	ldi	r30, 0xBD	; 189
    1f74:	ff e0       	ldi	r31, 0x0F	; 15
    1f76:	0c 94 73 0f 	jmp	0x1ee6	; 0x1ee6 <__prologue_saves__+0x1c>
    1f7a:	8c 01       	movw	r16, r24
    1f7c:	3a 83       	std	Y+2, r19	; 0x02
    1f7e:	29 83       	std	Y+1, r18	; 0x01
    1f80:	9e 01       	movw	r18, r28
    1f82:	2f 5f       	subi	r18, 0xFF	; 255
    1f84:	3f 4f       	sbci	r19, 0xFF	; 255
    1f86:	0e 94 70 00 	call	0xe0	; 0xe0 <__printf_core>
    1f8a:	f8 01       	movw	r30, r16
    1f8c:	20 81       	ld	r18, Z
    1f8e:	24 ff       	sbrs	r18, 4
    1f90:	02 c0       	rjmp	.+4      	; 0x1f96 <__vfprintf+0x28>
    1f92:	8f ef       	ldi	r24, 0xFF	; 255
    1f94:	9f ef       	ldi	r25, 0xFF	; 255
    1f96:	22 96       	adiw	r28, 0x02	; 2
    1f98:	e4 e0       	ldi	r30, 0x04	; 4
    1f9a:	0c 94 aa 0f 	jmp	0x1f54	; 0x1f54 <__epilogue_restores__+0x1c>

Disassembly of section .text.libgcc.div:

00001ff2 <__divmodhi4>:
    1ff2:	97 fb       	bst	r25, 7
    1ff4:	07 2e       	mov	r0, r23
    1ff6:	16 f4       	brtc	.+4      	; 0x1ffc <__divmodhi4+0xa>
    1ff8:	00 94       	com	r0
    1ffa:	07 d0       	rcall	.+14     	; 0x200a <__divmodhi4_neg1>
    1ffc:	77 fd       	sbrc	r23, 7
    1ffe:	09 d0       	rcall	.+18     	; 0x2012 <__divmodhi4_neg2>
    2000:	0e 94 0d 10 	call	0x201a	; 0x201a <__udivmodhi4>
    2004:	07 fc       	sbrc	r0, 7
    2006:	05 d0       	rcall	.+10     	; 0x2012 <__divmodhi4_neg2>
    2008:	3e f4       	brtc	.+14     	; 0x2018 <__divmodhi4_exit>

0000200a <__divmodhi4_neg1>:
    200a:	90 95       	com	r25
    200c:	81 95       	neg	r24
    200e:	9f 4f       	sbci	r25, 0xFF	; 255
    2010:	08 95       	ret

00002012 <__divmodhi4_neg2>:
    2012:	70 95       	com	r23
    2014:	61 95       	neg	r22
    2016:	7f 4f       	sbci	r23, 0xFF	; 255

00002018 <__divmodhi4_exit>:
    2018:	08 95       	ret

Disassembly of section .text.libgcc.prologue:

00001eca <__prologue_saves__>:
    1eca:	2f 92       	push	r2
    1ecc:	3f 92       	push	r3
    1ece:	4f 92       	push	r4
    1ed0:	5f 92       	push	r5
    1ed2:	6f 92       	push	r6
    1ed4:	7f 92       	push	r7
    1ed6:	8f 92       	push	r8
    1ed8:	9f 92       	push	r9
    1eda:	af 92       	push	r10
    1edc:	bf 92       	push	r11
    1ede:	cf 92       	push	r12
    1ee0:	df 92       	push	r13
    1ee2:	ef 92       	push	r14
    1ee4:	ff 92       	push	r15
    1ee6:	0f 93       	push	r16
    1ee8:	1f 93       	push	r17
    1eea:	cf 93       	push	r28
    1eec:	df 93       	push	r29
    1eee:	cd b7       	in	r28, 0x3d	; 61
    1ef0:	de b7       	in	r29, 0x3e	; 62
    1ef2:	ca 1b       	sub	r28, r26
    1ef4:	db 0b       	sbc	r29, r27
    1ef6:	0f b6       	in	r0, 0x3f	; 63
    1ef8:	f8 94       	cli
    1efa:	de bf       	out	0x3e, r29	; 62
    1efc:	0f be       	out	0x3f, r0	; 63
    1efe:	cd bf       	out	0x3d, r28	; 61
    1f00:	09 94       	ijmp

Disassembly of section .text.libgcc.prologue:

00001f38 <__epilogue_restores__>:
    1f38:	2a 88       	ldd	r2, Y+18	; 0x12
    1f3a:	39 88       	ldd	r3, Y+17	; 0x11
    1f3c:	48 88       	ldd	r4, Y+16	; 0x10
    1f3e:	5f 84       	ldd	r5, Y+15	; 0x0f
    1f40:	6e 84       	ldd	r6, Y+14	; 0x0e
    1f42:	7d 84       	ldd	r7, Y+13	; 0x0d
    1f44:	8c 84       	ldd	r8, Y+12	; 0x0c
    1f46:	9b 84       	ldd	r9, Y+11	; 0x0b
    1f48:	aa 84       	ldd	r10, Y+10	; 0x0a
    1f4a:	b9 84       	ldd	r11, Y+9	; 0x09
    1f4c:	c8 84       	ldd	r12, Y+8	; 0x08
    1f4e:	df 80       	ldd	r13, Y+7	; 0x07
    1f50:	ee 80       	ldd	r14, Y+6	; 0x06
    1f52:	fd 80       	ldd	r15, Y+5	; 0x05
    1f54:	0c 81       	ldd	r16, Y+4	; 0x04
    1f56:	1b 81       	ldd	r17, Y+3	; 0x03
    1f58:	aa 81       	ldd	r26, Y+2	; 0x02
    1f5a:	b9 81       	ldd	r27, Y+1	; 0x01
    1f5c:	ce 0f       	add	r28, r30
    1f5e:	d1 1d       	adc	r29, r1
    1f60:	0f b6       	in	r0, 0x3f	; 63
    1f62:	f8 94       	cli
    1f64:	de bf       	out	0x3e, r29	; 62
    1f66:	0f be       	out	0x3f, r0	; 63
    1f68:	cd bf       	out	0x3d, r28	; 61
    1f6a:	ed 01       	movw	r28, r26
    1f6c:	08 95       	ret

Disassembly of section .text.libgcc:

00002102 <__movmemx_qi>:
    2102:	99 27       	eor	r25, r25

00002104 <__movmemx_hi>:
    2104:	77 fd       	sbrc	r23, 7
    2106:	05 c0       	rjmp	.+10     	; 0x2112 <__movmemx_hi+0xe>
    2108:	05 90       	lpm	r0, Z+
    210a:	0d 92       	st	X+, r0
    210c:	01 97       	sbiw	r24, 0x01	; 1
    210e:	e1 f7       	brne	.-8      	; 0x2108 <__movmemx_hi+0x4>
    2110:	08 95       	ret
    2112:	01 90       	ld	r0, Z+
    2114:	0d 92       	st	X+, r0
    2116:	01 97       	sbiw	r24, 0x01	; 1
    2118:	e1 f7       	brne	.-8      	; 0x2112 <__movmemx_hi+0xe>
    211a:	08 95       	ret

Disassembly of section .text.libgcc:

00002134 <__cmpdi2_s8>:
    2134:	00 24       	eor	r0, r0
    2136:	a7 fd       	sbrc	r26, 7
    2138:	00 94       	com	r0
    213a:	2a 17       	cp	r18, r26
    213c:	30 05       	cpc	r19, r0
    213e:	40 05       	cpc	r20, r0
    2140:	50 05       	cpc	r21, r0
    2142:	60 05       	cpc	r22, r0
    2144:	70 05       	cpc	r23, r0
    2146:	80 05       	cpc	r24, r0
    2148:	90 05       	cpc	r25, r0
    214a:	08 95       	ret

Disassembly of section .text.libgcc.div:

0000201a <__udivmodhi4>:
    201a:	aa 1b       	sub	r26, r26
    201c:	bb 1b       	sub	r27, r27
    201e:	51 e1       	ldi	r21, 0x11	; 17
    2020:	07 c0       	rjmp	.+14     	; 0x2030 <__udivmodhi4_ep>

00002022 <__udivmodhi4_loop>:
    2022:	aa 1f       	adc	r26, r26
    2024:	bb 1f       	adc	r27, r27
    2026:	a6 17       	cp	r26, r22
    2028:	b7 07       	cpc	r27, r23
    202a:	10 f0       	brcs	.+4      	; 0x2030 <__udivmodhi4_ep>
    202c:	a6 1b       	sub	r26, r22
    202e:	b7 0b       	sbc	r27, r23

00002030 <__udivmodhi4_ep>:
    2030:	88 1f       	adc	r24, r24
    2032:	99 1f       	adc	r25, r25
    2034:	5a 95       	dec	r21
    2036:	a9 f7       	brne	.-22     	; 0x2022 <__udivmodhi4_loop>
    2038:	80 95       	com	r24
    203a:	90 95       	com	r25
    203c:	bc 01       	movw	r22, r24
    203e:	cd 01       	movw	r24, r26
    2040:	08 95       	ret

Disassembly of section .text:

000021de <__subsf3>:
    21de:	50 58       	subi	r21, 0x80	; 128

000021e0 <__addsf3>:
    21e0:	bb 27       	eor	r27, r27
    21e2:	aa 27       	eor	r26, r26
    21e4:	0e 94 28 0c 	call	0x1850	; 0x1850 <__addsf3x>
    21e8:	0c 94 45 10 	jmp	0x208a	; 0x208a <__fp_round>

Disassembly of section .text:

00001850 <__addsf3x>:
    1850:	11 c0       	rjmp	.+34     	; 0x1874 <__addsf3x+0x24>
    1852:	0e 94 fd 10 	call	0x21fa	; 0x21fa <__fp_pscA>
    1856:	38 f0       	brcs	.+14     	; 0x1866 <__addsf3x+0x16>
    1858:	0e 94 04 11 	call	0x2208	; 0x2208 <__fp_pscB>
    185c:	20 f0       	brcs	.+8      	; 0x1866 <__addsf3x+0x16>
    185e:	39 f4       	brne	.+14     	; 0x186e <__addsf3x+0x1e>
    1860:	9f 3f       	cpi	r25, 0xFF	; 255
    1862:	19 f4       	brne	.+6      	; 0x186a <__addsf3x+0x1a>
    1864:	26 f4       	brtc	.+8      	; 0x186e <__addsf3x+0x1e>
    1866:	0c 94 3a 11 	jmp	0x2274	; 0x2274 <__fp_nan>
    186a:	0e f4       	brtc	.+2      	; 0x186e <__addsf3x+0x1e>
    186c:	e0 95       	com	r30
    186e:	e7 fb       	bst	r30, 7
    1870:	0c 94 12 11 	jmp	0x2224	; 0x2224 <__fp_inf>
    1874:	e9 2f       	mov	r30, r25
    1876:	0e 94 a8 0e 	call	0x1d50	; 0x1d50 <__fp_split3>
    187a:	58 f3       	brcs	.-42     	; 0x1852 <__addsf3x+0x2>
    187c:	ba 17       	cp	r27, r26
    187e:	62 07       	cpc	r22, r18
    1880:	73 07       	cpc	r23, r19
    1882:	84 07       	cpc	r24, r20
    1884:	95 07       	cpc	r25, r21
    1886:	20 f0       	brcs	.+8      	; 0x1890 <__addsf3x+0x40>
    1888:	79 f4       	brne	.+30     	; 0x18a8 <__addsf3x+0x58>
    188a:	a6 f5       	brtc	.+104    	; 0x18f4 <__addsf3x+0xa4>
    188c:	0c 94 0b 11 	jmp	0x2216	; 0x2216 <__fp_zero>
    1890:	0e f4       	brtc	.+2      	; 0x1894 <__addsf3x+0x44>
    1892:	e0 95       	com	r30
    1894:	0b 2e       	mov	r0, r27
    1896:	ba 2f       	mov	r27, r26
    1898:	a0 2d       	mov	r26, r0
    189a:	0b 01       	movw	r0, r22
    189c:	b9 01       	movw	r22, r18
    189e:	90 01       	movw	r18, r0
    18a0:	0c 01       	movw	r0, r24
    18a2:	ca 01       	movw	r24, r20
    18a4:	a0 01       	movw	r20, r0
    18a6:	11 24       	eor	r1, r1
    18a8:	ff 27       	eor	r31, r31
    18aa:	59 1b       	sub	r21, r25
    18ac:	99 f0       	breq	.+38     	; 0x18d4 <__addsf3x+0x84>
    18ae:	59 3f       	cpi	r21, 0xF9	; 249
    18b0:	50 f4       	brcc	.+20     	; 0x18c6 <__addsf3x+0x76>
    18b2:	50 3e       	cpi	r21, 0xE0	; 224
    18b4:	68 f1       	brcs	.+90     	; 0x1910 <__addsf3x+0xc0>
    18b6:	1a 16       	cp	r1, r26
    18b8:	f0 40       	sbci	r31, 0x00	; 0
    18ba:	a2 2f       	mov	r26, r18
    18bc:	23 2f       	mov	r18, r19
    18be:	34 2f       	mov	r19, r20
    18c0:	44 27       	eor	r20, r20
    18c2:	58 5f       	subi	r21, 0xF8	; 248
    18c4:	f3 cf       	rjmp	.-26     	; 0x18ac <__addsf3x+0x5c>
    18c6:	46 95       	lsr	r20
    18c8:	37 95       	ror	r19
    18ca:	27 95       	ror	r18
    18cc:	a7 95       	ror	r26
    18ce:	f0 40       	sbci	r31, 0x00	; 0
    18d0:	53 95       	inc	r21
    18d2:	c9 f7       	brne	.-14     	; 0x18c6 <__addsf3x+0x76>
    18d4:	7e f4       	brtc	.+30     	; 0x18f4 <__addsf3x+0xa4>
    18d6:	1f 16       	cp	r1, r31
    18d8:	ba 0b       	sbc	r27, r26
    18da:	62 0b       	sbc	r22, r18
    18dc:	73 0b       	sbc	r23, r19
    18de:	84 0b       	sbc	r24, r20
    18e0:	ba f0       	brmi	.+46     	; 0x1910 <__addsf3x+0xc0>
    18e2:	91 50       	subi	r25, 0x01	; 1
    18e4:	a1 f0       	breq	.+40     	; 0x190e <__addsf3x+0xbe>
    18e6:	ff 0f       	add	r31, r31
    18e8:	bb 1f       	adc	r27, r27
    18ea:	66 1f       	adc	r22, r22
    18ec:	77 1f       	adc	r23, r23
    18ee:	88 1f       	adc	r24, r24
    18f0:	c2 f7       	brpl	.-16     	; 0x18e2 <__addsf3x+0x92>
    18f2:	0e c0       	rjmp	.+28     	; 0x1910 <__addsf3x+0xc0>
    18f4:	ba 0f       	add	r27, r26
    18f6:	62 1f       	adc	r22, r18
    18f8:	73 1f       	adc	r23, r19
    18fa:	84 1f       	adc	r24, r20
    18fc:	48 f4       	brcc	.+18     	; 0x1910 <__addsf3x+0xc0>
    18fe:	87 95       	ror	r24
    1900:	77 95       	ror	r23
    1902:	67 95       	ror	r22
    1904:	b7 95       	ror	r27
    1906:	f7 95       	ror	r31
    1908:	9e 3f       	cpi	r25, 0xFE	; 254
    190a:	08 f0       	brcs	.+2      	; 0x190e <__addsf3x+0xbe>
    190c:	b0 cf       	rjmp	.-160    	; 0x186e <__addsf3x+0x1e>
    190e:	93 95       	inc	r25
    1910:	88 0f       	add	r24, r24
    1912:	08 f0       	brcs	.+2      	; 0x1916 <__addsf3x+0xc6>
    1914:	99 27       	eor	r25, r25
    1916:	ee 0f       	add	r30, r30
    1918:	97 95       	ror	r25
    191a:	87 95       	ror	r24
    191c:	08 95       	ret

Disassembly of section .text:

00002230 <__cmpsf2>:
    2230:	0e 94 84 0e 	call	0x1d08	; 0x1d08 <__fp_cmp>
    2234:	08 f4       	brcc	.+2      	; 0x2238 <__cmpsf2+0x8>
    2236:	81 e0       	ldi	r24, 0x01	; 1
    2238:	08 95       	ret

Disassembly of section .text:

0000224c <__divsf3>:
    224c:	0e 94 e3 0a 	call	0x15c6	; 0x15c6 <__divsf3x>
    2250:	0c 94 45 10 	jmp	0x208a	; 0x208a <__fp_round>

Disassembly of section .text:

000015c6 <__divsf3x>:
    15c6:	10 c0       	rjmp	.+32     	; 0x15e8 <__divsf3x+0x22>
    15c8:	0e 94 04 11 	call	0x2208	; 0x2208 <__fp_pscB>
    15cc:	58 f0       	brcs	.+22     	; 0x15e4 <__divsf3x+0x1e>
    15ce:	0e 94 fd 10 	call	0x21fa	; 0x21fa <__fp_pscA>
    15d2:	40 f0       	brcs	.+16     	; 0x15e4 <__divsf3x+0x1e>
    15d4:	29 f4       	brne	.+10     	; 0x15e0 <__divsf3x+0x1a>
    15d6:	5f 3f       	cpi	r21, 0xFF	; 255
    15d8:	29 f0       	breq	.+10     	; 0x15e4 <__divsf3x+0x1e>
    15da:	0c 94 12 11 	jmp	0x2224	; 0x2224 <__fp_inf>
    15de:	51 11       	cpse	r21, r1
    15e0:	0c 94 0c 11 	jmp	0x2218	; 0x2218 <__fp_szero>
    15e4:	0c 94 3a 11 	jmp	0x2274	; 0x2274 <__fp_nan>
    15e8:	0e 94 a8 0e 	call	0x1d50	; 0x1d50 <__fp_split3>
    15ec:	68 f3       	brcs	.-38     	; 0x15c8 <__divsf3x+0x2>

000015ee <__divsf3_pse>:
    15ee:	99 23       	and	r25, r25
    15f0:	b1 f3       	breq	.-20     	; 0x15de <__divsf3x+0x18>
    15f2:	55 23       	and	r21, r21
    15f4:	91 f3       	breq	.-28     	; 0x15da <__divsf3x+0x14>
    15f6:	95 1b       	sub	r25, r21
    15f8:	55 0b       	sbc	r21, r21
    15fa:	bb 27       	eor	r27, r27
    15fc:	aa 27       	eor	r26, r26
    15fe:	62 17       	cp	r22, r18
    1600:	73 07       	cpc	r23, r19
    1602:	84 07       	cpc	r24, r20
    1604:	38 f0       	brcs	.+14     	; 0x1614 <__divsf3_pse+0x26>
    1606:	9f 5f       	subi	r25, 0xFF	; 255
    1608:	5f 4f       	sbci	r21, 0xFF	; 255
    160a:	22 0f       	add	r18, r18
    160c:	33 1f       	adc	r19, r19
    160e:	44 1f       	adc	r20, r20
    1610:	aa 1f       	adc	r26, r26
    1612:	a9 f3       	breq	.-22     	; 0x15fe <__divsf3_pse+0x10>
    1614:	35 d0       	rcall	.+106    	; 0x1680 <__divsf3_pse+0x92>
    1616:	0e 2e       	mov	r0, r30
    1618:	3a f0       	brmi	.+14     	; 0x1628 <__divsf3_pse+0x3a>
    161a:	e0 e8       	ldi	r30, 0x80	; 128
    161c:	32 d0       	rcall	.+100    	; 0x1682 <__divsf3_pse+0x94>
    161e:	91 50       	subi	r25, 0x01	; 1
    1620:	50 40       	sbci	r21, 0x00	; 0
    1622:	e6 95       	lsr	r30
    1624:	00 1c       	adc	r0, r0
    1626:	ca f7       	brpl	.-14     	; 0x161a <__divsf3_pse+0x2c>
    1628:	2b d0       	rcall	.+86     	; 0x1680 <__divsf3_pse+0x92>
    162a:	fe 2f       	mov	r31, r30
    162c:	29 d0       	rcall	.+82     	; 0x1680 <__divsf3_pse+0x92>
    162e:	66 0f       	add	r22, r22
    1630:	77 1f       	adc	r23, r23
    1632:	88 1f       	adc	r24, r24
    1634:	bb 1f       	adc	r27, r27
    1636:	26 17       	cp	r18, r22
    1638:	37 07       	cpc	r19, r23
    163a:	48 07       	cpc	r20, r24
    163c:	ab 07       	cpc	r26, r27
    163e:	b0 e8       	ldi	r27, 0x80	; 128
    1640:	09 f0       	breq	.+2      	; 0x1644 <__divsf3_pse+0x56>
    1642:	bb 0b       	sbc	r27, r27
    1644:	80 2d       	mov	r24, r0
    1646:	bf 01       	movw	r22, r30
    1648:	ff 27       	eor	r31, r31
    164a:	93 58       	subi	r25, 0x83	; 131
    164c:	5f 4f       	sbci	r21, 0xFF	; 255
    164e:	3a f0       	brmi	.+14     	; 0x165e <__divsf3_pse+0x70>
    1650:	9e 3f       	cpi	r25, 0xFE	; 254
    1652:	51 05       	cpc	r21, r1
    1654:	78 f0       	brcs	.+30     	; 0x1674 <__divsf3_pse+0x86>
    1656:	0c 94 12 11 	jmp	0x2224	; 0x2224 <__fp_inf>
    165a:	0c 94 0c 11 	jmp	0x2218	; 0x2218 <__fp_szero>
    165e:	5f 3f       	cpi	r21, 0xFF	; 255
    1660:	e4 f3       	brlt	.-8      	; 0x165a <__divsf3_pse+0x6c>
    1662:	98 3e       	cpi	r25, 0xE8	; 232
    1664:	d4 f3       	brlt	.-12     	; 0x165a <__divsf3_pse+0x6c>
    1666:	86 95       	lsr	r24
    1668:	77 95       	ror	r23
    166a:	67 95       	ror	r22
    166c:	b7 95       	ror	r27
    166e:	f7 95       	ror	r31
    1670:	9f 5f       	subi	r25, 0xFF	; 255
    1672:	c9 f7       	brne	.-14     	; 0x1666 <__divsf3_pse+0x78>
    1674:	88 0f       	add	r24, r24
    1676:	91 1d       	adc	r25, r1
    1678:	96 95       	lsr	r25
    167a:	87 95       	ror	r24
    167c:	97 f9       	bld	r25, 7
    167e:	08 95       	ret
    1680:	e1 e0       	ldi	r30, 0x01	; 1
    1682:	66 0f       	add	r22, r22
    1684:	77 1f       	adc	r23, r23
    1686:	88 1f       	adc	r24, r24
    1688:	bb 1f       	adc	r27, r27
    168a:	62 17       	cp	r22, r18
    168c:	73 07       	cpc	r23, r19
    168e:	84 07       	cpc	r24, r20
    1690:	ba 07       	cpc	r27, r26
    1692:	20 f0       	brcs	.+8      	; 0x169c <__divsf3_pse+0xae>
    1694:	62 1b       	sub	r22, r18
    1696:	73 0b       	sbc	r23, r19
    1698:	84 0b       	sbc	r24, r20
    169a:	ba 0b       	sbc	r27, r26
    169c:	ee 1f       	adc	r30, r30
    169e:	88 f7       	brcc	.-30     	; 0x1682 <__divsf3_pse+0x94>
    16a0:	e0 95       	com	r30
    16a2:	08 95       	ret

Disassembly of section .text:

000021ec <__fixsfsi>:
    21ec:	0e 94 31 0e 	call	0x1c62	; 0x1c62 <__fixunssfsi>
    21f0:	68 94       	set
    21f2:	b1 11       	cpse	r27, r1
    21f4:	0c 94 0c 11 	jmp	0x2218	; 0x2218 <__fp_szero>
    21f8:	08 95       	ret

Disassembly of section .text:

00001c62 <__fixunssfsi>:
    1c62:	0e 94 b0 0e 	call	0x1d60	; 0x1d60 <__fp_splitA>
    1c66:	88 f0       	brcs	.+34     	; 0x1c8a <__fixunssfsi+0x28>
    1c68:	9f 57       	subi	r25, 0x7F	; 127
    1c6a:	98 f0       	brcs	.+38     	; 0x1c92 <__fixunssfsi+0x30>
    1c6c:	b9 2f       	mov	r27, r25
    1c6e:	99 27       	eor	r25, r25
    1c70:	b7 51       	subi	r27, 0x17	; 23
    1c72:	b0 f0       	brcs	.+44     	; 0x1ca0 <__fixunssfsi+0x3e>
    1c74:	e1 f0       	breq	.+56     	; 0x1cae <__fixunssfsi+0x4c>
    1c76:	66 0f       	add	r22, r22
    1c78:	77 1f       	adc	r23, r23
    1c7a:	88 1f       	adc	r24, r24
    1c7c:	99 1f       	adc	r25, r25
    1c7e:	1a f0       	brmi	.+6      	; 0x1c86 <__fixunssfsi+0x24>
    1c80:	ba 95       	dec	r27
    1c82:	c9 f7       	brne	.-14     	; 0x1c76 <__fixunssfsi+0x14>
    1c84:	14 c0       	rjmp	.+40     	; 0x1cae <__fixunssfsi+0x4c>
    1c86:	b1 30       	cpi	r27, 0x01	; 1
    1c88:	91 f0       	breq	.+36     	; 0x1cae <__fixunssfsi+0x4c>
    1c8a:	0e 94 0b 11 	call	0x2216	; 0x2216 <__fp_zero>
    1c8e:	b1 e0       	ldi	r27, 0x01	; 1
    1c90:	08 95       	ret
    1c92:	0c 94 0b 11 	jmp	0x2216	; 0x2216 <__fp_zero>
    1c96:	67 2f       	mov	r22, r23
    1c98:	78 2f       	mov	r23, r24
    1c9a:	88 27       	eor	r24, r24
    1c9c:	b8 5f       	subi	r27, 0xF8	; 248
    1c9e:	39 f0       	breq	.+14     	; 0x1cae <__fixunssfsi+0x4c>
    1ca0:	b9 3f       	cpi	r27, 0xF9	; 249
    1ca2:	cc f3       	brlt	.-14     	; 0x1c96 <__fixunssfsi+0x34>
    1ca4:	86 95       	lsr	r24
    1ca6:	77 95       	ror	r23
    1ca8:	67 95       	ror	r22
    1caa:	b3 95       	inc	r27
    1cac:	d9 f7       	brne	.-10     	; 0x1ca4 <__fixunssfsi+0x42>
    1cae:	3e f4       	brtc	.+14     	; 0x1cbe <__fixunssfsi+0x5c>
    1cb0:	90 95       	com	r25
    1cb2:	80 95       	com	r24
    1cb4:	70 95       	com	r23
    1cb6:	61 95       	neg	r22
    1cb8:	7f 4f       	sbci	r23, 0xFF	; 255
    1cba:	8f 4f       	sbci	r24, 0xFF	; 255
    1cbc:	9f 4f       	sbci	r25, 0xFF	; 255
    1cbe:	08 95       	ret

Disassembly of section .text:

00001d08 <__fp_cmp>:
    1d08:	99 0f       	add	r25, r25
    1d0a:	00 08       	sbc	r0, r0
    1d0c:	55 0f       	add	r21, r21
    1d0e:	aa 0b       	sbc	r26, r26
    1d10:	e0 e8       	ldi	r30, 0x80	; 128
    1d12:	fe ef       	ldi	r31, 0xFE	; 254
    1d14:	16 16       	cp	r1, r22
    1d16:	17 06       	cpc	r1, r23
    1d18:	e8 07       	cpc	r30, r24
    1d1a:	f9 07       	cpc	r31, r25
    1d1c:	c0 f0       	brcs	.+48     	; 0x1d4e <__fp_cmp+0x46>
    1d1e:	12 16       	cp	r1, r18
    1d20:	13 06       	cpc	r1, r19
    1d22:	e4 07       	cpc	r30, r20
    1d24:	f5 07       	cpc	r31, r21
    1d26:	98 f0       	brcs	.+38     	; 0x1d4e <__fp_cmp+0x46>
    1d28:	62 1b       	sub	r22, r18
    1d2a:	73 0b       	sbc	r23, r19
    1d2c:	84 0b       	sbc	r24, r20
    1d2e:	95 0b       	sbc	r25, r21
    1d30:	39 f4       	brne	.+14     	; 0x1d40 <__fp_cmp+0x38>
    1d32:	0a 26       	eor	r0, r26
    1d34:	61 f0       	breq	.+24     	; 0x1d4e <__fp_cmp+0x46>
    1d36:	23 2b       	or	r18, r19
    1d38:	24 2b       	or	r18, r20
    1d3a:	25 2b       	or	r18, r21
    1d3c:	21 f4       	brne	.+8      	; 0x1d46 <__fp_cmp+0x3e>
    1d3e:	08 95       	ret
    1d40:	0a 26       	eor	r0, r26
    1d42:	09 f4       	brne	.+2      	; 0x1d46 <__fp_cmp+0x3e>
    1d44:	a1 40       	sbci	r26, 0x01	; 1
    1d46:	a6 95       	lsr	r26
    1d48:	8f ef       	ldi	r24, 0xFF	; 255
    1d4a:	81 1d       	adc	r24, r1
    1d4c:	81 1d       	adc	r24, r1
    1d4e:	08 95       	ret

Disassembly of section .text:

00002224 <__fp_inf>:
    2224:	97 f9       	bld	r25, 7
    2226:	9f 67       	ori	r25, 0x7F	; 127
    2228:	80 e8       	ldi	r24, 0x80	; 128
    222a:	70 e0       	ldi	r23, 0x00	; 0
    222c:	60 e0       	ldi	r22, 0x00	; 0
    222e:	08 95       	ret

Disassembly of section .text:

00002274 <__fp_nan>:
    2274:	9f ef       	ldi	r25, 0xFF	; 255
    2276:	80 ec       	ldi	r24, 0xC0	; 192
    2278:	08 95       	ret

Disassembly of section .text:

000021fa <__fp_pscA>:
    21fa:	00 24       	eor	r0, r0
    21fc:	0a 94       	dec	r0
    21fe:	16 16       	cp	r1, r22
    2200:	17 06       	cpc	r1, r23
    2202:	18 06       	cpc	r1, r24
    2204:	09 06       	cpc	r0, r25
    2206:	08 95       	ret

Disassembly of section .text:

00002208 <__fp_pscB>:
    2208:	00 24       	eor	r0, r0
    220a:	0a 94       	dec	r0
    220c:	12 16       	cp	r1, r18
    220e:	13 06       	cpc	r1, r19
    2210:	14 06       	cpc	r1, r20
    2212:	05 06       	cpc	r0, r21
    2214:	08 95       	ret

Disassembly of section .text:

0000208a <__fp_round>:
    208a:	09 2e       	mov	r0, r25
    208c:	03 94       	inc	r0
    208e:	00 0c       	add	r0, r0
    2090:	11 f4       	brne	.+4      	; 0x2096 <__fp_round+0xc>
    2092:	88 23       	and	r24, r24
    2094:	52 f0       	brmi	.+20     	; 0x20aa <__fp_round+0x20>
    2096:	bb 0f       	add	r27, r27
    2098:	40 f4       	brcc	.+16     	; 0x20aa <__fp_round+0x20>
    209a:	bf 2b       	or	r27, r31
    209c:	11 f4       	brne	.+4      	; 0x20a2 <__fp_round+0x18>
    209e:	60 ff       	sbrs	r22, 0
    20a0:	04 c0       	rjmp	.+8      	; 0x20aa <__fp_round+0x20>
    20a2:	6f 5f       	subi	r22, 0xFF	; 255
    20a4:	7f 4f       	sbci	r23, 0xFF	; 255
    20a6:	8f 4f       	sbci	r24, 0xFF	; 255
    20a8:	9f 4f       	sbci	r25, 0xFF	; 255
    20aa:	08 95       	ret

Disassembly of section .text:

00001d50 <__fp_split3>:
    1d50:	57 fd       	sbrc	r21, 7
    1d52:	90 58       	subi	r25, 0x80	; 128
    1d54:	44 0f       	add	r20, r20
    1d56:	55 1f       	adc	r21, r21
    1d58:	59 f0       	breq	.+22     	; 0x1d70 <__fp_splitA+0x10>
    1d5a:	5f 3f       	cpi	r21, 0xFF	; 255
    1d5c:	71 f0       	breq	.+28     	; 0x1d7a <__fp_splitA+0x1a>
    1d5e:	47 95       	ror	r20

00001d60 <__fp_splitA>:
    1d60:	88 0f       	add	r24, r24
    1d62:	97 fb       	bst	r25, 7
    1d64:	99 1f       	adc	r25, r25
    1d66:	61 f0       	breq	.+24     	; 0x1d80 <__fp_splitA+0x20>
    1d68:	9f 3f       	cpi	r25, 0xFF	; 255
    1d6a:	79 f0       	breq	.+30     	; 0x1d8a <__fp_splitA+0x2a>
    1d6c:	87 95       	ror	r24
    1d6e:	08 95       	ret
    1d70:	12 16       	cp	r1, r18
    1d72:	13 06       	cpc	r1, r19
    1d74:	14 06       	cpc	r1, r20
    1d76:	55 1f       	adc	r21, r21
    1d78:	f2 cf       	rjmp	.-28     	; 0x1d5e <__fp_split3+0xe>
    1d7a:	46 95       	lsr	r20
    1d7c:	f1 df       	rcall	.-30     	; 0x1d60 <__fp_splitA>
    1d7e:	08 c0       	rjmp	.+16     	; 0x1d90 <__fp_splitA+0x30>
    1d80:	16 16       	cp	r1, r22
    1d82:	17 06       	cpc	r1, r23
    1d84:	18 06       	cpc	r1, r24
    1d86:	99 1f       	adc	r25, r25
    1d88:	f1 cf       	rjmp	.-30     	; 0x1d6c <__fp_splitA+0xc>
    1d8a:	86 95       	lsr	r24
    1d8c:	71 05       	cpc	r23, r1
    1d8e:	61 05       	cpc	r22, r1
    1d90:	08 94       	sec
    1d92:	08 95       	ret

Disassembly of section .text:

00002216 <__fp_zero>:
    2216:	e8 94       	clt

00002218 <__fp_szero>:
    2218:	bb 27       	eor	r27, r27
    221a:	66 27       	eor	r22, r22
    221c:	77 27       	eor	r23, r23
    221e:	cb 01       	movw	r24, r22
    2220:	97 f9       	bld	r25, 7
    2222:	08 95       	ret

Disassembly of section .text:

0000223a <__gesf2>:
    223a:	0e 94 84 0e 	call	0x1d08	; 0x1d08 <__fp_cmp>
    223e:	08 f4       	brcc	.+2      	; 0x2242 <__gesf2+0x8>
    2240:	8f ef       	ldi	r24, 0xFF	; 255
    2242:	08 95       	ret

Disassembly of section .text:

00002254 <__mulsf3>:
    2254:	0e 94 be 0b 	call	0x177c	; 0x177c <__mulsf3x>
    2258:	0c 94 45 10 	jmp	0x208a	; 0x208a <__fp_round>

Disassembly of section .text:

0000177c <__mulsf3x>:
    177c:	0f c0       	rjmp	.+30     	; 0x179c <__mulsf3x+0x20>
    177e:	0e 94 fd 10 	call	0x21fa	; 0x21fa <__fp_pscA>
    1782:	38 f0       	brcs	.+14     	; 0x1792 <__mulsf3x+0x16>
    1784:	0e 94 04 11 	call	0x2208	; 0x2208 <__fp_pscB>
    1788:	20 f0       	brcs	.+8      	; 0x1792 <__mulsf3x+0x16>
    178a:	95 23       	and	r25, r21
    178c:	11 f0       	breq	.+4      	; 0x1792 <__mulsf3x+0x16>
    178e:	0c 94 12 11 	jmp	0x2224	; 0x2224 <__fp_inf>
    1792:	0c 94 3a 11 	jmp	0x2274	; 0x2274 <__fp_nan>
    1796:	11 24       	eor	r1, r1
    1798:	0c 94 0c 11 	jmp	0x2218	; 0x2218 <__fp_szero>
    179c:	0e 94 a8 0e 	call	0x1d50	; 0x1d50 <__fp_split3>
    17a0:	70 f3       	brcs	.-36     	; 0x177e <__mulsf3x+0x2>

000017a2 <__mulsf3_pse>:
    17a2:	95 9f       	mul	r25, r21
    17a4:	c1 f3       	breq	.-16     	; 0x1796 <__mulsf3x+0x1a>
    17a6:	95 0f       	add	r25, r21
    17a8:	50 e0       	ldi	r21, 0x00	; 0
    17aa:	55 1f       	adc	r21, r21
    17ac:	62 9f       	mul	r22, r18
    17ae:	f0 01       	movw	r30, r0
    17b0:	72 9f       	mul	r23, r18
    17b2:	bb 27       	eor	r27, r27
    17b4:	f0 0d       	add	r31, r0
    17b6:	b1 1d       	adc	r27, r1
    17b8:	63 9f       	mul	r22, r19
    17ba:	aa 27       	eor	r26, r26
    17bc:	f0 0d       	add	r31, r0
    17be:	b1 1d       	adc	r27, r1
    17c0:	aa 1f       	adc	r26, r26
    17c2:	64 9f       	mul	r22, r20
    17c4:	66 27       	eor	r22, r22
    17c6:	b0 0d       	add	r27, r0
    17c8:	a1 1d       	adc	r26, r1
    17ca:	66 1f       	adc	r22, r22
    17cc:	82 9f       	mul	r24, r18
    17ce:	22 27       	eor	r18, r18
    17d0:	b0 0d       	add	r27, r0
    17d2:	a1 1d       	adc	r26, r1
    17d4:	62 1f       	adc	r22, r18
    17d6:	73 9f       	mul	r23, r19
    17d8:	b0 0d       	add	r27, r0
    17da:	a1 1d       	adc	r26, r1
    17dc:	62 1f       	adc	r22, r18
    17de:	83 9f       	mul	r24, r19
    17e0:	a0 0d       	add	r26, r0
    17e2:	61 1d       	adc	r22, r1
    17e4:	22 1f       	adc	r18, r18
    17e6:	74 9f       	mul	r23, r20
    17e8:	33 27       	eor	r19, r19
    17ea:	a0 0d       	add	r26, r0
    17ec:	61 1d       	adc	r22, r1
    17ee:	23 1f       	adc	r18, r19
    17f0:	84 9f       	mul	r24, r20
    17f2:	60 0d       	add	r22, r0
    17f4:	21 1d       	adc	r18, r1
    17f6:	82 2f       	mov	r24, r18
    17f8:	76 2f       	mov	r23, r22
    17fa:	6a 2f       	mov	r22, r26
    17fc:	11 24       	eor	r1, r1
    17fe:	9f 57       	subi	r25, 0x7F	; 127
    1800:	50 40       	sbci	r21, 0x00	; 0
    1802:	9a f0       	brmi	.+38     	; 0x182a <__mulsf3_pse+0x88>
    1804:	f1 f0       	breq	.+60     	; 0x1842 <__mulsf3_pse+0xa0>
    1806:	88 23       	and	r24, r24
    1808:	4a f0       	brmi	.+18     	; 0x181c <__mulsf3_pse+0x7a>
    180a:	ee 0f       	add	r30, r30
    180c:	ff 1f       	adc	r31, r31
    180e:	bb 1f       	adc	r27, r27
    1810:	66 1f       	adc	r22, r22
    1812:	77 1f       	adc	r23, r23
    1814:	88 1f       	adc	r24, r24
    1816:	91 50       	subi	r25, 0x01	; 1
    1818:	50 40       	sbci	r21, 0x00	; 0
    181a:	a9 f7       	brne	.-22     	; 0x1806 <__mulsf3_pse+0x64>
    181c:	9e 3f       	cpi	r25, 0xFE	; 254
    181e:	51 05       	cpc	r21, r1
    1820:	80 f0       	brcs	.+32     	; 0x1842 <__mulsf3_pse+0xa0>
    1822:	0c 94 12 11 	jmp	0x2224	; 0x2224 <__fp_inf>
    1826:	0c 94 0c 11 	jmp	0x2218	; 0x2218 <__fp_szero>
    182a:	5f 3f       	cpi	r21, 0xFF	; 255
    182c:	e4 f3       	brlt	.-8      	; 0x1826 <__mulsf3_pse+0x84>
    182e:	98 3e       	cpi	r25, 0xE8	; 232
    1830:	d4 f3       	brlt	.-12     	; 0x1826 <__mulsf3_pse+0x84>
    1832:	86 95       	lsr	r24
    1834:	77 95       	ror	r23
    1836:	67 95       	ror	r22
    1838:	b7 95       	ror	r27
    183a:	f7 95       	ror	r31
    183c:	e7 95       	ror	r30
    183e:	9f 5f       	subi	r25, 0xFF	; 255
    1840:	c1 f7       	brne	.-16     	; 0x1832 <__mulsf3_pse+0x90>
    1842:	fe 2b       	or	r31, r30
    1844:	88 0f       	add	r24, r24
    1846:	91 1d       	adc	r25, r1
    1848:	96 95       	lsr	r25
    184a:	87 95       	ror	r24
    184c:	97 f9       	bld	r25, 7
    184e:	08 95       	ret

Disassembly of section .text.floorf:

0000126a <floorf>:
    126a:	4f 92       	push	r4
    126c:	5f 92       	push	r5
    126e:	6f 92       	push	r6
    1270:	7f 92       	push	r7
    1272:	8f 92       	push	r8
    1274:	9f 92       	push	r9
    1276:	af 92       	push	r10
    1278:	bf 92       	push	r11
    127a:	cf 92       	push	r12
    127c:	df 92       	push	r13
    127e:	ef 92       	push	r14
    1280:	ff 92       	push	r15
    1282:	cf 93       	push	r28
    1284:	df 93       	push	r29
    1286:	cd b7       	in	r28, 0x3d	; 61
    1288:	de b7       	in	r29, 0x3e	; 62
    128a:	28 97       	sbiw	r28, 0x08	; 8
    128c:	0f b6       	in	r0, 0x3f	; 63
    128e:	f8 94       	cli
    1290:	de bf       	out	0x3e, r29	; 62
    1292:	0f be       	out	0x3f, r0	; 63
    1294:	cd bf       	out	0x3d, r28	; 61
    1296:	6b 01       	movw	r12, r22
    1298:	7c 01       	movw	r14, r24
    129a:	dc 01       	movw	r26, r24
    129c:	cb 01       	movw	r24, r22
    129e:	47 e1       	ldi	r20, 0x17	; 23
    12a0:	b6 95       	lsr	r27
    12a2:	a7 95       	ror	r26
    12a4:	97 95       	ror	r25
    12a6:	87 95       	ror	r24
    12a8:	4a 95       	dec	r20
    12aa:	d1 f7       	brne	.-12     	; 0x12a0 <floorf+0x36>
    12ac:	99 27       	eor	r25, r25
    12ae:	8f 57       	subi	r24, 0x7F	; 127
    12b0:	91 09       	sbc	r25, r1
    12b2:	87 31       	cpi	r24, 0x17	; 23
    12b4:	91 05       	cpc	r25, r1
    12b6:	9c f5       	brge	.+102    	; 0x131e <floorf+0xb4>
    12b8:	97 fd       	sbrc	r25, 7
    12ba:	36 c0       	rjmp	.+108    	; 0x1328 <floorf+0xbe>
    12bc:	88 24       	eor	r8, r8
    12be:	8a 94       	dec	r8
    12c0:	98 2c       	mov	r9, r8
    12c2:	3f e7       	ldi	r19, 0x7F	; 127
    12c4:	a3 2e       	mov	r10, r19
    12c6:	b1 2c       	mov	r11, r1
    12c8:	04 c0       	rjmp	.+8      	; 0x12d2 <floorf+0x68>
    12ca:	b5 94       	asr	r11
    12cc:	a7 94       	ror	r10
    12ce:	97 94       	ror	r9
    12d0:	87 94       	ror	r8
    12d2:	8a 95       	dec	r24
    12d4:	d2 f7       	brpl	.-12     	; 0x12ca <floorf+0x60>
    12d6:	d5 01       	movw	r26, r10
    12d8:	c4 01       	movw	r24, r8
    12da:	8c 21       	and	r24, r12
    12dc:	9d 21       	and	r25, r13
    12de:	ae 21       	and	r26, r14
    12e0:	bf 21       	and	r27, r15
    12e2:	89 2b       	or	r24, r25
    12e4:	8a 2b       	or	r24, r26
    12e6:	8b 2b       	or	r24, r27
    12e8:	d1 f0       	breq	.+52     	; 0x131e <floorf+0xb4>
    12ea:	20 e0       	ldi	r18, 0x00	; 0
    12ec:	30 e0       	ldi	r19, 0x00	; 0
    12ee:	40 e8       	ldi	r20, 0x80	; 128
    12f0:	5b e7       	ldi	r21, 0x7B	; 123
    12f2:	c7 01       	movw	r24, r14
    12f4:	b6 01       	movw	r22, r12
    12f6:	0e 94 f0 10 	call	0x21e0	; 0x21e0 <__addsf3>
    12fa:	6d 83       	std	Y+5, r22	; 0x05
    12fc:	7e 83       	std	Y+6, r23	; 0x06
    12fe:	8f 83       	std	Y+7, r24	; 0x07
    1300:	98 87       	std	Y+8, r25	; 0x08
    1302:	f7 fe       	sbrs	r15, 7
    1304:	04 c0       	rjmp	.+8      	; 0x130e <floorf+0xa4>
    1306:	c8 0c       	add	r12, r8
    1308:	d9 1c       	adc	r13, r9
    130a:	ea 1c       	adc	r14, r10
    130c:	fb 1c       	adc	r15, r11
    130e:	80 94       	com	r8
    1310:	90 94       	com	r9
    1312:	a0 94       	com	r10
    1314:	b0 94       	com	r11
    1316:	c8 20       	and	r12, r8
    1318:	d9 20       	and	r13, r9
    131a:	ea 20       	and	r14, r10
    131c:	fb 20       	and	r15, r11
    131e:	5c 2d       	mov	r21, r12
    1320:	4d 2d       	mov	r20, r13
    1322:	3e 2d       	mov	r19, r14
    1324:	2f 2d       	mov	r18, r15
    1326:	21 c0       	rjmp	.+66     	; 0x136a <floorf+0x100>
    1328:	20 e0       	ldi	r18, 0x00	; 0
    132a:	30 e0       	ldi	r19, 0x00	; 0
    132c:	40 e8       	ldi	r20, 0x80	; 128
    132e:	5b e7       	ldi	r21, 0x7B	; 123
    1330:	c7 01       	movw	r24, r14
    1332:	b6 01       	movw	r22, r12
    1334:	0e 94 f0 10 	call	0x21e0	; 0x21e0 <__addsf3>
    1338:	69 83       	std	Y+1, r22	; 0x01
    133a:	7a 83       	std	Y+2, r23	; 0x02
    133c:	8b 83       	std	Y+3, r24	; 0x03
    133e:	9c 83       	std	Y+4, r25	; 0x04
    1340:	f7 fe       	sbrs	r15, 7
    1342:	0f c0       	rjmp	.+30     	; 0x1362 <floorf+0xf8>
    1344:	d7 01       	movw	r26, r14
    1346:	c6 01       	movw	r24, r12
    1348:	88 0f       	add	r24, r24
    134a:	99 1f       	adc	r25, r25
    134c:	aa 1f       	adc	r26, r26
    134e:	bb 1f       	adc	r27, r27
    1350:	89 2b       	or	r24, r25
    1352:	8a 2b       	or	r24, r26
    1354:	8b 2b       	or	r24, r27
    1356:	19 f3       	breq	.-58     	; 0x131e <floorf+0xb4>
    1358:	50 e0       	ldi	r21, 0x00	; 0
    135a:	40 e0       	ldi	r20, 0x00	; 0
    135c:	30 e8       	ldi	r19, 0x80	; 128
    135e:	2f eb       	ldi	r18, 0xBF	; 191
    1360:	04 c0       	rjmp	.+8      	; 0x136a <floorf+0x100>
    1362:	50 e0       	ldi	r21, 0x00	; 0
    1364:	40 e0       	ldi	r20, 0x00	; 0
    1366:	30 e0       	ldi	r19, 0x00	; 0
    1368:	20 e0       	ldi	r18, 0x00	; 0
    136a:	65 2f       	mov	r22, r21
    136c:	74 2f       	mov	r23, r20
    136e:	83 2f       	mov	r24, r19
    1370:	92 2f       	mov	r25, r18
    1372:	28 96       	adiw	r28, 0x08	; 8
    1374:	0f b6       	in	r0, 0x3f	; 63
    1376:	f8 94       	cli
    1378:	de bf       	out	0x3e, r29	; 62
    137a:	0f be       	out	0x3f, r0	; 63
    137c:	cd bf       	out	0x3d, r28	; 61
    137e:	df 91       	pop	r29
    1380:	cf 91       	pop	r28
    1382:	ff 90       	pop	r15
    1384:	ef 90       	pop	r14
    1386:	df 90       	pop	r13
    1388:	cf 90       	pop	r12
    138a:	bf 90       	pop	r11
    138c:	af 90       	pop	r10
    138e:	9f 90       	pop	r9
    1390:	8f 90       	pop	r8
    1392:	7f 90       	pop	r7
    1394:	6f 90       	pop	r6
    1396:	5f 90       	pop	r5
    1398:	4f 90       	pop	r4
    139a:	08 95       	ret

Disassembly of section .text.fmaf:

0000112e <fmaf>:
    112e:	a5 e1       	ldi	r26, 0x15	; 21
    1130:	b0 e0       	ldi	r27, 0x00	; 0
    1132:	ed e9       	ldi	r30, 0x9D	; 157
    1134:	f8 e0       	ldi	r31, 0x08	; 8
    1136:	0c 94 65 0f 	jmp	0x1eca	; 0x1eca <__prologue_saves__>
    113a:	47 01       	movw	r8, r14
    113c:	58 01       	movw	r10, r16
    113e:	0e 94 2a 11 	call	0x2254	; 0x2254 <__mulsf3>
    1142:	2b 01       	movw	r4, r22
    1144:	3c 01       	movw	r6, r24
    1146:	a8 01       	movw	r20, r16
    1148:	97 01       	movw	r18, r14
    114a:	0e 94 f0 10 	call	0x21e0	; 0x21e0 <__addsf3>
    114e:	16 2f       	mov	r17, r22
    1150:	c7 2e       	mov	r12, r23
    1152:	d8 2e       	mov	r13, r24
    1154:	f9 2e       	mov	r15, r25
    1156:	86 2f       	mov	r24, r22
    1158:	9c 2d       	mov	r25, r12
    115a:	ad 2d       	mov	r26, r13
    115c:	bf 2d       	mov	r27, r15
    115e:	89 83       	std	Y+1, r24	; 0x01
    1160:	9a 83       	std	Y+2, r25	; 0x02
    1162:	ab 83       	std	Y+3, r26	; 0x03
    1164:	bc 83       	std	Y+4, r27	; 0x04
    1166:	aa 81       	ldd	r26, Y+2	; 0x02
    1168:	fb 81       	ldd	r31, Y+3	; 0x03
    116a:	ec 81       	ldd	r30, Y+4	; 0x04
    116c:	ed 80       	ldd	r14, Y+5	; 0x05
    116e:	3e 80       	ldd	r3, Y+6	; 0x06
    1170:	2f 80       	ldd	r2, Y+7	; 0x07
    1172:	08 85       	ldd	r16, Y+8	; 0x08
    1174:	0d 8b       	std	Y+21, r16	; 0x15
    1176:	5e 2f       	mov	r21, r30
    1178:	5f 71       	andi	r21, 0x1F	; 31
    117a:	21 2f       	mov	r18, r17
    117c:	3a 2f       	mov	r19, r26
    117e:	4f 2f       	mov	r20, r31
    1180:	60 e0       	ldi	r22, 0x00	; 0
    1182:	70 e0       	ldi	r23, 0x00	; 0
    1184:	80 e0       	ldi	r24, 0x00	; 0
    1186:	90 e0       	ldi	r25, 0x00	; 0
    1188:	21 15       	cp	r18, r1
    118a:	31 05       	cpc	r19, r1
    118c:	41 05       	cpc	r20, r1
    118e:	00 e1       	ldi	r16, 0x10	; 16
    1190:	50 07       	cpc	r21, r16
    1192:	61 05       	cpc	r22, r1
    1194:	71 05       	cpc	r23, r1
    1196:	81 05       	cpc	r24, r1
    1198:	91 05       	cpc	r25, r1
    119a:	09 f0       	breq	.+2      	; 0x119e <fmaf+0x70>
    119c:	5e c0       	rjmp	.+188    	; 0x125a <fmaf+0x12c>
    119e:	5e 2f       	mov	r21, r30
    11a0:	6e 2d       	mov	r22, r14
    11a2:	73 2d       	mov	r23, r3
    11a4:	82 2d       	mov	r24, r2
    11a6:	9d 89       	ldd	r25, Y+21	; 0x15
    11a8:	04 e3       	ldi	r16, 0x34	; 52
    11aa:	0e 94 2c 0f 	call	0x1e58	; 0x1e58 <__lshrdi3>
    11ae:	2d 87       	std	Y+13, r18	; 0x0d
    11b0:	3e 87       	std	Y+14, r19	; 0x0e
    11b2:	4f 87       	std	Y+15, r20	; 0x0f
    11b4:	58 8b       	std	Y+16, r21	; 0x10
    11b6:	69 8b       	std	Y+17, r22	; 0x11
    11b8:	7a 8b       	std	Y+18, r23	; 0x12
    11ba:	8b 8b       	std	Y+19, r24	; 0x13
    11bc:	9c 8b       	std	Y+20, r25	; 0x14
    11be:	8d 85       	ldd	r24, Y+13	; 0x0d
    11c0:	9e 85       	ldd	r25, Y+14	; 0x0e
    11c2:	97 70       	andi	r25, 0x07	; 7
    11c4:	8f 3f       	cpi	r24, 0xFF	; 255
    11c6:	97 40       	sbci	r25, 0x07	; 7
    11c8:	09 f4       	brne	.+2      	; 0x11cc <fmaf+0x9e>
    11ca:	47 c0       	rjmp	.+142    	; 0x125a <fmaf+0x12c>
    11cc:	a3 01       	movw	r20, r6
    11ce:	92 01       	movw	r18, r4
    11d0:	61 2f       	mov	r22, r17
    11d2:	7c 2d       	mov	r23, r12
    11d4:	8d 2d       	mov	r24, r13
    11d6:	9f 2d       	mov	r25, r15
    11d8:	0e 94 ef 10 	call	0x21de	; 0x21de <__subsf3>
    11dc:	9b 01       	movw	r18, r22
    11de:	ac 01       	movw	r20, r24
    11e0:	c5 01       	movw	r24, r10
    11e2:	b4 01       	movw	r22, r8
    11e4:	0e 94 18 11 	call	0x2230	; 0x2230 <__cmpsf2>
    11e8:	88 23       	and	r24, r24
    11ea:	b9 f1       	breq	.+110    	; 0x125a <fmaf+0x12c>
    11ec:	49 86       	std	Y+9, r4	; 0x09
    11ee:	5a 86       	std	Y+10, r5	; 0x0a
    11f0:	6b 86       	std	Y+11, r6	; 0x0b
    11f2:	7c 86       	std	Y+12, r7	; 0x0c
    11f4:	29 85       	ldd	r18, Y+9	; 0x09
    11f6:	3a 85       	ldd	r19, Y+10	; 0x0a
    11f8:	4b 85       	ldd	r20, Y+11	; 0x0b
    11fa:	5c 85       	ldd	r21, Y+12	; 0x0c
    11fc:	c5 01       	movw	r24, r10
    11fe:	b4 01       	movw	r22, r8
    1200:	0e 94 f0 10 	call	0x21e0	; 0x21e0 <__addsf3>
    1204:	b6 2e       	mov	r11, r22
    1206:	87 2e       	mov	r8, r23
    1208:	98 2e       	mov	r9, r24
    120a:	a9 2e       	mov	r10, r25
    120c:	26 2f       	mov	r18, r22
    120e:	37 2f       	mov	r19, r23
    1210:	48 2f       	mov	r20, r24
    1212:	59 2f       	mov	r21, r25
    1214:	61 2f       	mov	r22, r17
    1216:	7c 2d       	mov	r23, r12
    1218:	8d 2d       	mov	r24, r13
    121a:	9f 2d       	mov	r25, r15
    121c:	0e 94 18 11 	call	0x2230	; 0x2230 <__cmpsf2>
    1220:	81 11       	cpse	r24, r1
    1222:	18 c0       	rjmp	.+48     	; 0x1254 <fmaf+0x126>
    1224:	2b 2d       	mov	r18, r11
    1226:	8b 2d       	mov	r24, r11
    1228:	98 2d       	mov	r25, r8
    122a:	a9 2d       	mov	r26, r9
    122c:	ba 2d       	mov	r27, r10
    122e:	89 83       	std	Y+1, r24	; 0x01
    1230:	9a 83       	std	Y+2, r25	; 0x02
    1232:	ab 83       	std	Y+3, r26	; 0x03
    1234:	bc 83       	std	Y+4, r27	; 0x04
    1236:	3a 81       	ldd	r19, Y+2	; 0x02
    1238:	4b 81       	ldd	r20, Y+3	; 0x03
    123a:	5c 81       	ldd	r21, Y+4	; 0x04
    123c:	6e 2d       	mov	r22, r14
    123e:	73 2d       	mov	r23, r3
    1240:	82 2d       	mov	r24, r2
    1242:	9d 89       	ldd	r25, Y+21	; 0x15
    1244:	a1 e0       	ldi	r26, 0x01	; 1
    1246:	0e 94 a6 10 	call	0x214c	; 0x214c <__adddi3_s8>
    124a:	12 2f       	mov	r17, r18
    124c:	c3 2e       	mov	r12, r19
    124e:	d4 2e       	mov	r13, r20
    1250:	f5 2e       	mov	r15, r21
    1252:	03 c0       	rjmp	.+6      	; 0x125a <fmaf+0x12c>
    1254:	1b 2d       	mov	r17, r11
    1256:	64 01       	movw	r12, r8
    1258:	fa 2c       	mov	r15, r10
    125a:	61 2f       	mov	r22, r17
    125c:	7c 2d       	mov	r23, r12
    125e:	8d 2d       	mov	r24, r13
    1260:	9f 2d       	mov	r25, r15
    1262:	65 96       	adiw	r28, 0x15	; 21
    1264:	e2 e1       	ldi	r30, 0x12	; 18
    1266:	0c 94 9c 0f 	jmp	0x1f38	; 0x1f38 <__epilogue_restores__>

Disassembly of section .text.libgcc.builtins:

00001e54 <__ashrdi3>:
    1e54:	97 fb       	bst	r25, 7
    1e56:	10 f8       	bld	r1, 0

00001e58 <__lshrdi3>:
    1e58:	16 94       	lsr	r1
    1e5a:	00 08       	sbc	r0, r0
    1e5c:	0f 93       	push	r16
    1e5e:	08 30       	cpi	r16, 0x08	; 8
    1e60:	98 f0       	brcs	.+38     	; 0x1e88 <__lshrdi3+0x30>
    1e62:	08 50       	subi	r16, 0x08	; 8
    1e64:	23 2f       	mov	r18, r19
    1e66:	34 2f       	mov	r19, r20
    1e68:	45 2f       	mov	r20, r21
    1e6a:	56 2f       	mov	r21, r22
    1e6c:	67 2f       	mov	r22, r23
    1e6e:	78 2f       	mov	r23, r24
    1e70:	89 2f       	mov	r24, r25
    1e72:	90 2d       	mov	r25, r0
    1e74:	f4 cf       	rjmp	.-24     	; 0x1e5e <__lshrdi3+0x6>
    1e76:	05 94       	asr	r0
    1e78:	97 95       	ror	r25
    1e7a:	87 95       	ror	r24
    1e7c:	77 95       	ror	r23
    1e7e:	67 95       	ror	r22
    1e80:	57 95       	ror	r21
    1e82:	47 95       	ror	r20
    1e84:	37 95       	ror	r19
    1e86:	27 95       	ror	r18
    1e88:	0a 95       	dec	r16
    1e8a:	aa f7       	brpl	.-22     	; 0x1e76 <__lshrdi3+0x1e>
    1e8c:	0f 91       	pop	r16
    1e8e:	08 95       	ret

Disassembly of section .text.libgcc:

0000214c <__adddi3_s8>:
    214c:	00 24       	eor	r0, r0
    214e:	a7 fd       	sbrc	r26, 7
    2150:	00 94       	com	r0
    2152:	2a 0f       	add	r18, r26
    2154:	30 1d       	adc	r19, r0
    2156:	40 1d       	adc	r20, r0
    2158:	50 1d       	adc	r21, r0
    215a:	60 1d       	adc	r22, r0
    215c:	70 1d       	adc	r23, r0
    215e:	80 1d       	adc	r24, r0
    2160:	90 1d       	adc	r25, r0
    2162:	08 95       	ret
