
LCD_I2C.elf:     file format elf32-avr

Sections:
Idx Name          Size      VMA       LMA       File off  Algn
  0 .text         000000c0  00000000  00000000  000000f4  2**1
                  CONTENTS, ALLOC, LOAD, READONLY, CODE
  1 .data         00000000  00800060  00800060  00003397  2**0
                  ALLOC, LOAD, DATA
  2 .bss          0000002e  00800060  00800060  00003397  2**0
                  ALLOC
  3 .comment      0000002f  00000000  00000000  00003397  2**0
                  CONTENTS, READONLY
  4 .stack.descriptors.hdr 000001a4  00000000  00000000  000033c6  2**0
                  CONTENTS, READONLY
  5 .debug_aranges 00000218  00000000  00000000  0000356a  2**0
                  CONTENTS, READONLY, DEBUGGING
  6 .debug_info   00003245  00000000  00000000  00003782  2**0
                  CONTENTS, READONLY, DEBUGGING
  7 .debug_abbrev 00000dee  00000000  00000000  000069c7  2**0
                  CONTENTS, READONLY, DEBUGGING
  8 .debug_line   000010b6  00000000  00000000  000077b5  2**0
                  CONTENTS, READONLY, DEBUGGING
  9 .debug_frame  00000470  00000000  00000000  0000886c  2**2
                  CONTENTS, READONLY, DEBUGGING
 10 .debug_str    00000347  00000000  00000000  00008cdc  2**0
                  CONTENTS, READONLY, DEBUGGING
 11 .debug_loc    00000cb0  00000000  00000000  00009023  2**0
                  CONTENTS, READONLY, DEBUGGING
 12 .debug_ranges 000001b0  00000000  00000000  00009cd3  2**0
                  CONTENTS, READONLY, DEBUGGING
 13 .text         00000004  00003288  00003288  0000337c  2**1
                  CONTENTS, ALLOC, LOAD, READONLY, CODE
 14 .note.gnu.avr.deviceinfo 0000003c  00000000  00000000  00009e84  2**2
                  CONTENTS, READONLY, DEBUGGING
 15 .text.Magneto_init 00000018  000030ba  000030ba  000031ae  2**1
                  CONTENTS, ALLOC, LOAD, READONLY, CODE
 16 .text.Magneto_GetHeading 00000104  0000202c  0000202c  00002120  2**1
                  CONTENTS, ALLOC, LOAD, READONLY, CODE
 17 .text.hx711_read 0000006a  000029b0  000029b0  00002aa4  2**1
                  CONTENTS, ALLOC, LOAD, READONLY, CODE
 18 .text.hx711_readaverage 0000004c  00002b8e  00002b8e  00002c82  2**1
                  CONTENTS, ALLOC, LOAD, READONLY, CODE
 19 .text.hx711_readwithtare 00000054  00002b3a  00002b3a  00002c2e  2**1
                  CONTENTS, ALLOC, LOAD, READONLY, CODE
 20 .text.hx711_getweight 0000001a  00003086  00003086  0000317a  2**1
                  CONTENTS, ALLOC, LOAD, READONLY, CODE
 21 .text.hx711_setgain 0000003a  00002d26  00002d26  00002e1a  2**1
                  CONTENTS, ALLOC, LOAD, READONLY, CODE
 22 .text.hx711_setscale 00000012  0000315c  0000315c  00003250  2**1
                  CONTENTS, ALLOC, LOAD, READONLY, CODE
 23 .text.hx711_setoffset 00000012  0000316e  0000316e  00003262  2**1
                  CONTENTS, ALLOC, LOAD, READONLY, CODE
 24 .text.hx711_init 0000005a  00002ae0  00002ae0  00002bd4  2**1
                  CONTENTS, ALLOC, LOAD, READONLY, CODE
 25 .text.HX711_main_function 00000036  00002e0c  00002e0c  00002f00  2**1
                  CONTENTS, ALLOC, LOAD, READONLY, CODE
 26 .bss.hx711_offset 00000004  0080008e  0080008e  00003397  2**0
                  ALLOC
 27 .bss.hx711_scale 00000004  00800092  00800092  00003397  2**0
                  ALLOC
 28 .bss.hx711_gain 00000001  008000aa  008000aa  00003397  2**0
                  ALLOC
 29 .data.scale   00000004  00800096  0000329a  0000338e  2**0
                  CONTENTS, ALLOC, LOAD, DATA
 30 .data.offset  00000004  0080009a  0000329e  00003392  2**0
                  CONTENTS, ALLOC, LOAD, DATA
 31 .data.gain    00000001  008000ab  000032a2  00003396  2**0
                  CONTENTS, ALLOC, LOAD, DATA
 32 .text.IR_Triggered 00000022  00003026  00003026  0000311a  2**1
                  CONTENTS, ALLOC, LOAD, READONLY, CODE
 33 .text.MPU6050_Init 00000086  000027d8  000027d8  000028cc  2**1
                  CONTENTS, ALLOC, LOAD, READONLY, CODE
 34 .text.MPU_Start_Loc 00000014  00003148  00003148  0000323c  2**1
                  CONTENTS, ALLOC, LOAD, READONLY, CODE
 35 .text.Read_RawValue 0000026a  000015c4  000015c4  000016b8  2**1
                  CONTENTS, ALLOC, LOAD, READONLY, CODE
 36 .text.MPU6050_Read_RealValue 00000146  00001b6a  00001b6a  00001c5e  2**1
                  CONTENTS, ALLOC, LOAD, READONLY, CODE
 37 .bss.Zg       00000004  0080009e  0080009e  00003397  2**0
                  ALLOC
 38 .bss.Yg       00000004  008000a2  008000a2  00003397  2**0
                  ALLOC
 39 .bss.Xg       00000004  008000a6  008000a6  00003397  2**0
                  ALLOC
 40 .progmemx.data 0000005b  000000c0  000000c0  000001b4  2**0
                  CONTENTS, ALLOC, LOAD, READONLY, PROGMEMX
 41 .text.main    000001ca  0000182e  0000182e  00001922  2**1
                  CONTENTS, ALLOC, LOAD, READONLY, CODE
 42 .text.DIO_voidSetPinDirection 000000ec  00002130  00002130  00002224  2**1
                  CONTENTS, ALLOC, LOAD, READONLY, CODE
 43 .text.DIO_u8GetPinValue 0000006c  000028d8  000028d8  000029cc  2**1
                  CONTENTS, ALLOC, LOAD, READONLY, CODE
 44 .text.I2C_Init 00000008  00003250  00003250  00003344  2**1
                  CONTENTS, ALLOC, LOAD, READONLY, CODE
 45 .text.I2C_Start 0000003a  00002d60  00002d60  00002e54  2**1
                  CONTENTS, ALLOC, LOAD, READONLY, CODE
 46 .text.I2C_Repeated_Start 0000003a  00002d9a  00002d9a  00002e8e  2**1
                  CONTENTS, ALLOC, LOAD, READONLY, CODE
 47 .text.I2C_Stop 0000000c  00003224  00003224  00003318  2**1
                  CONTENTS, ALLOC, LOAD, READONLY, CODE
 48 .text.I2C_Start_Wait 00000034  00002e78  00002e78  00002f6c  2**1
                  CONTENTS, ALLOC, LOAD, READONLY, CODE
 49 .text.I2C_Write 00000024  00003002  00003002  000030f6  2**1
                  CONTENTS, ALLOC, LOAD, READONLY, CODE
 50 .text.I2C_Read_Ack 0000000e  000031c2  000031c2  000032b6  2**1
                  CONTENTS, ALLOC, LOAD, READONLY, CODE
 51 .text.I2C_Read_Nack 0000000e  000031d0  000031d0  000032c4  2**1
                  CONTENTS, ALLOC, LOAD, READONLY, CODE
 52 .text.UART_init 00000010  00003192  00003192  00003286  2**1
                  CONTENTS, ALLOC, LOAD, READONLY, CODE
 53 .text.UART_send_byte 00000008  00003258  00003258  0000334c  2**1
                  CONTENTS, ALLOC, LOAD, READONLY, CODE
 54 .text.UART_send_string 0000002c  00002f0a  00002f0a  00002ffe  2**1
                  CONTENTS, ALLOC, LOAD, READONLY, CODE
 55 .progmemx.data 00000005  00000167  00000167  0000025b  2**0
                  CONTENTS, ALLOC, LOAD, READONLY, PROGMEMX
 56 .text.UART_send_float 0000006c  00002944  00002944  00002a38  2**1
                  CONTENTS, ALLOC, LOAD, READONLY, CODE
 57 .text.atan2f  0000028c  00001338  00001338  0000142c  2**1
                  CONTENTS, ALLOC, LOAD, READONLY, CODE
 58 .text.atanf   000002f0  00001048  00001048  0000113c  2**1
                  CONTENTS, ALLOC, LOAD, READONLY, CODE
 59 .progmemx.data.atanlo 00000010  00000131  00000131  00000225  2**0
                  CONTENTS, ALLOC, LOAD, READONLY, PROGMEMX
 60 .progmemx.data.atanhi 00000010  00000141  00000141  00000235  2**0
                  CONTENTS, ALLOC, LOAD, READONLY, PROGMEMX
 61 .text         0000000e  000031de  000031de  000032d2  2**1
                  CONTENTS, ALLOC, LOAD, READONLY, CODE
 62 .text         000000ce  000024a6  000024a6  0000259a  2**1
                  CONTENTS, ALLOC, LOAD, READONLY, CODE
 63 .text         0000000a  0000323c  0000323c  00003330  2**1
                  CONTENTS, ALLOC, LOAD, READONLY, CODE
 64 .text         00000008  00003260  00003260  00003354  2**1
                  CONTENTS, ALLOC, LOAD, READONLY, CODE
 65 .text         000000de  0000221c  0000221c  00002310  2**1
                  CONTENTS, ALLOC, LOAD, READONLY, CODE
 66 .text         0000000e  000031ec  000031ec  000032e0  2**1
                  CONTENTS, ALLOC, LOAD, READONLY, CODE
 67 .text         0000005e  00002a82  00002a82  00002b76  2**1
                  CONTENTS, ALLOC, LOAD, READONLY, CODE
 68 .text         0000007a  0000285e  0000285e  00002952  2**1
                  CONTENTS, ALLOC, LOAD, READONLY, CODE
 69 .text         00000048  00002bda  00002bda  00002cce  2**1
                  CONTENTS, ALLOC, LOAD, READONLY, CODE
 70 .text         0000000c  00003230  00003230  00003324  2**1
                  CONTENTS, ALLOC, LOAD, READONLY, CODE
 71 .text         00000006  00003270  00003270  00003364  2**1
                  CONTENTS, ALLOC, LOAD, READONLY, CODE
 72 .text         0000000e  000031fa  000031fa  000032ee  2**1
                  CONTENTS, ALLOC, LOAD, READONLY, CODE
 73 .text         0000000e  00003208  00003208  000032fc  2**1
                  CONTENTS, ALLOC, LOAD, READONLY, CODE
 74 .text         00000022  00003048  00003048  0000313c  2**1
                  CONTENTS, ALLOC, LOAD, READONLY, CODE
 75 .text         00000044  00002c22  00002c22  00002d16  2**1
                  CONTENTS, ALLOC, LOAD, READONLY, CODE
 76 .text         0000000e  00003216  00003216  0000330a  2**1
                  CONTENTS, ALLOC, LOAD, READONLY, CODE
 77 .text         0000000a  00003246  00003246  0000333a  2**1
                  CONTENTS, ALLOC, LOAD, READONLY, CODE
 78 .text         00000008  00003268  00003268  0000335c  2**1
                  CONTENTS, ALLOC, LOAD, READONLY, CODE
 79 .text         000000d4  000023d2  000023d2  000024c6  2**1
                  CONTENTS, ALLOC, LOAD, READONLY, CODE
 80 .text.fabsf   00000004  0000328c  0000328c  00003380  2**1
                  CONTENTS, ALLOC, LOAD, READONLY, CODE
 81 .text.libgcc.div 00000044  00002c66  00002c66  00002d5a  2**1
                  CONTENTS, ALLOC, LOAD, READONLY, CODE
 82 .text.libgcc.div 0000002e  00002edc  00002edc  00002fd0  2**1
                  CONTENTS, ALLOC, LOAD, READONLY, CODE
 83 .text.libgcc.div 00000010  000031a2  000031a2  00003296  2**1
                  CONTENTS, ALLOC, LOAD, READONLY, CODE
 84 .text.libgcc.prologue 00000038  00002dd4  00002dd4  00002ec8  2**1
                  CONTENTS, ALLOC, LOAD, READONLY, CODE
 85 .text.libgcc.prologue 00000036  00002e42  00002e42  00002f36  2**1
                  CONTENTS, ALLOC, LOAD, READONLY, CODE
 86 .text.libgcc  00000018  000030d2  000030d2  000031c6  2**1
                  CONTENTS, ALLOC, LOAD, READONLY, CODE
 87 .text.__dummy_fini 00000002  00003294  00003294  00003388  2**1
                  CONTENTS, ALLOC, LOAD, READONLY, CODE
 88 .text.__dummy_funcs_on_exit 00000002  00003296  00003296  0000338a  2**1
                  CONTENTS, ALLOC, LOAD, READONLY, CODE
 89 .text.__dummy_simulator_exit 00000002  00003298  00003298  0000338c  2**1
                  CONTENTS, ALLOC, LOAD, READONLY, CODE
 90 .text.exit    00000016  00003132  00003132  00003226  2**1
                  CONTENTS, ALLOC, LOAD, READONLY, CODE
 91 .text.__wrap_snprintf 0000002a  00002f62  00002f62  00003056  2**1
                  CONTENTS, ALLOC, LOAD, READONLY, CODE
 92 .text.__wrap_sprintf 00000026  00002fdc  00002fdc  000030d0  2**1
                  CONTENTS, ALLOC, LOAD, READONLY, CODE
 93 .text.__vsnprintf 000000a4  00002574  00002574  00002668  2**1
                  CONTENTS, ALLOC, LOAD, READONLY, CODE
 94 .progmemx.data 00000010  00000151  00000151  00000245  2**0
                  CONTENTS, ALLOC, LOAD, READONLY, PROGMEMX
 95 .text.__fmt_fp 000006ba  0000098e  0000098e  00000a82  2**1
                  CONTENTS, ALLOC, LOAD, READONLY, CODE
 96 .text.__out   00000068  00002a1a  00002a1a  00002b0e  2**1
                  CONTENTS, ALLOC, LOAD, READONLY, CODE
 97 .text.__pad   0000010e  00001f1e  00001f1e  00002012  2**1
                  CONTENTS, ALLOC, LOAD, READONLY, CODE
 98 .text.__dummy_fmt3 00000006  00003276  00003276  0000336a  2**1
                  CONTENTS, ALLOC, LOAD, READONLY, CODE
 99 .text.__dummy_fmt4 00000006  0000327c  0000327c  00003370  2**1
                  CONTENTS, ALLOC, LOAD, READONLY, CODE
100 .text.__dummy_fmts 00000006  00003282  00003282  00003376  2**1
                  CONTENTS, ALLOC, LOAD, READONLY, CODE
101 .text.__fmt_state 0000009e  00002618  00002618  0000270c  2**1
                  CONTENTS, ALLOC, LOAD, READONLY, CODE
102 .progmemx.data 00000006  00000161  00000161  00000255  2**0
                  CONTENTS, ALLOC, LOAD, READONLY, PROGMEMX
103 .text.__printf_core 00000822  0000016c  0000016c  00000260  2**1
                  CONTENTS, ALLOC, LOAD, READONLY, CODE
104 .progmemx.data.state_table 00000016  0000011b  0000011b  0000020f  2**0
                  CONTENTS, ALLOC, LOAD, READONLY, PROGMEMX
105 .text.fputc   00000092  000026b6  000026b6  000027aa  2**1
                  CONTENTS, ALLOC, LOAD, READONLY, CODE
106 .text.__pop_float 00000040  00002caa  00002caa  00002d9e  2**1
                  CONTENTS, ALLOC, LOAD, READONLY, CODE
107 .text.__pop_int 00000172  000019f8  000019f8  00001aec  2**1
                  CONTENTS, ALLOC, LOAD, READONLY, CODE
108 .text.__pop_ptr 000000d8  000022fa  000022fa  000023ee  2**1
                  CONTENTS, ALLOC, LOAD, READONLY, CODE
109 .text.atoi    00000090  00002748  00002748  0000283c  2**1
                  CONTENTS, ALLOC, LOAD, READONLY, CODE
110 .text.memset  00000012  00003180  00003180  00003274  2**1
                  CONTENTS, ALLOC, LOAD, READONLY, CODE
111 .text.strcpy  0000001c  0000306a  0000306a  0000315e  2**1
                  CONTENTS, ALLOC, LOAD, READONLY, CODE
112 .text.strlen  0000002c  00002f36  00002f36  0000302a  2**1
                  CONTENTS, ALLOC, LOAD, READONLY, CODE
113 .text.tolower 00000010  000031b2  000031b2  000032a6  2**1
                  CONTENTS, ALLOC, LOAD, READONLY, CODE
114 .text._Exit   00000004  00003290  00003290  00003384  2**1
                  CONTENTS, ALLOC, LOAD, READONLY, CODE
115 .text.__vfprintf 00000030  00002eac  00002eac  00002fa0  2**1
                  CONTENTS, ALLOC, LOAD, READONLY, CODE
116 .text.__vsprintf 00000018  000030ea  000030ea  000031de  2**1
                  CONTENTS, ALLOC, LOAD, READONLY, CODE
117 .text.libgcc.div 00000028  00002f8c  00002f8c  00003080  2**1
                  CONTENTS, ALLOC, LOAD, READONLY, CODE
118 .text.libgcc  0000001a  000030a0  000030a0  00003194  2**1
                  CONTENTS, ALLOC, LOAD, READONLY, CODE
119 .text.libgcc  00000018  00003102  00003102  000031f6  2**1
                  CONTENTS, ALLOC, LOAD, READONLY, CODE
120 .text.libgcc.div 00000028  00002fb4  00002fb4  000030a8  2**1
                  CONTENTS, ALLOC, LOAD, READONLY, CODE
121 .text.floorf  00000132  00001dec  00001dec  00001ee0  2**1
                  CONTENTS, ALLOC, LOAD, READONLY, CODE
122 .text.fmaf    0000013c  00001cb0  00001cb0  00001da4  2**1
                  CONTENTS, ALLOC, LOAD, READONLY, CODE
123 .text.libgcc.builtins 0000003c  00002cea  00002cea  00002dde  2**1
                  CONTENTS, ALLOC, LOAD, READONLY, CODE
124 .text.libgcc  00000018  0000311a  0000311a  0000320e  2**1
                  CONTENTS, ALLOC, LOAD, READONLY, CODE

Disassembly of section .text:

00000000 <__vectors>:
   0:	0c 94 36 00 	jmp	0x6c	; 0x6c <__ctors_end>
   4:	0c 94 44 19 	jmp	0x3288	; 0x3288 <__bad_interrupt>
   8:	0c 94 44 19 	jmp	0x3288	; 0x3288 <__bad_interrupt>
   c:	0c 94 44 19 	jmp	0x3288	; 0x3288 <__bad_interrupt>
  10:	0c 94 44 19 	jmp	0x3288	; 0x3288 <__bad_interrupt>
  14:	0c 94 44 19 	jmp	0x3288	; 0x3288 <__bad_interrupt>
  18:	0c 94 44 19 	jmp	0x3288	; 0x3288 <__bad_interrupt>
  1c:	0c 94 44 19 	jmp	0x3288	; 0x3288 <__bad_interrupt>
  20:	0c 94 44 19 	jmp	0x3288	; 0x3288 <__bad_interrupt>
  24:	0c 94 44 19 	jmp	0x3288	; 0x3288 <__bad_interrupt>
  28:	0c 94 44 19 	jmp	0x3288	; 0x3288 <__bad_interrupt>
  2c:	0c 94 44 19 	jmp	0x3288	; 0x3288 <__bad_interrupt>
  30:	0c 94 44 19 	jmp	0x3288	; 0x3288 <__bad_interrupt>
  34:	0c 94 44 19 	jmp	0x3288	; 0x3288 <__bad_interrupt>
  38:	0c 94 44 19 	jmp	0x3288	; 0x3288 <__bad_interrupt>
  3c:	0c 94 44 19 	jmp	0x3288	; 0x3288 <__bad_interrupt>
  40:	0c 94 44 19 	jmp	0x3288	; 0x3288 <__bad_interrupt>
  44:	0c 94 44 19 	jmp	0x3288	; 0x3288 <__bad_interrupt>
  48:	0c 94 44 19 	jmp	0x3288	; 0x3288 <__bad_interrupt>
  4c:	0c 94 44 19 	jmp	0x3288	; 0x3288 <__bad_interrupt>
  50:	0c 94 44 19 	jmp	0x3288	; 0x3288 <__bad_interrupt>

00000054 <.dinit>:
  54:	00 60       	ori	r16, 0x00	; 0
  56:	00 96       	adiw	r24, 0x00	; 0
  58:	80 00       	.word	0x0080	; ????
  5a:	96 00       	.word	0x0096	; ????
  5c:	9e 00       	.word	0x009e	; ????
  5e:	32 9a       	sbi	0x06, 2	; 6
  60:	00 9e       	mul	r0, r16
  62:	00 ab       	std	Z+48, r16	; 0x30
  64:	80 00       	.word	0x0080	; ????
  66:	ab 00       	.word	0x00ab	; ????
  68:	ac 00       	.word	0x00ac	; ????
  6a:	32 a2       	std	Z+34, r3	; 0x22

0000006c <__ctors_end>:
  6c:	11 24       	eor	r1, r1
  6e:	1f be       	out	0x3f, r1	; 63
  70:	cf e5       	ldi	r28, 0x5F	; 95
  72:	d8 e0       	ldi	r29, 0x08	; 8
  74:	de bf       	out	0x3e, r29	; 62
  76:	cd bf       	out	0x3d, r28	; 61

00000078 <__do_copy_data>:
  78:	e4 e5       	ldi	r30, 0x54	; 84
  7a:	f0 e0       	ldi	r31, 0x00	; 0
  7c:	40 e0       	ldi	r20, 0x00	; 0
  7e:	17 c0       	rjmp	.+46     	; 0xae <__do_clear_bss+0x8>
  80:	b5 91       	lpm	r27, Z+
  82:	a5 91       	lpm	r26, Z+
  84:	35 91       	lpm	r19, Z+
  86:	25 91       	lpm	r18, Z+
  88:	05 91       	lpm	r16, Z+
  8a:	07 fd       	sbrc	r16, 7
  8c:	0c c0       	rjmp	.+24     	; 0xa6 <__do_clear_bss>
  8e:	95 91       	lpm	r25, Z+
  90:	85 91       	lpm	r24, Z+
  92:	ef 01       	movw	r28, r30
  94:	f9 2f       	mov	r31, r25
  96:	e8 2f       	mov	r30, r24
  98:	05 90       	lpm	r0, Z+
  9a:	0d 92       	st	X+, r0
  9c:	a2 17       	cp	r26, r18
  9e:	b3 07       	cpc	r27, r19
  a0:	d9 f7       	brne	.-10     	; 0x98 <__do_copy_data+0x20>
  a2:	fe 01       	movw	r30, r28
  a4:	04 c0       	rjmp	.+8      	; 0xae <__do_clear_bss+0x8>

000000a6 <__do_clear_bss>:
  a6:	1d 92       	st	X+, r1
  a8:	a2 17       	cp	r26, r18
  aa:	b3 07       	cpc	r27, r19
  ac:	e1 f7       	brne	.-8      	; 0xa6 <__do_clear_bss>
  ae:	ec 36       	cpi	r30, 0x6C	; 108
  b0:	f4 07       	cpc	r31, r20
  b2:	31 f7       	brne	.-52     	; 0x80 <__do_copy_data+0x8>
  b4:	0e 94 17 0c 	call	0x182e	; 0x182e <main>
  b8:	0c 94 99 18 	jmp	0x3132	; 0x3132 <exit>

000000bc <_exit>:
  bc:	f8 94       	cli

000000be <__stop_program>:
  be:	ff cf       	rjmp	.-2      	; 0xbe <__stop_program>

Disassembly of section .text:

00003288 <__bad_interrupt>:
    3288:	0c 94 00 00 	jmp	0	; 0x0 <__TEXT_REGION_ORIGIN__>

Disassembly of section .text.Magneto_init:

000030ba <Magneto_init>:
#define QMC5883L_ADDR 0x0D
#define QMC5883L_REG_CONFIG 0x09
#define QMC5883L_REG_DATA 0x00

void Magneto_init() {
	I2C_Start(QMC5883L_ADDR << 1);			// Start and write SLA+W
    30ba:	8a e1       	ldi	r24, 0x1A	; 26
    30bc:	0e 94 b0 16 	call	0x2d60	; 0x2d60 <I2C_Start>
	I2C_Write(QMC5883L_REG_CONFIG);         // Write memory location address
    30c0:	89 e0       	ldi	r24, 0x09	; 9
    30c2:	0e 94 01 18 	call	0x3002	; 0x3002 <I2C_Write>
	I2C_Write(0x1D);						// Configure register A, set output data rate to 200Hz, set measurement range to 8G, set mode to continuous measurement
    30c6:	8d e1       	ldi	r24, 0x1D	; 29
    30c8:	0e 94 01 18 	call	0x3002	; 0x3002 <I2C_Write>
	I2C_Stop();                             // Stop I2C
    30cc:	0e 94 12 19 	call	0x3224	; 0x3224 <I2C_Stop>
    30d0:	08 95       	ret

Disassembly of section .text.Magneto_GetHeading:

0000202c <Magneto_GetHeading>:
}

char string[100]; //for printing

int Magneto_GetHeading() {
    202c:	cf 92       	push	r12
    202e:	df 92       	push	r13
    2030:	ef 92       	push	r14
    2032:	ff 92       	push	r15
    2034:	0f 93       	push	r16
    2036:	1f 93       	push	r17
    2038:	cf 93       	push	r28
    203a:	df 93       	push	r29
	int x, y, z;
	double Heading;
	I2C_Start_Wait(QMC5883L_ADDR << 1);      // Start and wait for acknowledgment
    203c:	8a e1       	ldi	r24, 0x1A	; 26
    203e:	0e 94 3c 17 	call	0x2e78	; 0x2e78 <I2C_Start_Wait>
	I2C_Write(QMC5883L_REG_DATA);            // Write X register address
    2042:	80 e0       	ldi	r24, 0x00	; 0
    2044:	0e 94 01 18 	call	0x3002	; 0x3002 <I2C_Write>
	I2C_Repeated_Start(QMC5883L_ADDR << 1 | 1); // Generate repeat start condition with SLA+R
    2048:	8b e1       	ldi	r24, 0x1B	; 27
    204a:	0e 94 cd 16 	call	0x2d9a	; 0x2d9a <I2C_Repeated_Start>
	/* Read 16 bit x,y,z value (2’s complement form) */
	x = (((int)I2C_Read_Ack()<<8) | (int)I2C_Read_Ack());
    204e:	0e 94 e1 18 	call	0x31c2	; 0x31c2 <I2C_Read_Ack>
    2052:	c8 2f       	mov	r28, r24
    2054:	d0 e0       	ldi	r29, 0x00	; 0
    2056:	dc 2f       	mov	r29, r28
    2058:	cc 27       	eor	r28, r28
    205a:	0e 94 e1 18 	call	0x31c2	; 0x31c2 <I2C_Read_Ack>
    205e:	c8 2b       	or	r28, r24
	z = (((int)I2C_Read_Ack()<<8) | (int)I2C_Read_Ack());
    2060:	0e 94 e1 18 	call	0x31c2	; 0x31c2 <I2C_Read_Ack>
    2064:	0e 94 e1 18 	call	0x31c2	; 0x31c2 <I2C_Read_Ack>
	y = (((int)I2C_Read_Ack()<<8) | (int)I2C_Read_Nack());
    2068:	0e 94 e1 18 	call	0x31c2	; 0x31c2 <I2C_Read_Ack>
    206c:	08 2f       	mov	r16, r24
    206e:	10 e0       	ldi	r17, 0x00	; 0
    2070:	10 2f       	mov	r17, r16
    2072:	00 27       	eor	r16, r16
    2074:	0e 94 e8 18 	call	0x31d0	; 0x31d0 <I2C_Read_Nack>
    2078:	08 2b       	or	r16, r24

	
	
	I2C_Stop();                             // Stop I2C
    207a:	0e 94 12 19 	call	0x3224	; 0x3224 <I2C_Stop>
	Heading = atan2((double)y, (double)x) + Declination; // Calculate heading
    207e:	be 01       	movw	r22, r28
    2080:	dd 0f       	add	r29, r29
    2082:	88 0b       	sbc	r24, r24
    2084:	99 0b       	sbc	r25, r25
    2086:	0e 94 31 14 	call	0x2862	; 0x2862 <__floatsisf>
    208a:	6b 01       	movw	r12, r22
    208c:	7c 01       	movw	r14, r24
    208e:	b8 01       	movw	r22, r16
    2090:	11 0f       	add	r17, r17
    2092:	88 0b       	sbc	r24, r24
    2094:	99 0b       	sbc	r25, r25
    2096:	0e 94 31 14 	call	0x2862	; 0x2862 <__floatsisf>
    209a:	a7 01       	movw	r20, r14
    209c:	96 01       	movw	r18, r12
    209e:	0e 94 9c 09 	call	0x1338	; 0x1338 <atan2f>
    20a2:	29 e3       	ldi	r18, 0x39	; 57
    20a4:	3a ef       	ldi	r19, 0xFA	; 250
    20a6:	4e e8       	ldi	r20, 0x8E	; 142
    20a8:	5d e3       	ldi	r21, 0x3D	; 61
    20aa:	0e 94 f0 18 	call	0x31e0	; 0x31e0 <__addsf3>
    20ae:	6b 01       	movw	r12, r22
    20b0:	7c 01       	movw	r14, r24
	if (Heading > 2*PI)                      // Due to declination check for >360 degree
    20b2:	2b ed       	ldi	r18, 0xDB	; 219
    20b4:	3f e0       	ldi	r19, 0x0F	; 15
    20b6:	49 ec       	ldi	r20, 0xC9	; 201
    20b8:	50 e4       	ldi	r21, 0x40	; 64
    20ba:	0e 94 23 19 	call	0x3246	; 0x3246 <__gesf2>
    20be:	18 16       	cp	r1, r24
    20c0:	54 f4       	brge	.+20     	; 0x20d6 <Magneto_GetHeading+0xaa>
	Heading = Heading - 2*PI;
    20c2:	2b ed       	ldi	r18, 0xDB	; 219
    20c4:	3f e0       	ldi	r19, 0x0F	; 15
    20c6:	49 ec       	ldi	r20, 0xC9	; 201
    20c8:	50 e4       	ldi	r21, 0x40	; 64
    20ca:	c7 01       	movw	r24, r14
    20cc:	b6 01       	movw	r22, r12
    20ce:	0e 94 ef 18 	call	0x31de	; 0x31de <__subsf3>
    20d2:	6b 01       	movw	r12, r22
    20d4:	7c 01       	movw	r14, r24
	if (Heading < 0)                         // Check for sign
    20d6:	20 e0       	ldi	r18, 0x00	; 0
    20d8:	30 e0       	ldi	r19, 0x00	; 0
    20da:	a9 01       	movw	r20, r18
    20dc:	c7 01       	movw	r24, r14
    20de:	b6 01       	movw	r22, r12
    20e0:	0e 94 1e 19 	call	0x323c	; 0x323c <__cmpsf2>
    20e4:	88 23       	and	r24, r24
    20e6:	54 f4       	brge	.+20     	; 0x20fc <Magneto_GetHeading+0xd0>
	Heading = Heading + 2*PI;
    20e8:	2b ed       	ldi	r18, 0xDB	; 219
    20ea:	3f e0       	ldi	r19, 0x0F	; 15
    20ec:	49 ec       	ldi	r20, 0xC9	; 201
    20ee:	50 e4       	ldi	r21, 0x40	; 64
    20f0:	c7 01       	movw	r24, r14
    20f2:	b6 01       	movw	r22, r12
    20f4:	0e 94 f0 18 	call	0x31e0	; 0x31e0 <__addsf3>
    20f8:	6b 01       	movw	r12, r22
    20fa:	7c 01       	movw	r14, r24
*/	
	
	
	
	
	return (Heading * 180 / PI);             // Convert into angle and return
    20fc:	20 e0       	ldi	r18, 0x00	; 0
    20fe:	30 e0       	ldi	r19, 0x00	; 0
    2100:	44 e3       	ldi	r20, 0x34	; 52
    2102:	53 e4       	ldi	r21, 0x43	; 67
    2104:	c7 01       	movw	r24, r14
    2106:	b6 01       	movw	r22, r12
    2108:	0e 94 34 19 	call	0x3268	; 0x3268 <__mulsf3>
    210c:	2b ed       	ldi	r18, 0xDB	; 219
    210e:	3f e0       	ldi	r19, 0x0F	; 15
    2110:	49 e4       	ldi	r20, 0x49	; 73
    2112:	50 e4       	ldi	r21, 0x40	; 64
    2114:	0e 94 30 19 	call	0x3260	; 0x3260 <__divsf3>
    2118:	0e 94 f6 18 	call	0x31ec	; 0x31ec <__fixsfsi>
}
    211c:	cb 01       	movw	r24, r22
    211e:	df 91       	pop	r29
    2120:	cf 91       	pop	r28
    2122:	1f 91       	pop	r17
    2124:	0f 91       	pop	r16
    2126:	ff 90       	pop	r15
    2128:	ef 90       	pop	r14
    212a:	df 90       	pop	r13
    212c:	cf 90       	pop	r12
    212e:	08 95       	ret

Disassembly of section .text.hx711_read:

000029b0 <hx711_read>:
/**
 * get the actual scale
 */
double hx711_getscale() {
	return hx711_scale;
}
    29b0:	c8 99       	sbic	0x19, 0	; 25
    29b2:	fe cf       	rjmp	.-4      	; 0x29b0 <hx711_read>
    29b4:	f8 94       	cli
    29b6:	21 e0       	ldi	r18, 0x01	; 1
    29b8:	40 e0       	ldi	r20, 0x00	; 0
    29ba:	50 e0       	ldi	r21, 0x00	; 0
    29bc:	ba 01       	movw	r22, r20
    29be:	27 c0       	rjmp	.+78     	; 0x2a0e <hx711_read+0x5e>
    29c0:	8b b3       	in	r24, 0x1b	; 27
    29c2:	82 60       	ori	r24, 0x02	; 2
    29c4:	8b bb       	out	0x1b, r24	; 27
    29c6:	00 00       	nop
    29c8:	44 0f       	add	r20, r20
    29ca:	55 1f       	adc	r21, r21
    29cc:	66 1f       	adc	r22, r22
    29ce:	77 1f       	adc	r23, r23
    29d0:	8b b3       	in	r24, 0x1b	; 27
    29d2:	8d 7f       	andi	r24, 0xFD	; 253
    29d4:	8b bb       	out	0x1b, r24	; 27
    29d6:	00 00       	nop
    29d8:	c8 9b       	sbis	0x19, 0	; 25
    29da:	04 c0       	rjmp	.+8      	; 0x29e4 <hx711_read+0x34>
    29dc:	4f 5f       	subi	r20, 0xFF	; 255
    29de:	5f 4f       	sbci	r21, 0xFF	; 255
    29e0:	6f 4f       	sbci	r22, 0xFF	; 255
    29e2:	7f 4f       	sbci	r23, 0xFF	; 255
    29e4:	9f 5f       	subi	r25, 0xFF	; 255
    29e6:	01 c0       	rjmp	.+2      	; 0x29ea <hx711_read+0x3a>
    29e8:	90 e0       	ldi	r25, 0x00	; 0
    29ea:	98 31       	cpi	r25, 0x18	; 24
    29ec:	48 f3       	brcs	.-46     	; 0x29c0 <hx711_read+0x10>
    29ee:	60 58       	subi	r22, 0x80	; 128
    29f0:	90 e0       	ldi	r25, 0x00	; 0
    29f2:	08 c0       	rjmp	.+16     	; 0x2a04 <hx711_read+0x54>
    29f4:	8b b3       	in	r24, 0x1b	; 27
    29f6:	82 60       	ori	r24, 0x02	; 2
    29f8:	8b bb       	out	0x1b, r24	; 27
    29fa:	00 00       	nop
    29fc:	8b b3       	in	r24, 0x1b	; 27
    29fe:	8d 7f       	andi	r24, 0xFD	; 253
    2a00:	8b bb       	out	0x1b, r24	; 27
    2a02:	9f 5f       	subi	r25, 0xFF	; 255
    2a04:	80 91 aa 00 	lds	r24, 0x00AA	; 0x8000aa <hx711_gain>
    2a08:	20 e0       	ldi	r18, 0x00	; 0
    2a0a:	98 17       	cp	r25, r24
    2a0c:	98 f3       	brcs	.-26     	; 0x29f4 <hx711_read+0x44>
    2a0e:	21 11       	cpse	r18, r1
    2a10:	eb cf       	rjmp	.-42     	; 0x29e8 <hx711_read+0x38>
    2a12:	78 94       	sei
    2a14:	cb 01       	movw	r24, r22
    2a16:	ba 01       	movw	r22, r20
    2a18:	08 95       	ret

Disassembly of section .text.hx711_readaverage:

00002b8e <hx711_readaverage>:
    2b8e:	cf 92       	push	r12
    2b90:	df 92       	push	r13
    2b92:	ef 92       	push	r14
    2b94:	ff 92       	push	r15
    2b96:	cf 93       	push	r28
    2b98:	df 93       	push	r29
    2b9a:	d8 2f       	mov	r29, r24
    2b9c:	c0 e0       	ldi	r28, 0x00	; 0
    2b9e:	c1 2c       	mov	r12, r1
    2ba0:	d1 2c       	mov	r13, r1
    2ba2:	76 01       	movw	r14, r12
    2ba4:	07 c0       	rjmp	.+14     	; 0x2bb4 <hx711_readaverage+0x26>
    2ba6:	0e 94 d8 14 	call	0x29b0	; 0x29b0 <hx711_read>
    2baa:	c6 0e       	add	r12, r22
    2bac:	d7 1e       	adc	r13, r23
    2bae:	e8 1e       	adc	r14, r24
    2bb0:	f9 1e       	adc	r15, r25
    2bb2:	cf 5f       	subi	r28, 0xFF	; 255
    2bb4:	cd 17       	cp	r28, r29
    2bb6:	b8 f3       	brcs	.-18     	; 0x2ba6 <hx711_readaverage+0x18>
    2bb8:	2d 2f       	mov	r18, r29
    2bba:	30 e0       	ldi	r19, 0x00	; 0
    2bbc:	40 e0       	ldi	r20, 0x00	; 0
    2bbe:	50 e0       	ldi	r21, 0x00	; 0
    2bc0:	c7 01       	movw	r24, r14
    2bc2:	b6 01       	movw	r22, r12
    2bc4:	0e 94 6e 17 	call	0x2edc	; 0x2edc <__divmodsi4>
    2bc8:	ca 01       	movw	r24, r20
    2bca:	b9 01       	movw	r22, r18
    2bcc:	df 91       	pop	r29
    2bce:	cf 91       	pop	r28
    2bd0:	ff 90       	pop	r15
    2bd2:	ef 90       	pop	r14
    2bd4:	df 90       	pop	r13
    2bd6:	cf 90       	pop	r12
    2bd8:	08 95       	ret

Disassembly of section .text.hx711_readwithtare:

00002b3a <hx711_readwithtare>:
    2b3a:	8f 92       	push	r8
    2b3c:	9f 92       	push	r9
    2b3e:	af 92       	push	r10
    2b40:	bf 92       	push	r11
    2b42:	cf 92       	push	r12
    2b44:	df 92       	push	r13
    2b46:	ef 92       	push	r14
    2b48:	ff 92       	push	r15
    2b4a:	8a e0       	ldi	r24, 0x0A	; 10
    2b4c:	0e 94 c7 15 	call	0x2b8e	; 0x2b8e <hx711_readaverage>
    2b50:	4b 01       	movw	r8, r22
    2b52:	5c 01       	movw	r10, r24
    2b54:	60 91 8e 00 	lds	r22, 0x008E	; 0x80008e <_end>
    2b58:	70 91 8f 00 	lds	r23, 0x008F	; 0x80008f <_end+0x1>
    2b5c:	80 91 90 00 	lds	r24, 0x0090	; 0x800090 <_end+0x2>
    2b60:	90 91 91 00 	lds	r25, 0x0091	; 0x800091 <_end+0x3>
    2b64:	0e 94 31 14 	call	0x2862	; 0x2862 <__floatsisf>
    2b68:	6b 01       	movw	r12, r22
    2b6a:	7c 01       	movw	r14, r24
    2b6c:	c5 01       	movw	r24, r10
    2b6e:	b4 01       	movw	r22, r8
    2b70:	0e 94 31 14 	call	0x2862	; 0x2862 <__floatsisf>
    2b74:	a7 01       	movw	r20, r14
    2b76:	96 01       	movw	r18, r12
    2b78:	0e 94 ef 18 	call	0x31de	; 0x31de <__subsf3>
    2b7c:	ff 90       	pop	r15
    2b7e:	ef 90       	pop	r14
    2b80:	df 90       	pop	r13
    2b82:	cf 90       	pop	r12
    2b84:	bf 90       	pop	r11
    2b86:	af 90       	pop	r10
    2b88:	9f 90       	pop	r9
    2b8a:	8f 90       	pop	r8
    2b8c:	08 95       	ret

Disassembly of section .text.hx711_getweight:

00003086 <hx711_getweight>:
    3086:	0e 94 9d 15 	call	0x2b3a	; 0x2b3a <hx711_readwithtare>
    308a:	20 91 92 00 	lds	r18, 0x0092	; 0x800092 <hx711_scale>
    308e:	30 91 93 00 	lds	r19, 0x0093	; 0x800093 <hx711_scale+0x1>
    3092:	40 91 94 00 	lds	r20, 0x0094	; 0x800094 <hx711_scale+0x2>
    3096:	50 91 95 00 	lds	r21, 0x0095	; 0x800095 <hx711_scale+0x3>
    309a:	0e 94 30 19 	call	0x3260	; 0x3260 <__divsf3>
    309e:	08 95       	ret

Disassembly of section .text.hx711_setgain:

00002d26 <hx711_setgain>:
    2d26:	81 30       	cpi	r24, 0x01	; 1
    2d28:	91 05       	cpc	r25, r1
    2d2a:	21 f4       	brne	.+8      	; 0x2d34 <hx711_setgain+0xe>
    2d2c:	81 e0       	ldi	r24, 0x01	; 1
    2d2e:	80 93 aa 00 	sts	0x00AA, r24	; 0x8000aa <hx711_gain>
    2d32:	10 c0       	rjmp	.+32     	; 0x2d54 <hx711_setgain+0x2e>
    2d34:	83 30       	cpi	r24, 0x03	; 3
    2d36:	91 05       	cpc	r25, r1
    2d38:	21 f4       	brne	.+8      	; 0x2d42 <hx711_setgain+0x1c>
    2d3a:	83 e0       	ldi	r24, 0x03	; 3
    2d3c:	80 93 aa 00 	sts	0x00AA, r24	; 0x8000aa <hx711_gain>
    2d40:	09 c0       	rjmp	.+18     	; 0x2d54 <hx711_setgain+0x2e>
    2d42:	02 97       	sbiw	r24, 0x02	; 2
    2d44:	21 f4       	brne	.+8      	; 0x2d4e <hx711_setgain+0x28>
    2d46:	82 e0       	ldi	r24, 0x02	; 2
    2d48:	80 93 aa 00 	sts	0x00AA, r24	; 0x8000aa <hx711_gain>
    2d4c:	03 c0       	rjmp	.+6      	; 0x2d54 <hx711_setgain+0x2e>
    2d4e:	81 e0       	ldi	r24, 0x01	; 1
    2d50:	80 93 aa 00 	sts	0x00AA, r24	; 0x8000aa <hx711_gain>
    2d54:	8b b3       	in	r24, 0x1b	; 27
    2d56:	8d 7f       	andi	r24, 0xFD	; 253
    2d58:	8b bb       	out	0x1b, r24	; 27
    2d5a:	0e 94 d8 14 	call	0x29b0	; 0x29b0 <hx711_read>
    2d5e:	08 95       	ret

Disassembly of section .text.hx711_setscale:

0000315c <hx711_setscale>:
    315c:	60 93 92 00 	sts	0x0092, r22	; 0x800092 <hx711_scale>
    3160:	70 93 93 00 	sts	0x0093, r23	; 0x800093 <hx711_scale+0x1>
    3164:	80 93 94 00 	sts	0x0094, r24	; 0x800094 <hx711_scale+0x2>
    3168:	90 93 95 00 	sts	0x0095, r25	; 0x800095 <hx711_scale+0x3>
    316c:	08 95       	ret

Disassembly of section .text.hx711_setoffset:

0000316e <hx711_setoffset>:

/**
 * set the offset raw value
 */
void hx711_setoffset(int32_t offset) {
	hx711_offset = offset;
    316e:	60 93 8e 00 	sts	0x008E, r22	; 0x80008e <_end>
    3172:	70 93 8f 00 	sts	0x008F, r23	; 0x80008f <_end+0x1>
    3176:	80 93 90 00 	sts	0x0090, r24	; 0x800090 <_end+0x2>
    317a:	90 93 91 00 	sts	0x0091, r25	; 0x800091 <_end+0x3>
    317e:	08 95       	ret

Disassembly of section .text.hx711_init:

00002ae0 <hx711_init>:
/**
 * get the actual scale
 */
double hx711_getscale() {
	return hx711_scale;
}
    2ae0:	8f 92       	push	r8
    2ae2:	9f 92       	push	r9
    2ae4:	af 92       	push	r10
    2ae6:	bf 92       	push	r11
    2ae8:	cf 92       	push	r12
    2aea:	df 92       	push	r13
    2aec:	ef 92       	push	r14
    2aee:	ff 92       	push	r15
    2af0:	0f 93       	push	r16
    2af2:	1f 93       	push	r17
    2af4:	4a 01       	movw	r8, r20
    2af6:	5b 01       	movw	r10, r22
    2af8:	68 01       	movw	r12, r16
    2afa:	79 01       	movw	r14, r18
    2afc:	9a b3       	in	r25, 0x1a	; 26
    2afe:	92 60       	ori	r25, 0x02	; 2
    2b00:	9a bb       	out	0x1a, r25	; 26
    2b02:	9b b3       	in	r25, 0x1b	; 27
    2b04:	9d 7f       	andi	r25, 0xFD	; 253
    2b06:	9b bb       	out	0x1b, r25	; 27
    2b08:	9a b3       	in	r25, 0x1a	; 26
    2b0a:	9e 7f       	andi	r25, 0xFE	; 254
    2b0c:	9a bb       	out	0x1a, r25	; 26
    2b0e:	90 e0       	ldi	r25, 0x00	; 0
    2b10:	0e 94 93 16 	call	0x2d26	; 0x2d26 <hx711_setgain>
    2b14:	c5 01       	movw	r24, r10
    2b16:	b4 01       	movw	r22, r8
    2b18:	0e 94 ae 18 	call	0x315c	; 0x315c <hx711_setscale>
    2b1c:	c7 01       	movw	r24, r14
    2b1e:	b6 01       	movw	r22, r12
    2b20:	0e 94 b7 18 	call	0x316e	; 0x316e <hx711_setoffset>
    2b24:	1f 91       	pop	r17
    2b26:	0f 91       	pop	r16
    2b28:	ff 90       	pop	r15
    2b2a:	ef 90       	pop	r14
    2b2c:	df 90       	pop	r13
    2b2e:	cf 90       	pop	r12
    2b30:	bf 90       	pop	r11
    2b32:	af 90       	pop	r10
    2b34:	9f 90       	pop	r9
    2b36:	8f 90       	pop	r8
    2b38:	08 95       	ret

Disassembly of section .text.HX711_main_function:

00002e0c <HX711_main_function>:
    2e0c:	0f 93       	push	r16
    2e0e:	1f 93       	push	r17
    2e10:	00 91 9a 00 	lds	r16, 0x009A	; 0x80009a <offset>
    2e14:	10 91 9b 00 	lds	r17, 0x009B	; 0x80009b <offset+0x1>
    2e18:	20 91 9c 00 	lds	r18, 0x009C	; 0x80009c <offset+0x2>
    2e1c:	30 91 9d 00 	lds	r19, 0x009D	; 0x80009d <offset+0x3>
    2e20:	40 91 96 00 	lds	r20, 0x0096	; 0x800096 <scale>
    2e24:	50 91 97 00 	lds	r21, 0x0097	; 0x800097 <scale+0x1>
    2e28:	60 91 98 00 	lds	r22, 0x0098	; 0x800098 <scale+0x2>
    2e2c:	70 91 99 00 	lds	r23, 0x0099	; 0x800099 <scale+0x3>
    2e30:	80 91 ab 00 	lds	r24, 0x00AB	; 0x8000ab <gain>
    2e34:	0e 94 70 15 	call	0x2ae0	; 0x2ae0 <hx711_init>
    2e38:	0e 94 43 18 	call	0x3086	; 0x3086 <hx711_getweight>
    2e3c:	1f 91       	pop	r17
    2e3e:	0f 91       	pop	r16
    2e40:	08 95       	ret

Disassembly of section .text.IR_Triggered:

00003026 <IR_Triggered>:
    3026:	40 e0       	ldi	r20, 0x00	; 0
    3028:	67 e0       	ldi	r22, 0x07	; 7
    302a:	82 e0       	ldi	r24, 0x02	; 2
    302c:	0e 94 98 10 	call	0x2130	; 0x2130 <DIO_voidSetPinDirection>
    3030:	67 e0       	ldi	r22, 0x07	; 7
    3032:	82 e0       	ldi	r24, 0x02	; 2
    3034:	0e 94 6c 14 	call	0x28d8	; 0x28d8 <DIO_u8GetPinValue>
    3038:	81 11       	cpse	r24, r1
    303a:	03 c0       	rjmp	.+6      	; 0x3042 <IR_Triggered+0x1c>
    303c:	81 e0       	ldi	r24, 0x01	; 1
    303e:	90 e0       	ldi	r25, 0x00	; 0
    3040:	08 95       	ret
    3042:	80 e0       	ldi	r24, 0x00	; 0
    3044:	90 e0       	ldi	r25, 0x00	; 0
    3046:	08 95       	ret

Disassembly of section .text.MPU6050_Init:

000027d8 <MPU6050_Init>:
float Xg=0,Yg=0,Zg=0;		/*	Real Values	*/


void MPU6050_Init()										/* Gyro initialization function */
{
	I2C_Init();
    27d8:	0e 94 28 19 	call	0x3250	; 0x3250 <I2C_Init>
	#else
		//round up by default
		__ticks_dc = (uint32_t)(ceil(fabs(__tmp)));
	#endif

	__builtin_avr_delay_cycles(__ticks_dc);
    27dc:	2f e7       	ldi	r18, 0x7F	; 127
    27de:	89 ea       	ldi	r24, 0xA9	; 169
    27e0:	93 e0       	ldi	r25, 0x03	; 3
    27e2:	21 50       	subi	r18, 0x01	; 1
    27e4:	80 40       	sbci	r24, 0x00	; 0
    27e6:	90 40       	sbci	r25, 0x00	; 0
    27e8:	e1 f7       	brne	.-8      	; 0x27e2 <MPU6050_Init+0xa>
    27ea:	00 c0       	rjmp	.+0      	; 0x27ec <MPU6050_Init+0x14>
    27ec:	00 00       	nop

	_delay_ms(150);										/* Power up time >100ms */
	
	I2C_Start_Wait(0xD0);								/* Start with device write address */
    27ee:	80 ed       	ldi	r24, 0xD0	; 208
    27f0:	0e 94 3c 17 	call	0x2e78	; 0x2e78 <I2C_Start_Wait>

	I2C_Write(SMPLRT_DIV);								/* Write to sample rate register */
    27f4:	89 e1       	ldi	r24, 0x19	; 25
    27f6:	0e 94 01 18 	call	0x3002	; 0x3002 <I2C_Write>
	I2C_Write(0x07);									/* 1KHz sample rate */
    27fa:	87 e0       	ldi	r24, 0x07	; 7
    27fc:	0e 94 01 18 	call	0x3002	; 0x3002 <I2C_Write>
	I2C_Stop();
    2800:	0e 94 12 19 	call	0x3224	; 0x3224 <I2C_Stop>


	I2C_Start_Wait(0xD0);
    2804:	80 ed       	ldi	r24, 0xD0	; 208
    2806:	0e 94 3c 17 	call	0x2e78	; 0x2e78 <I2C_Start_Wait>
	I2C_Write(PWR_MGMT_1);								/* Write to power management register */
    280a:	8b e6       	ldi	r24, 0x6B	; 107
    280c:	0e 94 01 18 	call	0x3002	; 0x3002 <I2C_Write>
	I2C_Write(0x01);									/* X axis gyroscope reference frequency */
    2810:	81 e0       	ldi	r24, 0x01	; 1
    2812:	0e 94 01 18 	call	0x3002	; 0x3002 <I2C_Write>
	I2C_Stop();
    2816:	0e 94 12 19 	call	0x3224	; 0x3224 <I2C_Stop>

	I2C_Start_Wait(0xD0);
    281a:	80 ed       	ldi	r24, 0xD0	; 208
    281c:	0e 94 3c 17 	call	0x2e78	; 0x2e78 <I2C_Start_Wait>
	I2C_Write(CONFIG);									/* Write to Configuration register */
    2820:	8a e1       	ldi	r24, 0x1A	; 26
    2822:	0e 94 01 18 	call	0x3002	; 0x3002 <I2C_Write>
	I2C_Write(0x00);									/* Fs = 8KHz */
    2826:	80 e0       	ldi	r24, 0x00	; 0
    2828:	0e 94 01 18 	call	0x3002	; 0x3002 <I2C_Write>
	I2C_Stop();
    282c:	0e 94 12 19 	call	0x3224	; 0x3224 <I2C_Stop>

	I2C_Start_Wait(0xD0);
    2830:	80 ed       	ldi	r24, 0xD0	; 208
    2832:	0e 94 3c 17 	call	0x2e78	; 0x2e78 <I2C_Start_Wait>
	I2C_Write(GYRO_CONFIG);								/* Write to Gyro configuration register */
    2836:	8b e1       	ldi	r24, 0x1B	; 27
    2838:	0e 94 01 18 	call	0x3002	; 0x3002 <I2C_Write>
	I2C_Write(0x18);									/* Full scale range +/- 2000 degree/C */
    283c:	88 e1       	ldi	r24, 0x18	; 24
    283e:	0e 94 01 18 	call	0x3002	; 0x3002 <I2C_Write>
	I2C_Stop();
    2842:	0e 94 12 19 	call	0x3224	; 0x3224 <I2C_Stop>

	I2C_Start_Wait(0xD0);
    2846:	80 ed       	ldi	r24, 0xD0	; 208
    2848:	0e 94 3c 17 	call	0x2e78	; 0x2e78 <I2C_Start_Wait>
	I2C_Write(INT_ENABLE);								/* Write to interrupt enable register */
    284c:	88 e3       	ldi	r24, 0x38	; 56
    284e:	0e 94 01 18 	call	0x3002	; 0x3002 <I2C_Write>
	I2C_Write(0x01);
    2852:	81 e0       	ldi	r24, 0x01	; 1
    2854:	0e 94 01 18 	call	0x3002	; 0x3002 <I2C_Write>
	I2C_Stop();
    2858:	0e 94 12 19 	call	0x3224	; 0x3224 <I2C_Stop>
    285c:	08 95       	ret

Disassembly of section .text.MPU_Start_Loc:

00003148 <MPU_Start_Loc>:
}

void MPU_Start_Loc()
{
	I2C_Start_Wait(0xD0);								/* I2C start with device write address */
    3148:	80 ed       	ldi	r24, 0xD0	; 208
    314a:	0e 94 3c 17 	call	0x2e78	; 0x2e78 <I2C_Start_Wait>
	I2C_Write(ACCEL_XOUT_H);							/* Write start location address from where to read */
    314e:	8b e3       	ldi	r24, 0x3B	; 59
    3150:	0e 94 01 18 	call	0x3002	; 0x3002 <I2C_Write>
	I2C_Repeated_Start(0xD1);							/* I2C start with device read address */
    3154:	81 ed       	ldi	r24, 0xD1	; 209
    3156:	0e 94 cd 16 	call	0x2d9a	; 0x2d9a <I2C_Repeated_Start>
    315a:	08 95       	ret

Disassembly of section .text.Read_RawValue:

000015c4 <Read_RawValue>:
}

void Read_RawValue()
{
    15c4:	cf 93       	push	r28
    15c6:	df 93       	push	r29
	MPU_Start_Loc();		/* Read Gyro values */
    15c8:	0e 94 a4 18 	call	0x3148	; 0x3148 <MPU_Start_Loc>
	Acc_x = (((int)I2C_Read_Ack()<<8) | (int)I2C_Read_Ack());
    15cc:	0e 94 e1 18 	call	0x31c2	; 0x31c2 <I2C_Read_Ack>
    15d0:	c8 2f       	mov	r28, r24
    15d2:	d0 e0       	ldi	r29, 0x00	; 0
    15d4:	dc 2f       	mov	r29, r28
    15d6:	cc 27       	eor	r28, r28
    15d8:	0e 94 e1 18 	call	0x31c2	; 0x31c2 <I2C_Read_Ack>
    15dc:	be 01       	movw	r22, r28
    15de:	68 2b       	or	r22, r24
    15e0:	07 2e       	mov	r0, r23
    15e2:	00 0c       	add	r0, r0
    15e4:	88 0b       	sbc	r24, r24
    15e6:	99 0b       	sbc	r25, r25
    15e8:	0e 94 31 14 	call	0x2862	; 0x2862 <__floatsisf>
    15ec:	60 93 78 00 	sts	0x0078, r22	; 0x800078 <Acc_x>
    15f0:	70 93 79 00 	sts	0x0079, r23	; 0x800079 <Acc_x+0x1>
    15f4:	80 93 7a 00 	sts	0x007A, r24	; 0x80007a <Acc_x+0x2>
    15f8:	90 93 7b 00 	sts	0x007B, r25	; 0x80007b <Acc_x+0x3>
	Acc_y = (((int)I2C_Read_Ack()<<8) | (int)I2C_Read_Ack());
    15fc:	0e 94 e1 18 	call	0x31c2	; 0x31c2 <I2C_Read_Ack>
    1600:	c8 2f       	mov	r28, r24
    1602:	d0 e0       	ldi	r29, 0x00	; 0
    1604:	dc 2f       	mov	r29, r28
    1606:	cc 27       	eor	r28, r28
    1608:	0e 94 e1 18 	call	0x31c2	; 0x31c2 <I2C_Read_Ack>
    160c:	be 01       	movw	r22, r28
    160e:	68 2b       	or	r22, r24
    1610:	07 2e       	mov	r0, r23
    1612:	00 0c       	add	r0, r0
    1614:	88 0b       	sbc	r24, r24
    1616:	99 0b       	sbc	r25, r25
    1618:	0e 94 31 14 	call	0x2862	; 0x2862 <__floatsisf>
    161c:	60 93 70 00 	sts	0x0070, r22	; 0x800070 <Acc_y>
    1620:	70 93 71 00 	sts	0x0071, r23	; 0x800071 <Acc_y+0x1>
    1624:	80 93 72 00 	sts	0x0072, r24	; 0x800072 <Acc_y+0x2>
    1628:	90 93 73 00 	sts	0x0073, r25	; 0x800073 <Acc_y+0x3>
	Acc_z = (((int)I2C_Read_Ack()<<8) | (int)I2C_Read_Ack());
    162c:	0e 94 e1 18 	call	0x31c2	; 0x31c2 <I2C_Read_Ack>
    1630:	c8 2f       	mov	r28, r24
    1632:	d0 e0       	ldi	r29, 0x00	; 0
    1634:	dc 2f       	mov	r29, r28
    1636:	cc 27       	eor	r28, r28
    1638:	0e 94 e1 18 	call	0x31c2	; 0x31c2 <I2C_Read_Ack>
    163c:	be 01       	movw	r22, r28
    163e:	68 2b       	or	r22, r24
    1640:	07 2e       	mov	r0, r23
    1642:	00 0c       	add	r0, r0
    1644:	88 0b       	sbc	r24, r24
    1646:	99 0b       	sbc	r25, r25
    1648:	0e 94 31 14 	call	0x2862	; 0x2862 <__floatsisf>
    164c:	60 93 60 00 	sts	0x0060, r22	; 0x800060 <__DATA_REGION_ORIGIN__>
    1650:	70 93 61 00 	sts	0x0061, r23	; 0x800061 <__DATA_REGION_ORIGIN__+0x1>
    1654:	80 93 62 00 	sts	0x0062, r24	; 0x800062 <__DATA_REGION_ORIGIN__+0x2>
    1658:	90 93 63 00 	sts	0x0063, r25	; 0x800063 <__DATA_REGION_ORIGIN__+0x3>
	Temperature = (((int)I2C_Read_Ack()<<8) | (int)I2C_Read_Ack());
    165c:	0e 94 e1 18 	call	0x31c2	; 0x31c2 <I2C_Read_Ack>
    1660:	c8 2f       	mov	r28, r24
    1662:	d0 e0       	ldi	r29, 0x00	; 0
    1664:	dc 2f       	mov	r29, r28
    1666:	cc 27       	eor	r28, r28
    1668:	0e 94 e1 18 	call	0x31c2	; 0x31c2 <I2C_Read_Ack>
    166c:	be 01       	movw	r22, r28
    166e:	68 2b       	or	r22, r24
    1670:	07 2e       	mov	r0, r23
    1672:	00 0c       	add	r0, r0
    1674:	88 0b       	sbc	r24, r24
    1676:	99 0b       	sbc	r25, r25
    1678:	0e 94 31 14 	call	0x2862	; 0x2862 <__floatsisf>
    167c:	60 93 6c 00 	sts	0x006C, r22	; 0x80006c <Temperature>
    1680:	70 93 6d 00 	sts	0x006D, r23	; 0x80006d <Temperature+0x1>
    1684:	80 93 6e 00 	sts	0x006E, r24	; 0x80006e <Temperature+0x2>
    1688:	90 93 6f 00 	sts	0x006F, r25	; 0x80006f <Temperature+0x3>
	Gyro_x = (((int)I2C_Read_Ack()<<8) | (int)I2C_Read_Ack());
    168c:	0e 94 e1 18 	call	0x31c2	; 0x31c2 <I2C_Read_Ack>
    1690:	c8 2f       	mov	r28, r24
    1692:	d0 e0       	ldi	r29, 0x00	; 0
    1694:	dc 2f       	mov	r29, r28
    1696:	cc 27       	eor	r28, r28
    1698:	0e 94 e1 18 	call	0x31c2	; 0x31c2 <I2C_Read_Ack>
    169c:	be 01       	movw	r22, r28
    169e:	68 2b       	or	r22, r24
    16a0:	07 2e       	mov	r0, r23
    16a2:	00 0c       	add	r0, r0
    16a4:	88 0b       	sbc	r24, r24
    16a6:	99 0b       	sbc	r25, r25
    16a8:	0e 94 31 14 	call	0x2862	; 0x2862 <__floatsisf>
    16ac:	60 93 68 00 	sts	0x0068, r22	; 0x800068 <Gyro_x>
    16b0:	70 93 69 00 	sts	0x0069, r23	; 0x800069 <Gyro_x+0x1>
    16b4:	80 93 6a 00 	sts	0x006A, r24	; 0x80006a <Gyro_x+0x2>
    16b8:	90 93 6b 00 	sts	0x006B, r25	; 0x80006b <Gyro_x+0x3>
	Gyro_y = (((int)I2C_Read_Ack()<<8) | (int)I2C_Read_Ack());
    16bc:	0e 94 e1 18 	call	0x31c2	; 0x31c2 <I2C_Read_Ack>
    16c0:	c8 2f       	mov	r28, r24
    16c2:	d0 e0       	ldi	r29, 0x00	; 0
    16c4:	dc 2f       	mov	r29, r28
    16c6:	cc 27       	eor	r28, r28
    16c8:	0e 94 e1 18 	call	0x31c2	; 0x31c2 <I2C_Read_Ack>
    16cc:	be 01       	movw	r22, r28
    16ce:	68 2b       	or	r22, r24
    16d0:	07 2e       	mov	r0, r23
    16d2:	00 0c       	add	r0, r0
    16d4:	88 0b       	sbc	r24, r24
    16d6:	99 0b       	sbc	r25, r25
    16d8:	0e 94 31 14 	call	0x2862	; 0x2862 <__floatsisf>
    16dc:	60 93 88 00 	sts	0x0088, r22	; 0x800088 <Gyro_y>
    16e0:	70 93 89 00 	sts	0x0089, r23	; 0x800089 <Gyro_y+0x1>
    16e4:	80 93 8a 00 	sts	0x008A, r24	; 0x80008a <Gyro_y+0x2>
    16e8:	90 93 8b 00 	sts	0x008B, r25	; 0x80008b <Gyro_y+0x3>
	Gyro_z = (((int)I2C_Read_Ack()<<8) | (int)I2C_Read_Nack());
    16ec:	0e 94 e1 18 	call	0x31c2	; 0x31c2 <I2C_Read_Ack>
    16f0:	c8 2f       	mov	r28, r24
    16f2:	d0 e0       	ldi	r29, 0x00	; 0
    16f4:	dc 2f       	mov	r29, r28
    16f6:	cc 27       	eor	r28, r28
    16f8:	0e 94 e8 18 	call	0x31d0	; 0x31d0 <I2C_Read_Nack>
    16fc:	be 01       	movw	r22, r28
    16fe:	68 2b       	or	r22, r24
    1700:	07 2e       	mov	r0, r23
    1702:	00 0c       	add	r0, r0
    1704:	88 0b       	sbc	r24, r24
    1706:	99 0b       	sbc	r25, r25
    1708:	0e 94 31 14 	call	0x2862	; 0x2862 <__floatsisf>
    170c:	60 93 74 00 	sts	0x0074, r22	; 0x800074 <Gyro_z>
    1710:	70 93 75 00 	sts	0x0075, r23	; 0x800075 <Gyro_z+0x1>
    1714:	80 93 76 00 	sts	0x0076, r24	; 0x800076 <Gyro_z+0x2>
    1718:	90 93 77 00 	sts	0x0077, r25	; 0x800077 <Gyro_z+0x3>
	I2C_Stop();
    171c:	0e 94 12 19 	call	0x3224	; 0x3224 <I2C_Stop>
	
	
	/*	Calibration to Compensate for the Offset -- Done by me	*/
	Acc_x += 213;
    1720:	20 e0       	ldi	r18, 0x00	; 0
    1722:	30 e0       	ldi	r19, 0x00	; 0
    1724:	45 e5       	ldi	r20, 0x55	; 85
    1726:	53 e4       	ldi	r21, 0x43	; 67
    1728:	60 91 78 00 	lds	r22, 0x0078	; 0x800078 <Acc_x>
    172c:	70 91 79 00 	lds	r23, 0x0079	; 0x800079 <Acc_x+0x1>
    1730:	80 91 7a 00 	lds	r24, 0x007A	; 0x80007a <Acc_x+0x2>
    1734:	90 91 7b 00 	lds	r25, 0x007B	; 0x80007b <Acc_x+0x3>
    1738:	0e 94 f0 18 	call	0x31e0	; 0x31e0 <__addsf3>
    173c:	60 93 78 00 	sts	0x0078, r22	; 0x800078 <Acc_x>
    1740:	70 93 79 00 	sts	0x0079, r23	; 0x800079 <Acc_x+0x1>
    1744:	80 93 7a 00 	sts	0x007A, r24	; 0x80007a <Acc_x+0x2>
    1748:	90 93 7b 00 	sts	0x007B, r25	; 0x80007b <Acc_x+0x3>
	Acc_y += 485;
    174c:	20 e0       	ldi	r18, 0x00	; 0
    174e:	30 e8       	ldi	r19, 0x80	; 128
    1750:	42 ef       	ldi	r20, 0xF2	; 242
    1752:	53 e4       	ldi	r21, 0x43	; 67
    1754:	60 91 70 00 	lds	r22, 0x0070	; 0x800070 <Acc_y>
    1758:	70 91 71 00 	lds	r23, 0x0071	; 0x800071 <Acc_y+0x1>
    175c:	80 91 72 00 	lds	r24, 0x0072	; 0x800072 <Acc_y+0x2>
    1760:	90 91 73 00 	lds	r25, 0x0073	; 0x800073 <Acc_y+0x3>
    1764:	0e 94 f0 18 	call	0x31e0	; 0x31e0 <__addsf3>
    1768:	60 93 70 00 	sts	0x0070, r22	; 0x800070 <Acc_y>
    176c:	70 93 71 00 	sts	0x0071, r23	; 0x800071 <Acc_y+0x1>
    1770:	80 93 72 00 	sts	0x0072, r24	; 0x800072 <Acc_y+0x2>
    1774:	90 93 73 00 	sts	0x0073, r25	; 0x800073 <Acc_y+0x3>
	Acc_z -= 17077;
    1778:	20 e0       	ldi	r18, 0x00	; 0
    177a:	3a e6       	ldi	r19, 0x6A	; 106
    177c:	45 e8       	ldi	r20, 0x85	; 133
    177e:	56 e4       	ldi	r21, 0x46	; 70
    1780:	60 91 60 00 	lds	r22, 0x0060	; 0x800060 <__DATA_REGION_ORIGIN__>
    1784:	70 91 61 00 	lds	r23, 0x0061	; 0x800061 <__DATA_REGION_ORIGIN__+0x1>
    1788:	80 91 62 00 	lds	r24, 0x0062	; 0x800062 <__DATA_REGION_ORIGIN__+0x2>
    178c:	90 91 63 00 	lds	r25, 0x0063	; 0x800063 <__DATA_REGION_ORIGIN__+0x3>
    1790:	0e 94 ef 18 	call	0x31de	; 0x31de <__subsf3>
    1794:	60 93 60 00 	sts	0x0060, r22	; 0x800060 <__DATA_REGION_ORIGIN__>
    1798:	70 93 61 00 	sts	0x0061, r23	; 0x800061 <__DATA_REGION_ORIGIN__+0x1>
    179c:	80 93 62 00 	sts	0x0062, r24	; 0x800062 <__DATA_REGION_ORIGIN__+0x2>
    17a0:	90 93 63 00 	sts	0x0063, r25	; 0x800063 <__DATA_REGION_ORIGIN__+0x3>
	
	Gyro_x += 5.33; 	// leave as it is
    17a4:	2c e5       	ldi	r18, 0x5C	; 92
    17a6:	3f e8       	ldi	r19, 0x8F	; 143
    17a8:	4a ea       	ldi	r20, 0xAA	; 170
    17aa:	50 e4       	ldi	r21, 0x40	; 64
    17ac:	60 91 68 00 	lds	r22, 0x0068	; 0x800068 <Gyro_x>
    17b0:	70 91 69 00 	lds	r23, 0x0069	; 0x800069 <Gyro_x+0x1>
    17b4:	80 91 6a 00 	lds	r24, 0x006A	; 0x80006a <Gyro_x+0x2>
    17b8:	90 91 6b 00 	lds	r25, 0x006B	; 0x80006b <Gyro_x+0x3>
    17bc:	0e 94 f0 18 	call	0x31e0	; 0x31e0 <__addsf3>
    17c0:	60 93 68 00 	sts	0x0068, r22	; 0x800068 <Gyro_x>
    17c4:	70 93 69 00 	sts	0x0069, r23	; 0x800069 <Gyro_x+0x1>
    17c8:	80 93 6a 00 	sts	0x006A, r24	; 0x80006a <Gyro_x+0x2>
    17cc:	90 93 6b 00 	sts	0x006B, r25	; 0x80006b <Gyro_x+0x3>
	Gyro_y -= 63.04;
    17d0:	26 ef       	ldi	r18, 0xF6	; 246
    17d2:	38 e2       	ldi	r19, 0x28	; 40
    17d4:	4c e7       	ldi	r20, 0x7C	; 124
    17d6:	52 e4       	ldi	r21, 0x42	; 66
    17d8:	60 91 88 00 	lds	r22, 0x0088	; 0x800088 <Gyro_y>
    17dc:	70 91 89 00 	lds	r23, 0x0089	; 0x800089 <Gyro_y+0x1>
    17e0:	80 91 8a 00 	lds	r24, 0x008A	; 0x80008a <Gyro_y+0x2>
    17e4:	90 91 8b 00 	lds	r25, 0x008B	; 0x80008b <Gyro_y+0x3>
    17e8:	0e 94 ef 18 	call	0x31de	; 0x31de <__subsf3>
    17ec:	60 93 88 00 	sts	0x0088, r22	; 0x800088 <Gyro_y>
    17f0:	70 93 89 00 	sts	0x0089, r23	; 0x800089 <Gyro_y+0x1>
    17f4:	80 93 8a 00 	sts	0x008A, r24	; 0x80008a <Gyro_y+0x2>
    17f8:	90 93 8b 00 	sts	0x008B, r25	; 0x80008b <Gyro_y+0x3>
	Gyro_z -= 1.7;
    17fc:	2a e9       	ldi	r18, 0x9A	; 154
    17fe:	39 e9       	ldi	r19, 0x99	; 153
    1800:	49 ed       	ldi	r20, 0xD9	; 217
    1802:	5f e3       	ldi	r21, 0x3F	; 63
    1804:	60 91 74 00 	lds	r22, 0x0074	; 0x800074 <Gyro_z>
    1808:	70 91 75 00 	lds	r23, 0x0075	; 0x800075 <Gyro_z+0x1>
    180c:	80 91 76 00 	lds	r24, 0x0076	; 0x800076 <Gyro_z+0x2>
    1810:	90 91 77 00 	lds	r25, 0x0077	; 0x800077 <Gyro_z+0x3>
    1814:	0e 94 ef 18 	call	0x31de	; 0x31de <__subsf3>
    1818:	60 93 74 00 	sts	0x0074, r22	; 0x800074 <Gyro_z>
    181c:	70 93 75 00 	sts	0x0075, r23	; 0x800075 <Gyro_z+0x1>
    1820:	80 93 76 00 	sts	0x0076, r24	; 0x800076 <Gyro_z+0x2>
    1824:	90 93 77 00 	sts	0x0077, r25	; 0x800077 <Gyro_z+0x3>
//	UART_puts("Zg_raw = ");		UART_send_float(Gyro_z);		UART_puts("\t\t");
//	
//	UART_puts("\n\n\r");
	/*	End of Calibration	*/
	
}
    1828:	df 91       	pop	r29
    182a:	cf 91       	pop	r28
    182c:	08 95       	ret

Disassembly of section .text.MPU6050_Read_RealValue:

00001b6a <MPU6050_Read_RealValue>:

void MPU6050_Read_RealValue()
{
	Read_RawValue();								/*	Gets the RawValue in order to make calculations to get Real Values	*/
    1b6a:	0e 94 e2 0a 	call	0x15c4	; 0x15c4 <Read_RawValue>
	
		
	Xa = Acc_x/16384.0;								/* Divide raw value by sensitivity scale factor to get real values */
    1b6e:	60 91 78 00 	lds	r22, 0x0078	; 0x800078 <Acc_x>
    1b72:	70 91 79 00 	lds	r23, 0x0079	; 0x800079 <Acc_x+0x1>
    1b76:	80 91 7a 00 	lds	r24, 0x007A	; 0x80007a <Acc_x+0x2>
    1b7a:	90 91 7b 00 	lds	r25, 0x007B	; 0x80007b <Acc_x+0x3>
    1b7e:	20 e0       	ldi	r18, 0x00	; 0
    1b80:	30 e0       	ldi	r19, 0x00	; 0
    1b82:	40 e8       	ldi	r20, 0x80	; 128
    1b84:	58 e3       	ldi	r21, 0x38	; 56
    1b86:	0e 94 34 19 	call	0x3268	; 0x3268 <__mulsf3>
    1b8a:	60 93 7c 00 	sts	0x007C, r22	; 0x80007c <Xa>
    1b8e:	70 93 7d 00 	sts	0x007D, r23	; 0x80007d <Xa+0x1>
    1b92:	80 93 7e 00 	sts	0x007E, r24	; 0x80007e <Xa+0x2>
    1b96:	90 93 7f 00 	sts	0x007F, r25	; 0x80007f <Xa+0x3>
	Ya = Acc_y/16384.0;
    1b9a:	60 91 70 00 	lds	r22, 0x0070	; 0x800070 <Acc_y>
    1b9e:	70 91 71 00 	lds	r23, 0x0071	; 0x800071 <Acc_y+0x1>
    1ba2:	80 91 72 00 	lds	r24, 0x0072	; 0x800072 <Acc_y+0x2>
    1ba6:	90 91 73 00 	lds	r25, 0x0073	; 0x800073 <Acc_y+0x3>
    1baa:	20 e0       	ldi	r18, 0x00	; 0
    1bac:	30 e0       	ldi	r19, 0x00	; 0
    1bae:	40 e8       	ldi	r20, 0x80	; 128
    1bb0:	58 e3       	ldi	r21, 0x38	; 56
    1bb2:	0e 94 34 19 	call	0x3268	; 0x3268 <__mulsf3>
    1bb6:	60 93 80 00 	sts	0x0080, r22	; 0x800080 <Ya>
    1bba:	70 93 81 00 	sts	0x0081, r23	; 0x800081 <Ya+0x1>
    1bbe:	80 93 82 00 	sts	0x0082, r24	; 0x800082 <Ya+0x2>
    1bc2:	90 93 83 00 	sts	0x0083, r25	; 0x800083 <Ya+0x3>
	Za = Acc_z/16384.0;
    1bc6:	60 91 60 00 	lds	r22, 0x0060	; 0x800060 <__DATA_REGION_ORIGIN__>
    1bca:	70 91 61 00 	lds	r23, 0x0061	; 0x800061 <__DATA_REGION_ORIGIN__+0x1>
    1bce:	80 91 62 00 	lds	r24, 0x0062	; 0x800062 <__DATA_REGION_ORIGIN__+0x2>
    1bd2:	90 91 63 00 	lds	r25, 0x0063	; 0x800063 <__DATA_REGION_ORIGIN__+0x3>
    1bd6:	20 e0       	ldi	r18, 0x00	; 0
    1bd8:	30 e0       	ldi	r19, 0x00	; 0
    1bda:	40 e8       	ldi	r20, 0x80	; 128
    1bdc:	58 e3       	ldi	r21, 0x38	; 56
    1bde:	0e 94 34 19 	call	0x3268	; 0x3268 <__mulsf3>
    1be2:	60 93 84 00 	sts	0x0084, r22	; 0x800084 <Za>
    1be6:	70 93 85 00 	sts	0x0085, r23	; 0x800085 <Za+0x1>
    1bea:	80 93 86 00 	sts	0x0086, r24	; 0x800086 <Za+0x2>
    1bee:	90 93 87 00 	sts	0x0087, r25	; 0x800087 <Za+0x3>
	
	Xg = Gyro_x/16.4;
    1bf2:	60 91 68 00 	lds	r22, 0x0068	; 0x800068 <Gyro_x>
    1bf6:	70 91 69 00 	lds	r23, 0x0069	; 0x800069 <Gyro_x+0x1>
    1bfa:	80 91 6a 00 	lds	r24, 0x006A	; 0x80006a <Gyro_x+0x2>
    1bfe:	90 91 6b 00 	lds	r25, 0x006B	; 0x80006b <Gyro_x+0x3>
    1c02:	23 e3       	ldi	r18, 0x33	; 51
    1c04:	33 e3       	ldi	r19, 0x33	; 51
    1c06:	43 e8       	ldi	r20, 0x83	; 131
    1c08:	51 e4       	ldi	r21, 0x41	; 65
    1c0a:	0e 94 30 19 	call	0x3260	; 0x3260 <__divsf3>
    1c0e:	60 93 a6 00 	sts	0x00A6, r22	; 0x8000a6 <Xg>
    1c12:	70 93 a7 00 	sts	0x00A7, r23	; 0x8000a7 <Xg+0x1>
    1c16:	80 93 a8 00 	sts	0x00A8, r24	; 0x8000a8 <Xg+0x2>
    1c1a:	90 93 a9 00 	sts	0x00A9, r25	; 0x8000a9 <Xg+0x3>
	Yg = Gyro_y/16.4;
    1c1e:	60 91 88 00 	lds	r22, 0x0088	; 0x800088 <Gyro_y>
    1c22:	70 91 89 00 	lds	r23, 0x0089	; 0x800089 <Gyro_y+0x1>
    1c26:	80 91 8a 00 	lds	r24, 0x008A	; 0x80008a <Gyro_y+0x2>
    1c2a:	90 91 8b 00 	lds	r25, 0x008B	; 0x80008b <Gyro_y+0x3>
    1c2e:	23 e3       	ldi	r18, 0x33	; 51
    1c30:	33 e3       	ldi	r19, 0x33	; 51
    1c32:	43 e8       	ldi	r20, 0x83	; 131
    1c34:	51 e4       	ldi	r21, 0x41	; 65
    1c36:	0e 94 30 19 	call	0x3260	; 0x3260 <__divsf3>
    1c3a:	60 93 a2 00 	sts	0x00A2, r22	; 0x8000a2 <Yg>
    1c3e:	70 93 a3 00 	sts	0x00A3, r23	; 0x8000a3 <Yg+0x1>
    1c42:	80 93 a4 00 	sts	0x00A4, r24	; 0x8000a4 <Yg+0x2>
    1c46:	90 93 a5 00 	sts	0x00A5, r25	; 0x8000a5 <Yg+0x3>
	Zg = Gyro_z/16.4;
    1c4a:	60 91 74 00 	lds	r22, 0x0074	; 0x800074 <Gyro_z>
    1c4e:	70 91 75 00 	lds	r23, 0x0075	; 0x800075 <Gyro_z+0x1>
    1c52:	80 91 76 00 	lds	r24, 0x0076	; 0x800076 <Gyro_z+0x2>
    1c56:	90 91 77 00 	lds	r25, 0x0077	; 0x800077 <Gyro_z+0x3>
    1c5a:	23 e3       	ldi	r18, 0x33	; 51
    1c5c:	33 e3       	ldi	r19, 0x33	; 51
    1c5e:	43 e8       	ldi	r20, 0x83	; 131
    1c60:	51 e4       	ldi	r21, 0x41	; 65
    1c62:	0e 94 30 19 	call	0x3260	; 0x3260 <__divsf3>
    1c66:	60 93 9e 00 	sts	0x009E, r22	; 0x80009e <Zg>
    1c6a:	70 93 9f 00 	sts	0x009F, r23	; 0x80009f <Zg+0x1>
    1c6e:	80 93 a0 00 	sts	0x00A0, r24	; 0x8000a0 <Zg+0x2>
    1c72:	90 93 a1 00 	sts	0x00A1, r25	; 0x8000a1 <Zg+0x3>

	t = (Temperature/340.00)+36.53;					/* Convert temperature in °/c using formula */
    1c76:	20 e0       	ldi	r18, 0x00	; 0
    1c78:	30 e0       	ldi	r19, 0x00	; 0
    1c7a:	4a ea       	ldi	r20, 0xAA	; 170
    1c7c:	53 e4       	ldi	r21, 0x43	; 67
    1c7e:	60 91 6c 00 	lds	r22, 0x006C	; 0x80006c <Temperature>
    1c82:	70 91 6d 00 	lds	r23, 0x006D	; 0x80006d <Temperature+0x1>
    1c86:	80 91 6e 00 	lds	r24, 0x006E	; 0x80006e <Temperature+0x2>
    1c8a:	90 91 6f 00 	lds	r25, 0x006F	; 0x80006f <Temperature+0x3>
    1c8e:	0e 94 30 19 	call	0x3260	; 0x3260 <__divsf3>
    1c92:	28 eb       	ldi	r18, 0xB8	; 184
    1c94:	3e e1       	ldi	r19, 0x1E	; 30
    1c96:	42 e1       	ldi	r20, 0x12	; 18
    1c98:	52 e4       	ldi	r21, 0x42	; 66
    1c9a:	0e 94 f0 18 	call	0x31e0	; 0x31e0 <__addsf3>
    1c9e:	60 93 64 00 	sts	0x0064, r22	; 0x800064 <t>
    1ca2:	70 93 65 00 	sts	0x0065, r23	; 0x800065 <t+0x1>
    1ca6:	80 93 66 00 	sts	0x0066, r24	; 0x800066 <t+0x2>
    1caa:	90 93 67 00 	sts	0x0067, r25	; 0x800067 <t+0x3>
    1cae:	08 95       	ret

Disassembly of section .text.main:

0000182e <main>:
6. HX711 + IR + MPU6050 + HMC 	   --		Final Mode
*/


int main(void)
{
    182e:	cf 93       	push	r28
    1830:	df 93       	push	r29
    1832:	cd b7       	in	r28, 0x3d	; 61
    1834:	de b7       	in	r29, 0x3e	; 62
    1836:	c4 56       	subi	r28, 0x64	; 100
    1838:	d1 09       	sbc	r29, r1
    183a:	0f b6       	in	r0, 0x3f	; 63
    183c:	f8 94       	cli
    183e:	de bf       	out	0x3e, r29	; 62
    1840:	0f be       	out	0x3f, r0	; 63
    1842:	cd bf       	out	0x3d, r28	; 61
	UART_init();
    1844:	0e 94 c9 18 	call	0x3192	; 0x3192 <UART_init>
	MPU6050_Init();
    1848:	0e 94 ec 13 	call	0x27d8	; 0x27d8 <MPU6050_Init>
	extern float Xg, Yg, Zg;												//	Real Values of MPU6050
	extern float Acc_x,Acc_y,Acc_z,Temperature,Gyro_x,Gyro_y,Gyro_z;		//	Raw Values

	/*	HMC	*/
	float Heading;
	Magneto_init();
    184c:	0e 94 5d 18 	call	0x30ba	; 0x30ba <Magneto_init>
		#endif
		
		#if SELECTOR == 6		//	HX711 + IR + MPU6050 + HMC
		
		/*	///////////////////////////////////////////			HX711			*///////////////////////////////////////////
		weight = HX711_main_function();
    1850:	0e 94 06 17 	call	0x2e0c	; 0x2e0c <HX711_main_function>
		char printbuff[100];
		snprintf(printbuff, sizeof(printbuff), "%.3lf", weight);
    1854:	9f 93       	push	r25
    1856:	8f 93       	push	r24
    1858:	7f 93       	push	r23
    185a:	6f 93       	push	r22
    185c:	80 ec       	ldi	r24, 0xC0	; 192
    185e:	90 e0       	ldi	r25, 0x00	; 0
    1860:	a0 e0       	ldi	r26, 0x00	; 0
    1862:	af 93       	push	r26
    1864:	9f 93       	push	r25
    1866:	8f 93       	push	r24
    1868:	1f 92       	push	r1
    186a:	84 e6       	ldi	r24, 0x64	; 100
    186c:	8f 93       	push	r24
    186e:	8e 01       	movw	r16, r28
    1870:	0f 5f       	subi	r16, 0xFF	; 255
    1872:	1f 4f       	sbci	r17, 0xFF	; 255
    1874:	1f 93       	push	r17
    1876:	0f 93       	push	r16
    1878:	0e 94 b1 17 	call	0x2f62	; 0x2f62 <_snprintf_eE>
		UART_send_string("Weight: "); UART_send_string(printbuff); UART_send_string("kg"); UART_send_string("\r\n");
    187c:	66 ec       	ldi	r22, 0xC6	; 198
    187e:	70 e0       	ldi	r23, 0x00	; 0
    1880:	80 e0       	ldi	r24, 0x00	; 0
    1882:	0e 94 85 17 	call	0x2f0a	; 0x2f0a <UART_send_string>
    1886:	b8 01       	movw	r22, r16
    1888:	80 e8       	ldi	r24, 0x80	; 128
    188a:	0e 94 85 17 	call	0x2f0a	; 0x2f0a <UART_send_string>
    188e:	6f ec       	ldi	r22, 0xCF	; 207
    1890:	70 e0       	ldi	r23, 0x00	; 0
    1892:	80 e0       	ldi	r24, 0x00	; 0
    1894:	0e 94 85 17 	call	0x2f0a	; 0x2f0a <UART_send_string>
    1898:	62 ed       	ldi	r22, 0xD2	; 210
    189a:	70 e0       	ldi	r23, 0x00	; 0
    189c:	80 e0       	ldi	r24, 0x00	; 0
    189e:	0e 94 85 17 	call	0x2f0a	; 0x2f0a <UART_send_string>
		//_delay_ms(200);			// delay must be done >=150ms for the communication to occur
		
		/*	///////////////////////////////////////////			IR			*///////////////////////////////////////////
		if (IR_Triggered())
    18a2:	0e 94 13 18 	call	0x3026	; 0x3026 <IR_Triggered>
    18a6:	0f b6       	in	r0, 0x3f	; 63
    18a8:	f8 94       	cli
    18aa:	de bf       	out	0x3e, r29	; 62
    18ac:	0f be       	out	0x3f, r0	; 63
    18ae:	cd bf       	out	0x3d, r28	; 61
    18b0:	89 2b       	or	r24, r25
    18b2:	31 f0       	breq	.+12     	; 0x18c0 <main+0x92>
		UART_send_string("IR = 1\n\r");
    18b4:	65 ed       	ldi	r22, 0xD5	; 213
    18b6:	70 e0       	ldi	r23, 0x00	; 0
    18b8:	80 e0       	ldi	r24, 0x00	; 0
    18ba:	0e 94 85 17 	call	0x2f0a	; 0x2f0a <UART_send_string>
    18be:	05 c0       	rjmp	.+10     	; 0x18ca <main+0x9c>
		else
		UART_send_string("IR = 0\n\r");
    18c0:	6e ed       	ldi	r22, 0xDE	; 222
    18c2:	70 e0       	ldi	r23, 0x00	; 0
    18c4:	80 e0       	ldi	r24, 0x00	; 0
    18c6:	0e 94 85 17 	call	0x2f0a	; 0x2f0a <UART_send_string>
		//_delay_ms(100);
		
		/*	///////////////////////////////////////////			MPU6050			*///////////////////////////////////////////
		MPU6050_Read_RealValue();		//	Keeps updating the Readings
    18ca:	0e 94 b5 0d 	call	0x1b6a	; 0x1b6a <MPU6050_Read_RealValue>

		/*		Sending over UART		*/
		UART_send_string("Xa = ");		UART_send_float(Xa);		UART_send_string("\n\r");
    18ce:	67 ee       	ldi	r22, 0xE7	; 231
    18d0:	70 e0       	ldi	r23, 0x00	; 0
    18d2:	80 e0       	ldi	r24, 0x00	; 0
    18d4:	0e 94 85 17 	call	0x2f0a	; 0x2f0a <UART_send_string>
    18d8:	60 91 7c 00 	lds	r22, 0x007C	; 0x80007c <Xa>
    18dc:	70 91 7d 00 	lds	r23, 0x007D	; 0x80007d <Xa+0x1>
    18e0:	80 91 7e 00 	lds	r24, 0x007E	; 0x80007e <Xa+0x2>
    18e4:	90 91 7f 00 	lds	r25, 0x007F	; 0x80007f <Xa+0x3>
    18e8:	0e 94 a2 14 	call	0x2944	; 0x2944 <UART_send_float>
    18ec:	6d ee       	ldi	r22, 0xED	; 237
    18ee:	70 e0       	ldi	r23, 0x00	; 0
    18f0:	80 e0       	ldi	r24, 0x00	; 0
    18f2:	0e 94 85 17 	call	0x2f0a	; 0x2f0a <UART_send_string>
		UART_send_string("Ya = ");		UART_send_float(Ya);		UART_send_string("\n\r");
    18f6:	60 ef       	ldi	r22, 0xF0	; 240
    18f8:	70 e0       	ldi	r23, 0x00	; 0
    18fa:	80 e0       	ldi	r24, 0x00	; 0
    18fc:	0e 94 85 17 	call	0x2f0a	; 0x2f0a <UART_send_string>
    1900:	60 91 80 00 	lds	r22, 0x0080	; 0x800080 <Ya>
    1904:	70 91 81 00 	lds	r23, 0x0081	; 0x800081 <Ya+0x1>
    1908:	80 91 82 00 	lds	r24, 0x0082	; 0x800082 <Ya+0x2>
    190c:	90 91 83 00 	lds	r25, 0x0083	; 0x800083 <Ya+0x3>
    1910:	0e 94 a2 14 	call	0x2944	; 0x2944 <UART_send_float>
    1914:	6d ee       	ldi	r22, 0xED	; 237
    1916:	70 e0       	ldi	r23, 0x00	; 0
    1918:	80 e0       	ldi	r24, 0x00	; 0
    191a:	0e 94 85 17 	call	0x2f0a	; 0x2f0a <UART_send_string>
		UART_send_string("Za = ");		UART_send_float(Za);		UART_send_string("\n\r");
    191e:	66 ef       	ldi	r22, 0xF6	; 246
    1920:	70 e0       	ldi	r23, 0x00	; 0
    1922:	80 e0       	ldi	r24, 0x00	; 0
    1924:	0e 94 85 17 	call	0x2f0a	; 0x2f0a <UART_send_string>
    1928:	60 91 84 00 	lds	r22, 0x0084	; 0x800084 <Za>
    192c:	70 91 85 00 	lds	r23, 0x0085	; 0x800085 <Za+0x1>
    1930:	80 91 86 00 	lds	r24, 0x0086	; 0x800086 <Za+0x2>
    1934:	90 91 87 00 	lds	r25, 0x0087	; 0x800087 <Za+0x3>
    1938:	0e 94 a2 14 	call	0x2944	; 0x2944 <UART_send_float>
    193c:	6d ee       	ldi	r22, 0xED	; 237
    193e:	70 e0       	ldi	r23, 0x00	; 0
    1940:	80 e0       	ldi	r24, 0x00	; 0
    1942:	0e 94 85 17 	call	0x2f0a	; 0x2f0a <UART_send_string>
		
		UART_send_string("Xg = ");		UART_send_float(Xg);		UART_send_string("\n\r");
    1946:	6c ef       	ldi	r22, 0xFC	; 252
    1948:	70 e0       	ldi	r23, 0x00	; 0
    194a:	80 e0       	ldi	r24, 0x00	; 0
    194c:	0e 94 85 17 	call	0x2f0a	; 0x2f0a <UART_send_string>
    1950:	60 91 a6 00 	lds	r22, 0x00A6	; 0x8000a6 <Xg>
    1954:	70 91 a7 00 	lds	r23, 0x00A7	; 0x8000a7 <Xg+0x1>
    1958:	80 91 a8 00 	lds	r24, 0x00A8	; 0x8000a8 <Xg+0x2>
    195c:	90 91 a9 00 	lds	r25, 0x00A9	; 0x8000a9 <Xg+0x3>
    1960:	0e 94 a2 14 	call	0x2944	; 0x2944 <UART_send_float>
    1964:	6d ee       	ldi	r22, 0xED	; 237
    1966:	70 e0       	ldi	r23, 0x00	; 0
    1968:	80 e0       	ldi	r24, 0x00	; 0
    196a:	0e 94 85 17 	call	0x2f0a	; 0x2f0a <UART_send_string>
		UART_send_string("Yg = ");		UART_send_float(Yg);		UART_send_string("\n\r");
    196e:	62 e0       	ldi	r22, 0x02	; 2
    1970:	71 e0       	ldi	r23, 0x01	; 1
    1972:	80 e0       	ldi	r24, 0x00	; 0
    1974:	0e 94 85 17 	call	0x2f0a	; 0x2f0a <UART_send_string>
    1978:	60 91 a2 00 	lds	r22, 0x00A2	; 0x8000a2 <Yg>
    197c:	70 91 a3 00 	lds	r23, 0x00A3	; 0x8000a3 <Yg+0x1>
    1980:	80 91 a4 00 	lds	r24, 0x00A4	; 0x8000a4 <Yg+0x2>
    1984:	90 91 a5 00 	lds	r25, 0x00A5	; 0x8000a5 <Yg+0x3>
    1988:	0e 94 a2 14 	call	0x2944	; 0x2944 <UART_send_float>
    198c:	6d ee       	ldi	r22, 0xED	; 237
    198e:	70 e0       	ldi	r23, 0x00	; 0
    1990:	80 e0       	ldi	r24, 0x00	; 0
    1992:	0e 94 85 17 	call	0x2f0a	; 0x2f0a <UART_send_string>
		UART_send_string("Zg = ");		UART_send_float(Zg);		UART_send_string("\n\r");
    1996:	68 e0       	ldi	r22, 0x08	; 8
    1998:	71 e0       	ldi	r23, 0x01	; 1
    199a:	80 e0       	ldi	r24, 0x00	; 0
    199c:	0e 94 85 17 	call	0x2f0a	; 0x2f0a <UART_send_string>
    19a0:	60 91 9e 00 	lds	r22, 0x009E	; 0x80009e <Zg>
    19a4:	70 91 9f 00 	lds	r23, 0x009F	; 0x80009f <Zg+0x1>
    19a8:	80 91 a0 00 	lds	r24, 0x00A0	; 0x8000a0 <Zg+0x2>
    19ac:	90 91 a1 00 	lds	r25, 0x00A1	; 0x8000a1 <Zg+0x3>
    19b0:	0e 94 a2 14 	call	0x2944	; 0x2944 <UART_send_float>
    19b4:	6d ee       	ldi	r22, 0xED	; 237
    19b6:	70 e0       	ldi	r23, 0x00	; 0
    19b8:	80 e0       	ldi	r24, 0x00	; 0
    19ba:	0e 94 85 17 	call	0x2f0a	; 0x2f0a <UART_send_string>
		//_delay_ms(100);
		
		/*	///////////////////////////////////////////			HMC			*///////////////////////////////////////////
		Heading = Magneto_GetHeading();
    19be:	0e 94 16 10 	call	0x202c	; 0x202c <Magneto_GetHeading>
    19c2:	bc 01       	movw	r22, r24
    19c4:	99 0f       	add	r25, r25
    19c6:	88 0b       	sbc	r24, r24
    19c8:	99 0b       	sbc	r25, r25
    19ca:	0e 94 31 14 	call	0x2862	; 0x2862 <__floatsisf>
    19ce:	6b 01       	movw	r12, r22
    19d0:	7c 01       	movw	r14, r24
		UART_send_string("\n\rHeading = ");	UART_send_float(Heading);
    19d2:	6e e0       	ldi	r22, 0x0E	; 14
    19d4:	71 e0       	ldi	r23, 0x01	; 1
    19d6:	80 e0       	ldi	r24, 0x00	; 0
    19d8:	0e 94 85 17 	call	0x2f0a	; 0x2f0a <UART_send_string>
    19dc:	c7 01       	movw	r24, r14
    19de:	b6 01       	movw	r22, r12
    19e0:	0e 94 a2 14 	call	0x2944	; 0x2944 <UART_send_float>
    19e4:	3f ef       	ldi	r19, 0xFF	; 255
    19e6:	81 ee       	ldi	r24, 0xE1	; 225
    19e8:	94 e0       	ldi	r25, 0x04	; 4
    19ea:	31 50       	subi	r19, 0x01	; 1
    19ec:	80 40       	sbci	r24, 0x00	; 0
    19ee:	90 40       	sbci	r25, 0x00	; 0
    19f0:	e1 f7       	brne	.-8      	; 0x19ea <main+0x1bc>
    19f2:	00 c0       	rjmp	.+0      	; 0x19f4 <main+0x1c6>
    19f4:	00 00       	nop
		_delay_ms(200);

		
		#endif
		
	}
    19f6:	2c cf       	rjmp	.-424    	; 0x1850 <main+0x22>

Disassembly of section .text.DIO_voidSetPinDirection:

00002130 <DIO_voidSetPinDirection>:
    2130:	84 30       	cpi	r24, 0x04	; 4
    2132:	08 f0       	brcs	.+2      	; 0x2136 <DIO_voidSetPinDirection+0x6>
    2134:	72 c0       	rjmp	.+228    	; 0x221a <DIO_voidSetPinDirection+0xea>
    2136:	68 30       	cpi	r22, 0x08	; 8
    2138:	08 f0       	brcs	.+2      	; 0x213c <DIO_voidSetPinDirection+0xc>
    213a:	6f c0       	rjmp	.+222    	; 0x221a <DIO_voidSetPinDirection+0xea>
    213c:	41 30       	cpi	r20, 0x01	; 1
    213e:	a1 f5       	brne	.+104    	; 0x21a8 <DIO_voidSetPinDirection+0x78>
    2140:	81 30       	cpi	r24, 0x01	; 1
    2142:	89 f0       	breq	.+34     	; 0x2166 <DIO_voidSetPinDirection+0x36>
    2144:	28 f0       	brcs	.+10     	; 0x2150 <DIO_voidSetPinDirection+0x20>
    2146:	82 30       	cpi	r24, 0x02	; 2
    2148:	c9 f0       	breq	.+50     	; 0x217c <DIO_voidSetPinDirection+0x4c>
    214a:	83 30       	cpi	r24, 0x03	; 3
    214c:	11 f1       	breq	.+68     	; 0x2192 <DIO_voidSetPinDirection+0x62>
    214e:	08 95       	ret
    2150:	2a b3       	in	r18, 0x1a	; 26
    2152:	81 e0       	ldi	r24, 0x01	; 1
    2154:	90 e0       	ldi	r25, 0x00	; 0
    2156:	02 c0       	rjmp	.+4      	; 0x215c <DIO_voidSetPinDirection+0x2c>
    2158:	88 0f       	add	r24, r24
    215a:	99 1f       	adc	r25, r25
    215c:	6a 95       	dec	r22
    215e:	e2 f7       	brpl	.-8      	; 0x2158 <DIO_voidSetPinDirection+0x28>
    2160:	82 2b       	or	r24, r18
    2162:	8a bb       	out	0x1a, r24	; 26
    2164:	08 95       	ret
    2166:	27 b3       	in	r18, 0x17	; 23
    2168:	81 e0       	ldi	r24, 0x01	; 1
    216a:	90 e0       	ldi	r25, 0x00	; 0
    216c:	02 c0       	rjmp	.+4      	; 0x2172 <DIO_voidSetPinDirection+0x42>
    216e:	88 0f       	add	r24, r24
    2170:	99 1f       	adc	r25, r25
    2172:	6a 95       	dec	r22
    2174:	e2 f7       	brpl	.-8      	; 0x216e <DIO_voidSetPinDirection+0x3e>
    2176:	82 2b       	or	r24, r18
    2178:	87 bb       	out	0x17, r24	; 23
    217a:	08 95       	ret
    217c:	24 b3       	in	r18, 0x14	; 20
    217e:	81 e0       	ldi	r24, 0x01	; 1
    2180:	90 e0       	ldi	r25, 0x00	; 0
    2182:	02 c0       	rjmp	.+4      	; 0x2188 <DIO_voidSetPinDirection+0x58>
    2184:	88 0f       	add	r24, r24
    2186:	99 1f       	adc	r25, r25
    2188:	6a 95       	dec	r22
    218a:	e2 f7       	brpl	.-8      	; 0x2184 <DIO_voidSetPinDirection+0x54>
    218c:	82 2b       	or	r24, r18
    218e:	84 bb       	out	0x14, r24	; 20
    2190:	08 95       	ret
    2192:	21 b3       	in	r18, 0x11	; 17
    2194:	81 e0       	ldi	r24, 0x01	; 1
    2196:	90 e0       	ldi	r25, 0x00	; 0
    2198:	02 c0       	rjmp	.+4      	; 0x219e <DIO_voidSetPinDirection+0x6e>
    219a:	88 0f       	add	r24, r24
    219c:	99 1f       	adc	r25, r25
    219e:	6a 95       	dec	r22
    21a0:	e2 f7       	brpl	.-8      	; 0x219a <DIO_voidSetPinDirection+0x6a>
    21a2:	82 2b       	or	r24, r18
    21a4:	81 bb       	out	0x11, r24	; 17
    21a6:	08 95       	ret
    21a8:	41 11       	cpse	r20, r1
    21aa:	37 c0       	rjmp	.+110    	; 0x221a <DIO_voidSetPinDirection+0xea>
    21ac:	81 30       	cpi	r24, 0x01	; 1
    21ae:	91 f0       	breq	.+36     	; 0x21d4 <DIO_voidSetPinDirection+0xa4>
    21b0:	28 f0       	brcs	.+10     	; 0x21bc <DIO_voidSetPinDirection+0x8c>
    21b2:	82 30       	cpi	r24, 0x02	; 2
    21b4:	d9 f0       	breq	.+54     	; 0x21ec <DIO_voidSetPinDirection+0xbc>
    21b6:	83 30       	cpi	r24, 0x03	; 3
    21b8:	29 f1       	breq	.+74     	; 0x2204 <DIO_voidSetPinDirection+0xd4>
    21ba:	08 95       	ret
    21bc:	2a b3       	in	r18, 0x1a	; 26
    21be:	81 e0       	ldi	r24, 0x01	; 1
    21c0:	90 e0       	ldi	r25, 0x00	; 0
    21c2:	02 c0       	rjmp	.+4      	; 0x21c8 <DIO_voidSetPinDirection+0x98>
    21c4:	88 0f       	add	r24, r24
    21c6:	99 1f       	adc	r25, r25
    21c8:	6a 95       	dec	r22
    21ca:	e2 f7       	brpl	.-8      	; 0x21c4 <DIO_voidSetPinDirection+0x94>
    21cc:	80 95       	com	r24
    21ce:	82 23       	and	r24, r18
    21d0:	8a bb       	out	0x1a, r24	; 26
    21d2:	08 95       	ret
    21d4:	27 b3       	in	r18, 0x17	; 23
    21d6:	81 e0       	ldi	r24, 0x01	; 1
    21d8:	90 e0       	ldi	r25, 0x00	; 0
    21da:	02 c0       	rjmp	.+4      	; 0x21e0 <DIO_voidSetPinDirection+0xb0>
    21dc:	88 0f       	add	r24, r24
    21de:	99 1f       	adc	r25, r25
    21e0:	6a 95       	dec	r22
    21e2:	e2 f7       	brpl	.-8      	; 0x21dc <DIO_voidSetPinDirection+0xac>
    21e4:	80 95       	com	r24
    21e6:	82 23       	and	r24, r18
    21e8:	87 bb       	out	0x17, r24	; 23
    21ea:	08 95       	ret
    21ec:	24 b3       	in	r18, 0x14	; 20
    21ee:	81 e0       	ldi	r24, 0x01	; 1
    21f0:	90 e0       	ldi	r25, 0x00	; 0
    21f2:	02 c0       	rjmp	.+4      	; 0x21f8 <DIO_voidSetPinDirection+0xc8>
    21f4:	88 0f       	add	r24, r24
    21f6:	99 1f       	adc	r25, r25
    21f8:	6a 95       	dec	r22
    21fa:	e2 f7       	brpl	.-8      	; 0x21f4 <DIO_voidSetPinDirection+0xc4>
    21fc:	80 95       	com	r24
    21fe:	82 23       	and	r24, r18
    2200:	84 bb       	out	0x14, r24	; 20
    2202:	08 95       	ret
    2204:	21 b3       	in	r18, 0x11	; 17
    2206:	81 e0       	ldi	r24, 0x01	; 1
    2208:	90 e0       	ldi	r25, 0x00	; 0
    220a:	02 c0       	rjmp	.+4      	; 0x2210 <DIO_voidSetPinDirection+0xe0>
    220c:	88 0f       	add	r24, r24
    220e:	99 1f       	adc	r25, r25
    2210:	6a 95       	dec	r22
    2212:	e2 f7       	brpl	.-8      	; 0x220c <DIO_voidSetPinDirection+0xdc>
    2214:	80 95       	com	r24
    2216:	82 23       	and	r24, r18
    2218:	81 bb       	out	0x11, r24	; 17
    221a:	08 95       	ret

Disassembly of section .text.DIO_u8GetPinValue:

000028d8 <DIO_u8GetPinValue>:
    28d8:	84 30       	cpi	r24, 0x04	; 4
    28da:	70 f5       	brcc	.+92     	; 0x2938 <DIO_u8GetPinValue+0x60>
    28dc:	68 30       	cpi	r22, 0x08	; 8
    28de:	70 f5       	brcc	.+92     	; 0x293c <DIO_u8GetPinValue+0x64>
    28e0:	81 30       	cpi	r24, 0x01	; 1
    28e2:	79 f0       	breq	.+30     	; 0x2902 <DIO_u8GetPinValue+0x2a>
    28e4:	28 f0       	brcs	.+10     	; 0x28f0 <DIO_u8GetPinValue+0x18>
    28e6:	82 30       	cpi	r24, 0x02	; 2
    28e8:	a9 f0       	breq	.+42     	; 0x2914 <DIO_u8GetPinValue+0x3c>
    28ea:	83 30       	cpi	r24, 0x03	; 3
    28ec:	e1 f0       	breq	.+56     	; 0x2926 <DIO_u8GetPinValue+0x4e>
    28ee:	28 c0       	rjmp	.+80     	; 0x2940 <DIO_u8GetPinValue+0x68>
    28f0:	89 b3       	in	r24, 0x19	; 25
    28f2:	90 e0       	ldi	r25, 0x00	; 0
    28f4:	02 c0       	rjmp	.+4      	; 0x28fa <DIO_u8GetPinValue+0x22>
    28f6:	95 95       	asr	r25
    28f8:	87 95       	ror	r24
    28fa:	6a 95       	dec	r22
    28fc:	e2 f7       	brpl	.-8      	; 0x28f6 <DIO_u8GetPinValue+0x1e>
    28fe:	81 70       	andi	r24, 0x01	; 1
    2900:	08 95       	ret
    2902:	86 b3       	in	r24, 0x16	; 22
    2904:	90 e0       	ldi	r25, 0x00	; 0
    2906:	02 c0       	rjmp	.+4      	; 0x290c <DIO_u8GetPinValue+0x34>
    2908:	95 95       	asr	r25
    290a:	87 95       	ror	r24
    290c:	6a 95       	dec	r22
    290e:	e2 f7       	brpl	.-8      	; 0x2908 <DIO_u8GetPinValue+0x30>
    2910:	81 70       	andi	r24, 0x01	; 1
    2912:	08 95       	ret
    2914:	83 b3       	in	r24, 0x13	; 19
    2916:	90 e0       	ldi	r25, 0x00	; 0
    2918:	02 c0       	rjmp	.+4      	; 0x291e <DIO_u8GetPinValue+0x46>
    291a:	95 95       	asr	r25
    291c:	87 95       	ror	r24
    291e:	6a 95       	dec	r22
    2920:	e2 f7       	brpl	.-8      	; 0x291a <DIO_u8GetPinValue+0x42>
    2922:	81 70       	andi	r24, 0x01	; 1
    2924:	08 95       	ret
    2926:	80 b3       	in	r24, 0x10	; 16
    2928:	90 e0       	ldi	r25, 0x00	; 0
    292a:	02 c0       	rjmp	.+4      	; 0x2930 <DIO_u8GetPinValue+0x58>
    292c:	95 95       	asr	r25
    292e:	87 95       	ror	r24
    2930:	6a 95       	dec	r22
    2932:	e2 f7       	brpl	.-8      	; 0x292c <DIO_u8GetPinValue+0x54>
    2934:	81 70       	andi	r24, 0x01	; 1
    2936:	08 95       	ret
    2938:	8f ef       	ldi	r24, 0xFF	; 255
    293a:	08 95       	ret
    293c:	8f ef       	ldi	r24, 0xFF	; 255
    293e:	08 95       	ret
    2940:	8f ef       	ldi	r24, 0xFF	; 255
    2942:	08 95       	ret

Disassembly of section .text.I2C_Init:

00003250 <I2C_Init>:
    3250:	11 b8       	out	0x01, r1	; 1
    3252:	80 e2       	ldi	r24, 0x20	; 32
    3254:	80 b9       	out	0x00, r24	; 0
    3256:	08 95       	ret

Disassembly of section .text.I2C_Start:

00002d60 <I2C_Start>:
    2d60:	94 ea       	ldi	r25, 0xA4	; 164
    2d62:	96 bf       	out	0x36, r25	; 54
    2d64:	06 b6       	in	r0, 0x36	; 54
    2d66:	07 fe       	sbrs	r0, 7
    2d68:	fd cf       	rjmp	.-6      	; 0x2d64 <I2C_Start+0x4>
    2d6a:	91 b1       	in	r25, 0x01	; 1
    2d6c:	98 7f       	andi	r25, 0xF8	; 248
    2d6e:	98 30       	cpi	r25, 0x08	; 8
    2d70:	71 f4       	brne	.+28     	; 0x2d8e <I2C_Start+0x2e>
    2d72:	83 b9       	out	0x03, r24	; 3
    2d74:	84 e8       	ldi	r24, 0x84	; 132
    2d76:	86 bf       	out	0x36, r24	; 54
    2d78:	06 b6       	in	r0, 0x36	; 54
    2d7a:	07 fe       	sbrs	r0, 7
    2d7c:	fd cf       	rjmp	.-6      	; 0x2d78 <I2C_Start+0x18>
    2d7e:	81 b1       	in	r24, 0x01	; 1
    2d80:	88 7f       	andi	r24, 0xF8	; 248
    2d82:	88 31       	cpi	r24, 0x18	; 24
    2d84:	31 f0       	breq	.+12     	; 0x2d92 <I2C_Start+0x32>
    2d86:	80 32       	cpi	r24, 0x20	; 32
    2d88:	31 f4       	brne	.+12     	; 0x2d96 <I2C_Start+0x36>
    2d8a:	82 e0       	ldi	r24, 0x02	; 2
    2d8c:	08 95       	ret
    2d8e:	80 e0       	ldi	r24, 0x00	; 0
    2d90:	08 95       	ret
    2d92:	81 e0       	ldi	r24, 0x01	; 1
    2d94:	08 95       	ret
    2d96:	83 e0       	ldi	r24, 0x03	; 3
    2d98:	08 95       	ret

Disassembly of section .text.I2C_Repeated_Start:

00002d9a <I2C_Repeated_Start>:
    2d9a:	94 ea       	ldi	r25, 0xA4	; 164
    2d9c:	96 bf       	out	0x36, r25	; 54
    2d9e:	06 b6       	in	r0, 0x36	; 54
    2da0:	07 fe       	sbrs	r0, 7
    2da2:	fd cf       	rjmp	.-6      	; 0x2d9e <I2C_Repeated_Start+0x4>
    2da4:	91 b1       	in	r25, 0x01	; 1
    2da6:	98 7f       	andi	r25, 0xF8	; 248
    2da8:	90 31       	cpi	r25, 0x10	; 16
    2daa:	71 f4       	brne	.+28     	; 0x2dc8 <I2C_Repeated_Start+0x2e>
    2dac:	83 b9       	out	0x03, r24	; 3
    2dae:	84 e8       	ldi	r24, 0x84	; 132
    2db0:	86 bf       	out	0x36, r24	; 54
    2db2:	06 b6       	in	r0, 0x36	; 54
    2db4:	07 fe       	sbrs	r0, 7
    2db6:	fd cf       	rjmp	.-6      	; 0x2db2 <I2C_Repeated_Start+0x18>
    2db8:	81 b1       	in	r24, 0x01	; 1
    2dba:	88 7f       	andi	r24, 0xF8	; 248
    2dbc:	80 34       	cpi	r24, 0x40	; 64
    2dbe:	31 f0       	breq	.+12     	; 0x2dcc <I2C_Repeated_Start+0x32>
    2dc0:	80 32       	cpi	r24, 0x20	; 32
    2dc2:	31 f4       	brne	.+12     	; 0x2dd0 <I2C_Repeated_Start+0x36>
    2dc4:	82 e0       	ldi	r24, 0x02	; 2
    2dc6:	08 95       	ret
    2dc8:	80 e0       	ldi	r24, 0x00	; 0
    2dca:	08 95       	ret
    2dcc:	81 e0       	ldi	r24, 0x01	; 1
    2dce:	08 95       	ret
    2dd0:	83 e0       	ldi	r24, 0x03	; 3
    2dd2:	08 95       	ret

Disassembly of section .text.I2C_Stop:

00003224 <I2C_Stop>:
    3224:	84 e9       	ldi	r24, 0x94	; 148
    3226:	86 bf       	out	0x36, r24	; 54
    3228:	06 b6       	in	r0, 0x36	; 54
    322a:	04 fc       	sbrc	r0, 4
    322c:	fd cf       	rjmp	.-6      	; 0x3228 <I2C_Stop+0x4>
    322e:	08 95       	ret

Disassembly of section .text.I2C_Start_Wait:

00002e78 <I2C_Start_Wait>:
    2e78:	cf 93       	push	r28
    2e7a:	c8 2f       	mov	r28, r24
    2e7c:	84 ea       	ldi	r24, 0xA4	; 164
    2e7e:	86 bf       	out	0x36, r24	; 54
    2e80:	06 b6       	in	r0, 0x36	; 54
    2e82:	07 fe       	sbrs	r0, 7
    2e84:	fd cf       	rjmp	.-6      	; 0x2e80 <I2C_Start_Wait+0x8>
    2e86:	81 b1       	in	r24, 0x01	; 1
    2e88:	88 7f       	andi	r24, 0xF8	; 248
    2e8a:	88 30       	cpi	r24, 0x08	; 8
    2e8c:	b9 f7       	brne	.-18     	; 0x2e7c <I2C_Start_Wait+0x4>
    2e8e:	c3 b9       	out	0x03, r28	; 3
    2e90:	84 e8       	ldi	r24, 0x84	; 132
    2e92:	86 bf       	out	0x36, r24	; 54
    2e94:	06 b6       	in	r0, 0x36	; 54
    2e96:	07 fe       	sbrs	r0, 7
    2e98:	fd cf       	rjmp	.-6      	; 0x2e94 <I2C_Start_Wait+0x1c>
    2e9a:	81 b1       	in	r24, 0x01	; 1
    2e9c:	88 7f       	andi	r24, 0xF8	; 248
    2e9e:	88 31       	cpi	r24, 0x18	; 24
    2ea0:	19 f0       	breq	.+6      	; 0x2ea8 <I2C_Start_Wait+0x30>
    2ea2:	0e 94 12 19 	call	0x3224	; 0x3224 <I2C_Stop>
    2ea6:	ea cf       	rjmp	.-44     	; 0x2e7c <I2C_Start_Wait+0x4>
    2ea8:	cf 91       	pop	r28
    2eaa:	08 95       	ret

Disassembly of section .text.I2C_Write:

00003002 <I2C_Write>:
    3002:	83 b9       	out	0x03, r24	; 3
    3004:	84 e8       	ldi	r24, 0x84	; 132
    3006:	86 bf       	out	0x36, r24	; 54
    3008:	06 b6       	in	r0, 0x36	; 54
    300a:	07 fe       	sbrs	r0, 7
    300c:	fd cf       	rjmp	.-6      	; 0x3008 <I2C_Write+0x6>
    300e:	81 b1       	in	r24, 0x01	; 1
    3010:	88 7f       	andi	r24, 0xF8	; 248
    3012:	88 32       	cpi	r24, 0x28	; 40
    3014:	21 f0       	breq	.+8      	; 0x301e <I2C_Write+0x1c>
    3016:	80 33       	cpi	r24, 0x30	; 48
    3018:	21 f4       	brne	.+8      	; 0x3022 <I2C_Write+0x20>
    301a:	81 e0       	ldi	r24, 0x01	; 1
    301c:	08 95       	ret
    301e:	80 e0       	ldi	r24, 0x00	; 0
    3020:	08 95       	ret
    3022:	82 e0       	ldi	r24, 0x02	; 2
    3024:	08 95       	ret

Disassembly of section .text.I2C_Read_Ack:

000031c2 <I2C_Read_Ack>:
    31c2:	84 ec       	ldi	r24, 0xC4	; 196
    31c4:	86 bf       	out	0x36, r24	; 54
    31c6:	06 b6       	in	r0, 0x36	; 54
    31c8:	07 fe       	sbrs	r0, 7
    31ca:	fd cf       	rjmp	.-6      	; 0x31c6 <I2C_Read_Ack+0x4>
    31cc:	83 b1       	in	r24, 0x03	; 3
    31ce:	08 95       	ret

Disassembly of section .text.I2C_Read_Nack:

000031d0 <I2C_Read_Nack>:
    31d0:	84 e8       	ldi	r24, 0x84	; 132
    31d2:	86 bf       	out	0x36, r24	; 54
    31d4:	06 b6       	in	r0, 0x36	; 54
    31d6:	07 fe       	sbrs	r0, 7
    31d8:	fd cf       	rjmp	.-6      	; 0x31d4 <I2C_Read_Nack+0x4>
    31da:	83 b1       	in	r24, 0x03	; 3
    31dc:	08 95       	ret

Disassembly of section .text.UART_init:

00003192 <UART_init>:

u8 UART_RecieveData(void)				//A function to Receive Data
{
	while(GET_BIT(UCSRA,RXC)==0);	//wait until all data is received
	return UDR;
}
    3192:	10 bc       	out	0x20, r1	; 32
    3194:	8f ec       	ldi	r24, 0xCF	; 207
    3196:	89 b9       	out	0x09, r24	; 9
    3198:	88 e1       	ldi	r24, 0x18	; 24
    319a:	8a b9       	out	0x0a, r24	; 10
    319c:	86 e8       	ldi	r24, 0x86	; 134
    319e:	80 bd       	out	0x20, r24	; 32
    31a0:	08 95       	ret

Disassembly of section .text.UART_send_byte:

00003258 <UART_send_byte>:

void UART_send_byte(u8 Data)			//A function to Transmit Char (1 Byte)
{
	while(GET_BIT(UCSRA,UDRE)==0);	//Wait until all data is transmitted
    3258:	5d 9b       	sbis	0x0b, 5	; 11
    325a:	fe cf       	rjmp	.-4      	; 0x3258 <UART_send_byte>
	UDR=Data;
    325c:	8c b9       	out	0x0c, r24	; 12
    325e:	08 95       	ret

Disassembly of section .text.UART_send_string:

00002f0a <UART_send_string>:

u8 UART_RecieveData(void)				//A function to Receive Data
{
	while(GET_BIT(UCSRA,RXC)==0);	//wait until all data is received
	return UDR;
}
    2f0a:	cf 92       	push	r12
    2f0c:	df 92       	push	r13
    2f0e:	ef 92       	push	r14
    2f10:	6b 01       	movw	r12, r22
    2f12:	e8 2e       	mov	r14, r24
    2f14:	06 c0       	rjmp	.+12     	; 0x2f22 <UART_send_string+0x18>
    2f16:	9f ef       	ldi	r25, 0xFF	; 255
    2f18:	c9 1a       	sub	r12, r25
    2f1a:	d9 0a       	sbc	r13, r25
    2f1c:	e9 0a       	sbc	r14, r25
    2f1e:	0e 94 2c 19 	call	0x3258	; 0x3258 <UART_send_byte>
    2f22:	f6 01       	movw	r30, r12
    2f24:	84 91       	lpm	r24, Z
    2f26:	e7 fc       	sbrc	r14, 7
    2f28:	80 81       	ld	r24, Z
    2f2a:	81 11       	cpse	r24, r1
    2f2c:	f4 cf       	rjmp	.-24     	; 0x2f16 <UART_send_string+0xc>
    2f2e:	ef 90       	pop	r14
    2f30:	df 90       	pop	r13
    2f32:	cf 90       	pop	r12
    2f34:	08 95       	ret

Disassembly of section .text.UART_send_float:

00002944 <UART_send_float>:
    2944:	0f 93       	push	r16
    2946:	1f 93       	push	r17
    2948:	cf 93       	push	r28
    294a:	df 93       	push	r29
    294c:	cd b7       	in	r28, 0x3d	; 61
    294e:	de b7       	in	r29, 0x3e	; 62
    2950:	2a 97       	sbiw	r28, 0x0a	; 10
    2952:	0f b6       	in	r0, 0x3f	; 63
    2954:	f8 94       	cli
    2956:	de bf       	out	0x3e, r29	; 62
    2958:	0f be       	out	0x3f, r0	; 63
    295a:	cd bf       	out	0x3d, r28	; 61
    295c:	8e 01       	movw	r16, r28
    295e:	0f 5f       	subi	r16, 0xFF	; 255
    2960:	1f 4f       	sbci	r17, 0xFF	; 255
    2962:	2a e0       	ldi	r18, 0x0A	; 10
    2964:	f8 01       	movw	r30, r16
    2966:	11 92       	st	Z+, r1
    2968:	2a 95       	dec	r18
    296a:	e9 f7       	brne	.-6      	; 0x2966 <UART_send_float+0x22>
    296c:	9f 93       	push	r25
    296e:	8f 93       	push	r24
    2970:	7f 93       	push	r23
    2972:	6f 93       	push	r22
    2974:	87 e6       	ldi	r24, 0x67	; 103
    2976:	91 e0       	ldi	r25, 0x01	; 1
    2978:	a0 e0       	ldi	r26, 0x00	; 0
    297a:	af 93       	push	r26
    297c:	9f 93       	push	r25
    297e:	8f 93       	push	r24
    2980:	1f 93       	push	r17
    2982:	0f 93       	push	r16
    2984:	0e 94 ee 17 	call	0x2fdc	; 0x2fdc <_sprintf_eE>
    2988:	b8 01       	movw	r22, r16
    298a:	80 e8       	ldi	r24, 0x80	; 128
    298c:	0e 94 85 17 	call	0x2f0a	; 0x2f0a <UART_send_string>
    2990:	0f b6       	in	r0, 0x3f	; 63
    2992:	f8 94       	cli
    2994:	de bf       	out	0x3e, r29	; 62
    2996:	0f be       	out	0x3f, r0	; 63
    2998:	cd bf       	out	0x3d, r28	; 61
    299a:	2a 96       	adiw	r28, 0x0a	; 10
    299c:	0f b6       	in	r0, 0x3f	; 63
    299e:	f8 94       	cli
    29a0:	de bf       	out	0x3e, r29	; 62
    29a2:	0f be       	out	0x3f, r0	; 63
    29a4:	cd bf       	out	0x3d, r28	; 61
    29a6:	df 91       	pop	r29
    29a8:	cf 91       	pop	r28
    29aa:	1f 91       	pop	r17
    29ac:	0f 91       	pop	r16
    29ae:	08 95       	ret

Disassembly of section .text.atan2f:

00001338 <atan2f>:
    1338:	ac e0       	ldi	r26, 0x0C	; 12
    133a:	b0 e0       	ldi	r27, 0x00	; 0
    133c:	e2 ea       	ldi	r30, 0xA2	; 162
    133e:	f9 e0       	ldi	r31, 0x09	; 9
    1340:	0c 94 ec 16 	jmp	0x2dd8	; 0x2dd8 <__prologue_saves__+0x4>
    1344:	49 01       	movw	r8, r18
    1346:	5a 01       	movw	r10, r20
    1348:	69 01       	movw	r12, r18
    134a:	7a 01       	movw	r14, r20
    134c:	5f 77       	andi	r21, 0x7F	; 127
    134e:	2d 83       	std	Y+5, r18	; 0x05
    1350:	3e 83       	std	Y+6, r19	; 0x06
    1352:	4f 83       	std	Y+7, r20	; 0x07
    1354:	58 87       	std	Y+8, r21	; 0x08
    1356:	21 30       	cpi	r18, 0x01	; 1
    1358:	31 05       	cpc	r19, r1
    135a:	40 48       	sbci	r20, 0x80	; 128
    135c:	5f 47       	sbci	r21, 0x7F	; 127
    135e:	60 f4       	brcc	.+24     	; 0x1378 <atan2f+0x40>
    1360:	9b 01       	movw	r18, r22
    1362:	ac 01       	movw	r20, r24
    1364:	5f 77       	andi	r21, 0x7F	; 127
    1366:	29 87       	std	Y+9, r18	; 0x09
    1368:	3a 87       	std	Y+10, r19	; 0x0a
    136a:	4b 87       	std	Y+11, r20	; 0x0b
    136c:	5c 87       	std	Y+12, r21	; 0x0c
    136e:	21 30       	cpi	r18, 0x01	; 1
    1370:	31 05       	cpc	r19, r1
    1372:	40 48       	sbci	r20, 0x80	; 128
    1374:	5f 47       	sbci	r21, 0x7F	; 127
    1376:	38 f0       	brcs	.+14     	; 0x1386 <atan2f+0x4e>
    1378:	9b 01       	movw	r18, r22
    137a:	ac 01       	movw	r20, r24
    137c:	c5 01       	movw	r24, r10
    137e:	b4 01       	movw	r22, r8
    1380:	0e 94 f0 18 	call	0x31e0	; 0x31e0 <__addsf3>
    1384:	1b c1       	rjmp	.+566    	; 0x15bc <atan2f+0x284>
    1386:	81 14       	cp	r8, r1
    1388:	91 04       	cpc	r9, r1
    138a:	b0 e8       	ldi	r27, 0x80	; 128
    138c:	ab 06       	cpc	r10, r27
    138e:	bf e3       	ldi	r27, 0x3F	; 63
    1390:	bb 06       	cpc	r11, r27
    1392:	19 f4       	brne	.+6      	; 0x139a <atan2f+0x62>
    1394:	0e 94 24 08 	call	0x1048	; 0x1048 <atanf>
    1398:	11 c1       	rjmp	.+546    	; 0x15bc <atan2f+0x284>
    139a:	75 01       	movw	r14, r10
    139c:	64 01       	movw	r12, r8
    139e:	2e e1       	ldi	r18, 0x1E	; 30
    13a0:	f6 94       	lsr	r15
    13a2:	e7 94       	ror	r14
    13a4:	d7 94       	ror	r13
    13a6:	c7 94       	ror	r12
    13a8:	2a 95       	dec	r18
    13aa:	d1 f7       	brne	.-12     	; 0x13a0 <atan2f+0x68>
    13ac:	97 01       	movw	r18, r14
    13ae:	86 01       	movw	r16, r12
    13b0:	02 70       	andi	r16, 0x02	; 2
    13b2:	11 27       	eor	r17, r17
    13b4:	22 27       	eor	r18, r18
    13b6:	33 27       	eor	r19, r19
    13b8:	2b 01       	movw	r4, r22
    13ba:	3c 01       	movw	r6, r24
    13bc:	44 24       	eor	r4, r4
    13be:	77 fc       	sbrc	r7, 7
    13c0:	43 94       	inc	r4
    13c2:	55 24       	eor	r5, r5
    13c4:	66 24       	eor	r6, r6
    13c6:	77 24       	eor	r7, r7
    13c8:	73 01       	movw	r14, r6
    13ca:	62 01       	movw	r12, r4
    13cc:	c0 2a       	or	r12, r16
    13ce:	d1 2a       	or	r13, r17
    13d0:	e2 2a       	or	r14, r18
    13d2:	f3 2a       	or	r15, r19
    13d4:	29 85       	ldd	r18, Y+9	; 0x09
    13d6:	3a 85       	ldd	r19, Y+10	; 0x0a
    13d8:	4b 85       	ldd	r20, Y+11	; 0x0b
    13da:	5c 85       	ldd	r21, Y+12	; 0x0c
    13dc:	23 2b       	or	r18, r19
    13de:	24 2b       	or	r18, r20
    13e0:	25 2b       	or	r18, r21
    13e2:	79 f4       	brne	.+30     	; 0x1402 <atan2f+0xca>
    13e4:	32 e0       	ldi	r19, 0x02	; 2
    13e6:	c3 16       	cp	r12, r19
    13e8:	d1 04       	cpc	r13, r1
    13ea:	e1 04       	cpc	r14, r1
    13ec:	f1 04       	cpc	r15, r1
    13ee:	09 f4       	brne	.+2      	; 0x13f2 <atan2f+0xba>
    13f0:	d3 c0       	rjmp	.+422    	; 0x1598 <atan2f+0x260>
    13f2:	43 e0       	ldi	r20, 0x03	; 3
    13f4:	c4 16       	cp	r12, r20
    13f6:	d1 04       	cpc	r13, r1
    13f8:	e1 04       	cpc	r14, r1
    13fa:	f1 04       	cpc	r15, r1
    13fc:	09 f0       	breq	.+2      	; 0x1400 <atan2f+0xc8>
    13fe:	de c0       	rjmp	.+444    	; 0x15bc <atan2f+0x284>
    1400:	66 c0       	rjmp	.+204    	; 0x14ce <atan2f+0x196>
    1402:	4d 80       	ldd	r4, Y+5	; 0x05
    1404:	5e 80       	ldd	r5, Y+6	; 0x06
    1406:	6f 80       	ldd	r6, Y+7	; 0x07
    1408:	78 84       	ldd	r7, Y+8	; 0x08
    140a:	41 14       	cp	r4, r1
    140c:	51 04       	cpc	r5, r1
    140e:	61 04       	cpc	r6, r1
    1410:	71 04       	cpc	r7, r1
    1412:	09 f4       	brne	.+2      	; 0x1416 <atan2f+0xde>
    1414:	75 c0       	rjmp	.+234    	; 0x1500 <atan2f+0x1c8>
    1416:	2d 81       	ldd	r18, Y+5	; 0x05
    1418:	3e 81       	ldd	r19, Y+6	; 0x06
    141a:	4f 81       	ldd	r20, Y+7	; 0x07
    141c:	58 85       	ldd	r21, Y+8	; 0x08
    141e:	21 15       	cp	r18, r1
    1420:	31 05       	cpc	r19, r1
    1422:	40 48       	sbci	r20, 0x80	; 128
    1424:	5f 47       	sbci	r21, 0x7F	; 127
    1426:	09 f0       	breq	.+2      	; 0x142a <atan2f+0xf2>
    1428:	57 c0       	rjmp	.+174    	; 0x14d8 <atan2f+0x1a0>
    142a:	49 84       	ldd	r4, Y+9	; 0x09
    142c:	5a 84       	ldd	r5, Y+10	; 0x0a
    142e:	6b 84       	ldd	r6, Y+11	; 0x0b
    1430:	7c 84       	ldd	r7, Y+12	; 0x0c
    1432:	41 14       	cp	r4, r1
    1434:	51 04       	cpc	r5, r1
    1436:	20 e8       	ldi	r18, 0x80	; 128
    1438:	62 06       	cpc	r6, r18
    143a:	2f e7       	ldi	r18, 0x7F	; 127
    143c:	72 06       	cpc	r7, r18
    143e:	71 f5       	brne	.+92     	; 0x149c <atan2f+0x164>
    1440:	32 e0       	ldi	r19, 0x02	; 2
    1442:	c3 16       	cp	r12, r19
    1444:	d1 04       	cpc	r13, r1
    1446:	e1 04       	cpc	r14, r1
    1448:	f1 04       	cpc	r15, r1
    144a:	91 f0       	breq	.+36     	; 0x1470 <atan2f+0x138>
    144c:	43 e0       	ldi	r20, 0x03	; 3
    144e:	c4 16       	cp	r12, r20
    1450:	d1 04       	cpc	r13, r1
    1452:	e1 04       	cpc	r14, r1
    1454:	f1 04       	cpc	r15, r1
    1456:	89 f0       	breq	.+34     	; 0x147a <atan2f+0x142>
    1458:	51 e0       	ldi	r21, 0x01	; 1
    145a:	c5 16       	cp	r12, r21
    145c:	d1 04       	cpc	r13, r1
    145e:	e1 04       	cpc	r14, r1
    1460:	f1 04       	cpc	r15, r1
    1462:	09 f0       	breq	.+2      	; 0x1466 <atan2f+0x12e>
    1464:	9e c0       	rjmp	.+316    	; 0x15a2 <atan2f+0x26a>
    1466:	6b ed       	ldi	r22, 0xDB	; 219
    1468:	7f e0       	ldi	r23, 0x0F	; 15
    146a:	89 e4       	ldi	r24, 0x49	; 73
    146c:	9f eb       	ldi	r25, 0xBF	; 191
    146e:	a6 c0       	rjmp	.+332    	; 0x15bc <atan2f+0x284>
    1470:	20 e0       	ldi	r18, 0x00	; 0
    1472:	30 e0       	ldi	r19, 0x00	; 0
    1474:	40 e4       	ldi	r20, 0x40	; 64
    1476:	50 e4       	ldi	r21, 0x40	; 64
    1478:	04 c0       	rjmp	.+8      	; 0x1482 <atan2f+0x14a>
    147a:	20 e0       	ldi	r18, 0x00	; 0
    147c:	30 e0       	ldi	r19, 0x00	; 0
    147e:	40 e4       	ldi	r20, 0x40	; 64
    1480:	50 ec       	ldi	r21, 0xC0	; 192
    1482:	6b ed       	ldi	r22, 0xDB	; 219
    1484:	7f e0       	ldi	r23, 0x0F	; 15
    1486:	89 e4       	ldi	r24, 0x49	; 73
    1488:	90 e4       	ldi	r25, 0x40	; 64
    148a:	0e 94 34 19 	call	0x3268	; 0x3268 <__mulsf3>
    148e:	20 e0       	ldi	r18, 0x00	; 0
    1490:	30 e0       	ldi	r19, 0x00	; 0
    1492:	40 e8       	ldi	r20, 0x80	; 128
    1494:	5e e3       	ldi	r21, 0x3E	; 62
    1496:	0e 94 34 19 	call	0x3268	; 0x3268 <__mulsf3>
    149a:	90 c0       	rjmp	.+288    	; 0x15bc <atan2f+0x284>
    149c:	82 e0       	ldi	r24, 0x02	; 2
    149e:	c8 16       	cp	r12, r24
    14a0:	d1 04       	cpc	r13, r1
    14a2:	e1 04       	cpc	r14, r1
    14a4:	f1 04       	cpc	r15, r1
    14a6:	09 f4       	brne	.+2      	; 0x14aa <atan2f+0x172>
    14a8:	77 c0       	rjmp	.+238    	; 0x1598 <atan2f+0x260>
    14aa:	93 e0       	ldi	r25, 0x03	; 3
    14ac:	c9 16       	cp	r12, r25
    14ae:	d1 04       	cpc	r13, r1
    14b0:	e1 04       	cpc	r14, r1
    14b2:	f1 04       	cpc	r15, r1
    14b4:	61 f0       	breq	.+24     	; 0x14ce <atan2f+0x196>
    14b6:	a1 e0       	ldi	r26, 0x01	; 1
    14b8:	ca 16       	cp	r12, r26
    14ba:	d1 04       	cpc	r13, r1
    14bc:	e1 04       	cpc	r14, r1
    14be:	f1 04       	cpc	r15, r1
    14c0:	09 f0       	breq	.+2      	; 0x14c4 <atan2f+0x18c>
    14c2:	74 c0       	rjmp	.+232    	; 0x15ac <atan2f+0x274>
    14c4:	60 e0       	ldi	r22, 0x00	; 0
    14c6:	70 e0       	ldi	r23, 0x00	; 0
    14c8:	80 e0       	ldi	r24, 0x00	; 0
    14ca:	90 e8       	ldi	r25, 0x80	; 128
    14cc:	77 c0       	rjmp	.+238    	; 0x15bc <atan2f+0x284>
    14ce:	6b ed       	ldi	r22, 0xDB	; 219
    14d0:	7f e0       	ldi	r23, 0x0F	; 15
    14d2:	89 e4       	ldi	r24, 0x49	; 73
    14d4:	90 ec       	ldi	r25, 0xC0	; 192
    14d6:	72 c0       	rjmp	.+228    	; 0x15bc <atan2f+0x284>
    14d8:	4d 80       	ldd	r4, Y+5	; 0x05
    14da:	5e 80       	ldd	r5, Y+6	; 0x06
    14dc:	6f 80       	ldd	r6, Y+7	; 0x07
    14de:	78 84       	ldd	r7, Y+8	; 0x08
    14e0:	b3 ef       	ldi	r27, 0xF3	; 243
    14e2:	7b 1a       	sub	r7, r27
    14e4:	29 85       	ldd	r18, Y+9	; 0x09
    14e6:	3a 85       	ldd	r19, Y+10	; 0x0a
    14e8:	4b 85       	ldd	r20, Y+11	; 0x0b
    14ea:	5c 85       	ldd	r21, Y+12	; 0x0c
    14ec:	42 16       	cp	r4, r18
    14ee:	53 06       	cpc	r5, r19
    14f0:	64 06       	cpc	r6, r20
    14f2:	75 06       	cpc	r7, r21
    14f4:	28 f0       	brcs	.+10     	; 0x1500 <atan2f+0x1c8>
    14f6:	21 15       	cp	r18, r1
    14f8:	31 05       	cpc	r19, r1
    14fa:	40 48       	sbci	r20, 0x80	; 128
    14fc:	5f 47       	sbci	r21, 0x7F	; 127
    14fe:	39 f4       	brne	.+14     	; 0x150e <atan2f+0x1d6>
    1500:	c0 fe       	sbrs	r12, 0
    1502:	58 c0       	rjmp	.+176    	; 0x15b4 <atan2f+0x27c>
    1504:	6b ed       	ldi	r22, 0xDB	; 219
    1506:	7f e0       	ldi	r23, 0x0F	; 15
    1508:	89 ec       	ldi	r24, 0xC9	; 201
    150a:	9f eb       	ldi	r25, 0xBF	; 191
    150c:	57 c0       	rjmp	.+174    	; 0x15bc <atan2f+0x284>
    150e:	c1 fe       	sbrs	r12, 1
    1510:	0e c0       	rjmp	.+28     	; 0x152e <atan2f+0x1f6>
    1512:	09 85       	ldd	r16, Y+9	; 0x09
    1514:	1a 85       	ldd	r17, Y+10	; 0x0a
    1516:	2b 85       	ldd	r18, Y+11	; 0x0b
    1518:	3c 85       	ldd	r19, Y+12	; 0x0c
    151a:	33 5f       	subi	r19, 0xF3	; 243
    151c:	4d 80       	ldd	r4, Y+5	; 0x05
    151e:	5e 80       	ldd	r5, Y+6	; 0x06
    1520:	6f 80       	ldd	r6, Y+7	; 0x07
    1522:	78 84       	ldd	r7, Y+8	; 0x08
    1524:	04 15       	cp	r16, r4
    1526:	15 05       	cpc	r17, r5
    1528:	26 05       	cpc	r18, r6
    152a:	37 05       	cpc	r19, r7
    152c:	48 f0       	brcs	.+18     	; 0x1540 <atan2f+0x208>
    152e:	a5 01       	movw	r20, r10
    1530:	94 01       	movw	r18, r8
    1532:	0e 94 30 19 	call	0x3260	; 0x3260 <__divsf3>
    1536:	0e 94 46 19 	call	0x328c	; 0x328c <fabsf>
    153a:	0e 94 24 08 	call	0x1048	; 0x1048 <atanf>
    153e:	03 c0       	rjmp	.+6      	; 0x1546 <atan2f+0x20e>
    1540:	60 e0       	ldi	r22, 0x00	; 0
    1542:	70 e0       	ldi	r23, 0x00	; 0
    1544:	cb 01       	movw	r24, r22
    1546:	21 e0       	ldi	r18, 0x01	; 1
    1548:	c2 16       	cp	r12, r18
    154a:	d1 04       	cpc	r13, r1
    154c:	e1 04       	cpc	r14, r1
    154e:	f1 04       	cpc	r15, r1
    1550:	a1 f0       	breq	.+40     	; 0x157a <atan2f+0x242>
    1552:	a0 f1       	brcs	.+104    	; 0x15bc <atan2f+0x284>
    1554:	42 e0       	ldi	r20, 0x02	; 2
    1556:	c4 16       	cp	r12, r20
    1558:	d1 04       	cpc	r13, r1
    155a:	e1 04       	cpc	r14, r1
    155c:	f1 04       	cpc	r15, r1
    155e:	79 f4       	brne	.+30     	; 0x157e <atan2f+0x246>
    1560:	2e e2       	ldi	r18, 0x2E	; 46
    1562:	3d eb       	ldi	r19, 0xBD	; 189
    1564:	4b eb       	ldi	r20, 0xBB	; 187
    1566:	53 e3       	ldi	r21, 0x33	; 51
    1568:	0e 94 f0 18 	call	0x31e0	; 0x31e0 <__addsf3>
    156c:	9b 01       	movw	r18, r22
    156e:	ac 01       	movw	r20, r24
    1570:	6b ed       	ldi	r22, 0xDB	; 219
    1572:	7f e0       	ldi	r23, 0x0F	; 15
    1574:	89 e4       	ldi	r24, 0x49	; 73
    1576:	90 e4       	ldi	r25, 0x40	; 64
    1578:	0c c0       	rjmp	.+24     	; 0x1592 <atan2f+0x25a>
    157a:	90 58       	subi	r25, 0x80	; 128
    157c:	1f c0       	rjmp	.+62     	; 0x15bc <atan2f+0x284>
    157e:	2e e2       	ldi	r18, 0x2E	; 46
    1580:	3d eb       	ldi	r19, 0xBD	; 189
    1582:	4b eb       	ldi	r20, 0xBB	; 187
    1584:	53 e3       	ldi	r21, 0x33	; 51
    1586:	0e 94 f0 18 	call	0x31e0	; 0x31e0 <__addsf3>
    158a:	2b ed       	ldi	r18, 0xDB	; 219
    158c:	3f e0       	ldi	r19, 0x0F	; 15
    158e:	49 e4       	ldi	r20, 0x49	; 73
    1590:	50 e4       	ldi	r21, 0x40	; 64
    1592:	0e 94 ef 18 	call	0x31de	; 0x31de <__subsf3>
    1596:	12 c0       	rjmp	.+36     	; 0x15bc <atan2f+0x284>
    1598:	6b ed       	ldi	r22, 0xDB	; 219
    159a:	7f e0       	ldi	r23, 0x0F	; 15
    159c:	89 e4       	ldi	r24, 0x49	; 73
    159e:	90 e4       	ldi	r25, 0x40	; 64
    15a0:	0d c0       	rjmp	.+26     	; 0x15bc <atan2f+0x284>
    15a2:	6b ed       	ldi	r22, 0xDB	; 219
    15a4:	7f e0       	ldi	r23, 0x0F	; 15
    15a6:	89 e4       	ldi	r24, 0x49	; 73
    15a8:	9f e3       	ldi	r25, 0x3F	; 63
    15aa:	08 c0       	rjmp	.+16     	; 0x15bc <atan2f+0x284>
    15ac:	60 e0       	ldi	r22, 0x00	; 0
    15ae:	70 e0       	ldi	r23, 0x00	; 0
    15b0:	cb 01       	movw	r24, r22
    15b2:	04 c0       	rjmp	.+8      	; 0x15bc <atan2f+0x284>
    15b4:	6b ed       	ldi	r22, 0xDB	; 219
    15b6:	7f e0       	ldi	r23, 0x0F	; 15
    15b8:	89 ec       	ldi	r24, 0xC9	; 201
    15ba:	9f e3       	ldi	r25, 0x3F	; 63
    15bc:	2c 96       	adiw	r28, 0x0c	; 12
    15be:	e0 e1       	ldi	r30, 0x10	; 16
    15c0:	0c 94 23 17 	jmp	0x2e46	; 0x2e46 <__epilogue_restores__+0x4>

Disassembly of section .text.atanf:

00001048 <atanf>:
    1048:	ab e0       	ldi	r26, 0x0B	; 11
    104a:	b0 e0       	ldi	r27, 0x00	; 0
    104c:	ea e2       	ldi	r30, 0x2A	; 42
    104e:	f8 e0       	ldi	r31, 0x08	; 8
    1050:	0c 94 ec 16 	jmp	0x2dd8	; 0x2dd8 <__prologue_saves__+0x4>
    1054:	6b 01       	movw	r12, r22
    1056:	7c 01       	movw	r14, r24
    1058:	9b 01       	movw	r18, r22
    105a:	ac 01       	movw	r20, r24
    105c:	22 27       	eor	r18, r18
    105e:	57 fd       	sbrc	r21, 7
    1060:	23 95       	inc	r18
    1062:	33 27       	eor	r19, r19
    1064:	44 27       	eor	r20, r20
    1066:	55 27       	eor	r21, r21
    1068:	2d 83       	std	Y+5, r18	; 0x05
    106a:	3e 83       	std	Y+6, r19	; 0x06
    106c:	4f 83       	std	Y+7, r20	; 0x07
    106e:	58 87       	std	Y+8, r21	; 0x08
    1070:	46 01       	movw	r8, r12
    1072:	57 01       	movw	r10, r14
    1074:	e8 94       	clt
    1076:	b7 f8       	bld	r11, 7
    1078:	81 14       	cp	r8, r1
    107a:	91 04       	cpc	r9, r1
    107c:	30 e8       	ldi	r19, 0x80	; 128
    107e:	a3 06       	cpc	r10, r19
    1080:	3c e4       	ldi	r19, 0x4C	; 76
    1082:	b3 06       	cpc	r11, r19
    1084:	a0 f0       	brcs	.+40     	; 0x10ae <atanf+0x66>
    1086:	41 e0       	ldi	r20, 0x01	; 1
    1088:	84 16       	cp	r8, r20
    108a:	91 04       	cpc	r9, r1
    108c:	40 e8       	ldi	r20, 0x80	; 128
    108e:	a4 06       	cpc	r10, r20
    1090:	4f e7       	ldi	r20, 0x7F	; 127
    1092:	b4 06       	cpc	r11, r20
    1094:	08 f0       	brcs	.+2      	; 0x1098 <atanf+0x50>
    1096:	4a c1       	rjmp	.+660    	; 0x132c <atanf+0x2e4>
    1098:	20 e0       	ldi	r18, 0x00	; 0
    109a:	30 e0       	ldi	r19, 0x00	; 0
    109c:	40 e8       	ldi	r20, 0x80	; 128
    109e:	53 e0       	ldi	r21, 0x03	; 3
    10a0:	6a ed       	ldi	r22, 0xDA	; 218
    10a2:	7f e0       	ldi	r23, 0x0F	; 15
    10a4:	89 ec       	ldi	r24, 0xC9	; 201
    10a6:	9f e3       	ldi	r25, 0x3F	; 63
    10a8:	0e 94 f0 18 	call	0x31e0	; 0x31e0 <__addsf3>
    10ac:	35 c1       	rjmp	.+618    	; 0x1318 <atanf+0x2d0>
    10ae:	81 14       	cp	r8, r1
    10b0:	91 04       	cpc	r9, r1
    10b2:	30 ee       	ldi	r19, 0xE0	; 224
    10b4:	a3 06       	cpc	r10, r19
    10b6:	3e e3       	ldi	r19, 0x3E	; 62
    10b8:	b3 06       	cpc	r11, r19
    10ba:	d0 f4       	brcc	.+52     	; 0x10f0 <atanf+0xa8>
    10bc:	81 14       	cp	r8, r1
    10be:	91 04       	cpc	r9, r1
    10c0:	40 e8       	ldi	r20, 0x80	; 128
    10c2:	a4 06       	cpc	r10, r20
    10c4:	49 e3       	ldi	r20, 0x39	; 57
    10c6:	b4 06       	cpc	r11, r20
    10c8:	08 f0       	brcs	.+2      	; 0x10cc <atanf+0x84>
    10ca:	9c c0       	rjmp	.+312    	; 0x1204 <atanf+0x1bc>
    10cc:	81 14       	cp	r8, r1
    10ce:	91 04       	cpc	r9, r1
    10d0:	50 e8       	ldi	r21, 0x80	; 128
    10d2:	a5 06       	cpc	r10, r21
    10d4:	b1 04       	cpc	r11, r1
    10d6:	08 f0       	brcs	.+2      	; 0x10da <atanf+0x92>
    10d8:	29 c1       	rjmp	.+594    	; 0x132c <atanf+0x2e4>
    10da:	a7 01       	movw	r20, r14
    10dc:	96 01       	movw	r18, r12
    10de:	c7 01       	movw	r24, r14
    10e0:	b6 01       	movw	r22, r12
    10e2:	0e 94 34 19 	call	0x3268	; 0x3268 <__mulsf3>
    10e6:	69 83       	std	Y+1, r22	; 0x01
    10e8:	7a 83       	std	Y+2, r23	; 0x02
    10ea:	8b 83       	std	Y+3, r24	; 0x03
    10ec:	9c 83       	std	Y+4, r25	; 0x04
    10ee:	1e c1       	rjmp	.+572    	; 0x132c <atanf+0x2e4>
    10f0:	c7 01       	movw	r24, r14
    10f2:	b6 01       	movw	r22, r12
    10f4:	0e 94 46 19 	call	0x328c	; 0x328c <fabsf>
    10f8:	6b 01       	movw	r12, r22
    10fa:	7c 01       	movw	r14, r24
    10fc:	81 14       	cp	r8, r1
    10fe:	91 04       	cpc	r9, r1
    1100:	88 e9       	ldi	r24, 0x98	; 152
    1102:	a8 06       	cpc	r10, r24
    1104:	8f e3       	ldi	r24, 0x3F	; 63
    1106:	b8 06       	cpc	r11, r24
    1108:	08 f0       	brcs	.+2      	; 0x110c <atanf+0xc4>
    110a:	45 c0       	rjmp	.+138    	; 0x1196 <atanf+0x14e>
    110c:	81 14       	cp	r8, r1
    110e:	91 04       	cpc	r9, r1
    1110:	90 e3       	ldi	r25, 0x30	; 48
    1112:	a9 06       	cpc	r10, r25
    1114:	9f e3       	ldi	r25, 0x3F	; 63
    1116:	b9 06       	cpc	r11, r25
    1118:	08 f5       	brcc	.+66     	; 0x115c <atanf+0x114>
    111a:	a7 01       	movw	r20, r14
    111c:	96 01       	movw	r18, r12
    111e:	c7 01       	movw	r24, r14
    1120:	b6 01       	movw	r22, r12
    1122:	0e 94 f0 18 	call	0x31e0	; 0x31e0 <__addsf3>
    1126:	20 e0       	ldi	r18, 0x00	; 0
    1128:	30 e0       	ldi	r19, 0x00	; 0
    112a:	40 e8       	ldi	r20, 0x80	; 128
    112c:	5f e3       	ldi	r21, 0x3F	; 63
    112e:	0e 94 ef 18 	call	0x31de	; 0x31de <__subsf3>
    1132:	4b 01       	movw	r8, r22
    1134:	5c 01       	movw	r10, r24
    1136:	20 e0       	ldi	r18, 0x00	; 0
    1138:	30 e0       	ldi	r19, 0x00	; 0
    113a:	40 e0       	ldi	r20, 0x00	; 0
    113c:	50 e4       	ldi	r21, 0x40	; 64
    113e:	c7 01       	movw	r24, r14
    1140:	b6 01       	movw	r22, r12
    1142:	0e 94 f0 18 	call	0x31e0	; 0x31e0 <__addsf3>
    1146:	9b 01       	movw	r18, r22
    1148:	ac 01       	movw	r20, r24
    114a:	c5 01       	movw	r24, r10
    114c:	b4 01       	movw	r22, r8
    114e:	0e 94 30 19 	call	0x3260	; 0x3260 <__divsf3>
    1152:	6b 01       	movw	r12, r22
    1154:	7c 01       	movw	r14, r24
    1156:	00 e0       	ldi	r16, 0x00	; 0
    1158:	10 e0       	ldi	r17, 0x00	; 0
    115a:	56 c0       	rjmp	.+172    	; 0x1208 <atanf+0x1c0>
    115c:	20 e0       	ldi	r18, 0x00	; 0
    115e:	30 e0       	ldi	r19, 0x00	; 0
    1160:	40 e8       	ldi	r20, 0x80	; 128
    1162:	5f e3       	ldi	r21, 0x3F	; 63
    1164:	c7 01       	movw	r24, r14
    1166:	b6 01       	movw	r22, r12
    1168:	0e 94 ef 18 	call	0x31de	; 0x31de <__subsf3>
    116c:	4b 01       	movw	r8, r22
    116e:	5c 01       	movw	r10, r24
    1170:	20 e0       	ldi	r18, 0x00	; 0
    1172:	30 e0       	ldi	r19, 0x00	; 0
    1174:	40 e8       	ldi	r20, 0x80	; 128
    1176:	5f e3       	ldi	r21, 0x3F	; 63
    1178:	c7 01       	movw	r24, r14
    117a:	b6 01       	movw	r22, r12
    117c:	0e 94 f0 18 	call	0x31e0	; 0x31e0 <__addsf3>
    1180:	9b 01       	movw	r18, r22
    1182:	ac 01       	movw	r20, r24
    1184:	c5 01       	movw	r24, r10
    1186:	b4 01       	movw	r22, r8
    1188:	0e 94 30 19 	call	0x3260	; 0x3260 <__divsf3>
    118c:	6b 01       	movw	r12, r22
    118e:	7c 01       	movw	r14, r24
    1190:	01 e0       	ldi	r16, 0x01	; 1
    1192:	10 e0       	ldi	r17, 0x00	; 0
    1194:	39 c0       	rjmp	.+114    	; 0x1208 <atanf+0x1c0>
    1196:	81 14       	cp	r8, r1
    1198:	91 04       	cpc	r9, r1
    119a:	ac e1       	ldi	r26, 0x1C	; 28
    119c:	aa 06       	cpc	r10, r26
    119e:	a0 e4       	ldi	r26, 0x40	; 64
    11a0:	ba 06       	cpc	r11, r26
    11a2:	18 f5       	brcc	.+70     	; 0x11ea <atanf+0x1a2>
    11a4:	20 e0       	ldi	r18, 0x00	; 0
    11a6:	30 e0       	ldi	r19, 0x00	; 0
    11a8:	40 ec       	ldi	r20, 0xC0	; 192
    11aa:	5f e3       	ldi	r21, 0x3F	; 63
    11ac:	c7 01       	movw	r24, r14
    11ae:	b6 01       	movw	r22, r12
    11b0:	0e 94 ef 18 	call	0x31de	; 0x31de <__subsf3>
    11b4:	4b 01       	movw	r8, r22
    11b6:	5c 01       	movw	r10, r24
    11b8:	20 e0       	ldi	r18, 0x00	; 0
    11ba:	30 e0       	ldi	r19, 0x00	; 0
    11bc:	40 ec       	ldi	r20, 0xC0	; 192
    11be:	5f e3       	ldi	r21, 0x3F	; 63
    11c0:	c7 01       	movw	r24, r14
    11c2:	b6 01       	movw	r22, r12
    11c4:	0e 94 34 19 	call	0x3268	; 0x3268 <__mulsf3>
    11c8:	20 e0       	ldi	r18, 0x00	; 0
    11ca:	30 e0       	ldi	r19, 0x00	; 0
    11cc:	40 e8       	ldi	r20, 0x80	; 128
    11ce:	5f e3       	ldi	r21, 0x3F	; 63
    11d0:	0e 94 f0 18 	call	0x31e0	; 0x31e0 <__addsf3>
    11d4:	9b 01       	movw	r18, r22
    11d6:	ac 01       	movw	r20, r24
    11d8:	c5 01       	movw	r24, r10
    11da:	b4 01       	movw	r22, r8
    11dc:	0e 94 30 19 	call	0x3260	; 0x3260 <__divsf3>
    11e0:	6b 01       	movw	r12, r22
    11e2:	7c 01       	movw	r14, r24
    11e4:	02 e0       	ldi	r16, 0x02	; 2
    11e6:	10 e0       	ldi	r17, 0x00	; 0
    11e8:	0f c0       	rjmp	.+30     	; 0x1208 <atanf+0x1c0>
    11ea:	a7 01       	movw	r20, r14
    11ec:	96 01       	movw	r18, r12
    11ee:	60 e0       	ldi	r22, 0x00	; 0
    11f0:	70 e0       	ldi	r23, 0x00	; 0
    11f2:	80 e8       	ldi	r24, 0x80	; 128
    11f4:	9f eb       	ldi	r25, 0xBF	; 191
    11f6:	0e 94 30 19 	call	0x3260	; 0x3260 <__divsf3>
    11fa:	6b 01       	movw	r12, r22
    11fc:	7c 01       	movw	r14, r24
    11fe:	03 e0       	ldi	r16, 0x03	; 3
    1200:	10 e0       	ldi	r17, 0x00	; 0
    1202:	02 c0       	rjmp	.+4      	; 0x1208 <atanf+0x1c0>
    1204:	0f ef       	ldi	r16, 0xFF	; 255
    1206:	1f ef       	ldi	r17, 0xFF	; 255
    1208:	a7 01       	movw	r20, r14
    120a:	96 01       	movw	r18, r12
    120c:	c7 01       	movw	r24, r14
    120e:	b6 01       	movw	r22, r12
    1210:	0e 94 34 19 	call	0x3268	; 0x3268 <__mulsf3>
    1214:	2b 01       	movw	r4, r22
    1216:	3c 01       	movw	r6, r24
    1218:	9b 01       	movw	r18, r22
    121a:	ac 01       	movw	r20, r24
    121c:	0e 94 34 19 	call	0x3268	; 0x3268 <__mulsf3>
    1220:	4b 01       	movw	r8, r22
    1222:	5c 01       	movw	r10, r24
    1224:	25 e2       	ldi	r18, 0x25	; 37
    1226:	3c ea       	ldi	r19, 0xAC	; 172
    1228:	4c e7       	ldi	r20, 0x7C	; 124
    122a:	5d e3       	ldi	r21, 0x3D	; 61
    122c:	0e 94 34 19 	call	0x3268	; 0x3268 <__mulsf3>
    1230:	2d e0       	ldi	r18, 0x0D	; 13
    1232:	35 ef       	ldi	r19, 0xF5	; 245
    1234:	41 e1       	ldi	r20, 0x11	; 17
    1236:	5e e3       	ldi	r21, 0x3E	; 62
    1238:	0e 94 f0 18 	call	0x31e0	; 0x31e0 <__addsf3>
    123c:	a5 01       	movw	r20, r10
    123e:	94 01       	movw	r18, r8
    1240:	0e 94 34 19 	call	0x3268	; 0x3268 <__mulsf3>
    1244:	29 ea       	ldi	r18, 0xA9	; 169
    1246:	3a ea       	ldi	r19, 0xAA	; 170
    1248:	4a ea       	ldi	r20, 0xAA	; 170
    124a:	5e e3       	ldi	r21, 0x3E	; 62
    124c:	0e 94 f0 18 	call	0x31e0	; 0x31e0 <__addsf3>
    1250:	a3 01       	movw	r20, r6
    1252:	92 01       	movw	r18, r4
    1254:	0e 94 34 19 	call	0x3268	; 0x3268 <__mulsf3>
    1258:	2b 01       	movw	r4, r22
    125a:	3c 01       	movw	r6, r24
    125c:	27 e4       	ldi	r18, 0x47	; 71
    125e:	32 e1       	ldi	r19, 0x12	; 18
    1260:	4a ed       	ldi	r20, 0xDA	; 218
    1262:	5d eb       	ldi	r21, 0xBD	; 189
    1264:	c5 01       	movw	r24, r10
    1266:	b4 01       	movw	r22, r8
    1268:	0e 94 34 19 	call	0x3268	; 0x3268 <__mulsf3>
    126c:	28 e9       	ldi	r18, 0x98	; 152
    126e:	3a ec       	ldi	r19, 0xCA	; 202
    1270:	4c e4       	ldi	r20, 0x4C	; 76
    1272:	5e e3       	ldi	r21, 0x3E	; 62
    1274:	0e 94 ef 18 	call	0x31de	; 0x31de <__subsf3>
    1278:	a5 01       	movw	r20, r10
    127a:	94 01       	movw	r18, r8
    127c:	0e 94 34 19 	call	0x3268	; 0x3268 <__mulsf3>
    1280:	9b 01       	movw	r18, r22
    1282:	ac 01       	movw	r20, r24
    1284:	0f 3f       	cpi	r16, 0xFF	; 255
    1286:	bf ef       	ldi	r27, 0xFF	; 255
    1288:	1b 07       	cpc	r17, r27
    128a:	79 f4       	brne	.+30     	; 0x12aa <atanf+0x262>
    128c:	c3 01       	movw	r24, r6
    128e:	b2 01       	movw	r22, r4
    1290:	0e 94 f0 18 	call	0x31e0	; 0x31e0 <__addsf3>
    1294:	a7 01       	movw	r20, r14
    1296:	96 01       	movw	r18, r12
    1298:	0e 94 34 19 	call	0x3268	; 0x3268 <__mulsf3>
    129c:	9b 01       	movw	r18, r22
    129e:	ac 01       	movw	r20, r24
    12a0:	c7 01       	movw	r24, r14
    12a2:	b6 01       	movw	r22, r12
    12a4:	0e 94 ef 18 	call	0x31de	; 0x31de <__subsf3>
    12a8:	43 c0       	rjmp	.+134    	; 0x1330 <atanf+0x2e8>
    12aa:	00 0f       	add	r16, r16
    12ac:	11 1f       	adc	r17, r17
    12ae:	00 0f       	add	r16, r16
    12b0:	11 1f       	adc	r17, r17
    12b2:	48 01       	movw	r8, r16
    12b4:	11 0f       	add	r17, r17
    12b6:	aa 08       	sbc	r10, r10
    12b8:	aa 2d       	mov	r26, r10
    12ba:	c4 01       	movw	r24, r8
    12bc:	8f 5b       	subi	r24, 0xBF	; 191
    12be:	9e 4f       	sbci	r25, 0xFE	; 254
    12c0:	af 4f       	sbci	r26, 0xFF	; 255
    12c2:	89 87       	std	Y+9, r24	; 0x09
    12c4:	9a 87       	std	Y+10, r25	; 0x0a
    12c6:	ab 87       	std	Y+11, r26	; 0x0b
    12c8:	c3 01       	movw	r24, r6
    12ca:	b2 01       	movw	r22, r4
    12cc:	0e 94 f0 18 	call	0x31e0	; 0x31e0 <__addsf3>
    12d0:	a7 01       	movw	r20, r14
    12d2:	96 01       	movw	r18, r12
    12d4:	0e 94 34 19 	call	0x3268	; 0x3268 <__mulsf3>
    12d8:	2b 01       	movw	r4, r22
    12da:	3c 01       	movw	r6, r24
    12dc:	aa 2d       	mov	r26, r10
    12de:	c4 01       	movw	r24, r8
    12e0:	8f 5c       	subi	r24, 0xCF	; 207
    12e2:	9e 4f       	sbci	r25, 0xFE	; 254
    12e4:	af 4f       	sbci	r26, 0xFF	; 255
    12e6:	fc 01       	movw	r30, r24
    12e8:	5a 2f       	mov	r21, r26
    12ea:	0e 94 69 18 	call	0x30d2	; 0x30d2 <__xload_4>
    12ee:	9b 01       	movw	r18, r22
    12f0:	ac 01       	movw	r20, r24
    12f2:	c3 01       	movw	r24, r6
    12f4:	b2 01       	movw	r22, r4
    12f6:	0e 94 ef 18 	call	0x31de	; 0x31de <__subsf3>
    12fa:	a7 01       	movw	r20, r14
    12fc:	96 01       	movw	r18, r12
    12fe:	0e 94 ef 18 	call	0x31de	; 0x31de <__subsf3>
    1302:	8b 01       	movw	r16, r22
    1304:	9c 01       	movw	r18, r24
    1306:	e9 85       	ldd	r30, Y+9	; 0x09
    1308:	fa 85       	ldd	r31, Y+10	; 0x0a
    130a:	5b 85       	ldd	r21, Y+11	; 0x0b
    130c:	0e 94 69 18 	call	0x30d2	; 0x30d2 <__xload_4>
    1310:	a9 01       	movw	r20, r18
    1312:	98 01       	movw	r18, r16
    1314:	0e 94 ef 18 	call	0x31de	; 0x31de <__subsf3>
    1318:	2d 81       	ldd	r18, Y+5	; 0x05
    131a:	3e 81       	ldd	r19, Y+6	; 0x06
    131c:	4f 81       	ldd	r20, Y+7	; 0x07
    131e:	58 85       	ldd	r21, Y+8	; 0x08
    1320:	23 2b       	or	r18, r19
    1322:	24 2b       	or	r18, r20
    1324:	25 2b       	or	r18, r21
    1326:	21 f0       	breq	.+8      	; 0x1330 <atanf+0x2e8>
    1328:	90 58       	subi	r25, 0x80	; 128
    132a:	02 c0       	rjmp	.+4      	; 0x1330 <atanf+0x2e8>
    132c:	c7 01       	movw	r24, r14
    132e:	b6 01       	movw	r22, r12
    1330:	2b 96       	adiw	r28, 0x0b	; 11
    1332:	e0 e1       	ldi	r30, 0x10	; 16
    1334:	0c 94 23 17 	jmp	0x2e46	; 0x2e46 <__epilogue_restores__+0x4>

Disassembly of section .text:

000031de <__subsf3>:
    31de:	50 58       	subi	r21, 0x80	; 128

000031e0 <__addsf3>:
    31e0:	bb 27       	eor	r27, r27
    31e2:	aa 27       	eor	r26, r26
    31e4:	0e 94 53 12 	call	0x24a6	; 0x24a6 <__addsf3x>
    31e8:	0c 94 24 18 	jmp	0x3048	; 0x3048 <__fp_round>

Disassembly of section .text:

000024a6 <__addsf3x>:
    24a6:	11 c0       	rjmp	.+34     	; 0x24ca <__addsf3x+0x24>
    24a8:	0e 94 fd 18 	call	0x31fa	; 0x31fa <__fp_pscA>
    24ac:	38 f0       	brcs	.+14     	; 0x24bc <__addsf3x+0x16>
    24ae:	0e 94 04 19 	call	0x3208	; 0x3208 <__fp_pscB>
    24b2:	20 f0       	brcs	.+8      	; 0x24bc <__addsf3x+0x16>
    24b4:	39 f4       	brne	.+14     	; 0x24c4 <__addsf3x+0x1e>
    24b6:	9f 3f       	cpi	r25, 0xFF	; 255
    24b8:	19 f4       	brne	.+6      	; 0x24c0 <__addsf3x+0x1a>
    24ba:	26 f4       	brtc	.+8      	; 0x24c4 <__addsf3x+0x1e>
    24bc:	0c 94 38 19 	jmp	0x3270	; 0x3270 <__fp_nan>
    24c0:	0e f4       	brtc	.+2      	; 0x24c4 <__addsf3x+0x1e>
    24c2:	e0 95       	com	r30
    24c4:	e7 fb       	bst	r30, 7
    24c6:	0c 94 18 19 	jmp	0x3230	; 0x3230 <__fp_inf>
    24ca:	e9 2f       	mov	r30, r25
    24cc:	0e 94 11 16 	call	0x2c22	; 0x2c22 <__fp_split3>
    24d0:	58 f3       	brcs	.-42     	; 0x24a8 <__addsf3x+0x2>
    24d2:	ba 17       	cp	r27, r26
    24d4:	62 07       	cpc	r22, r18
    24d6:	73 07       	cpc	r23, r19
    24d8:	84 07       	cpc	r24, r20
    24da:	95 07       	cpc	r25, r21
    24dc:	20 f0       	brcs	.+8      	; 0x24e6 <__addsf3x+0x40>
    24de:	79 f4       	brne	.+30     	; 0x24fe <__addsf3x+0x58>
    24e0:	a6 f5       	brtc	.+104    	; 0x254a <__addsf3x+0xa4>
    24e2:	0c 94 0b 19 	jmp	0x3216	; 0x3216 <__fp_zero>
    24e6:	0e f4       	brtc	.+2      	; 0x24ea <__addsf3x+0x44>
    24e8:	e0 95       	com	r30
    24ea:	0b 2e       	mov	r0, r27
    24ec:	ba 2f       	mov	r27, r26
    24ee:	a0 2d       	mov	r26, r0
    24f0:	0b 01       	movw	r0, r22
    24f2:	b9 01       	movw	r22, r18
    24f4:	90 01       	movw	r18, r0
    24f6:	0c 01       	movw	r0, r24
    24f8:	ca 01       	movw	r24, r20
    24fa:	a0 01       	movw	r20, r0
    24fc:	11 24       	eor	r1, r1
    24fe:	ff 27       	eor	r31, r31
    2500:	59 1b       	sub	r21, r25
    2502:	99 f0       	breq	.+38     	; 0x252a <__addsf3x+0x84>
    2504:	59 3f       	cpi	r21, 0xF9	; 249
    2506:	50 f4       	brcc	.+20     	; 0x251c <__addsf3x+0x76>
    2508:	50 3e       	cpi	r21, 0xE0	; 224
    250a:	68 f1       	brcs	.+90     	; 0x2566 <__addsf3x+0xc0>
    250c:	1a 16       	cp	r1, r26
    250e:	f0 40       	sbci	r31, 0x00	; 0
    2510:	a2 2f       	mov	r26, r18
    2512:	23 2f       	mov	r18, r19
    2514:	34 2f       	mov	r19, r20
    2516:	44 27       	eor	r20, r20
    2518:	58 5f       	subi	r21, 0xF8	; 248
    251a:	f3 cf       	rjmp	.-26     	; 0x2502 <__addsf3x+0x5c>
    251c:	46 95       	lsr	r20
    251e:	37 95       	ror	r19
    2520:	27 95       	ror	r18
    2522:	a7 95       	ror	r26
    2524:	f0 40       	sbci	r31, 0x00	; 0
    2526:	53 95       	inc	r21
    2528:	c9 f7       	brne	.-14     	; 0x251c <__addsf3x+0x76>
    252a:	7e f4       	brtc	.+30     	; 0x254a <__addsf3x+0xa4>
    252c:	1f 16       	cp	r1, r31
    252e:	ba 0b       	sbc	r27, r26
    2530:	62 0b       	sbc	r22, r18
    2532:	73 0b       	sbc	r23, r19
    2534:	84 0b       	sbc	r24, r20
    2536:	ba f0       	brmi	.+46     	; 0x2566 <__addsf3x+0xc0>
    2538:	91 50       	subi	r25, 0x01	; 1
    253a:	a1 f0       	breq	.+40     	; 0x2564 <__addsf3x+0xbe>
    253c:	ff 0f       	add	r31, r31
    253e:	bb 1f       	adc	r27, r27
    2540:	66 1f       	adc	r22, r22
    2542:	77 1f       	adc	r23, r23
    2544:	88 1f       	adc	r24, r24
    2546:	c2 f7       	brpl	.-16     	; 0x2538 <__addsf3x+0x92>
    2548:	0e c0       	rjmp	.+28     	; 0x2566 <__addsf3x+0xc0>
    254a:	ba 0f       	add	r27, r26
    254c:	62 1f       	adc	r22, r18
    254e:	73 1f       	adc	r23, r19
    2550:	84 1f       	adc	r24, r20
    2552:	48 f4       	brcc	.+18     	; 0x2566 <__addsf3x+0xc0>
    2554:	87 95       	ror	r24
    2556:	77 95       	ror	r23
    2558:	67 95       	ror	r22
    255a:	b7 95       	ror	r27
    255c:	f7 95       	ror	r31
    255e:	9e 3f       	cpi	r25, 0xFE	; 254
    2560:	08 f0       	brcs	.+2      	; 0x2564 <__addsf3x+0xbe>
    2562:	b0 cf       	rjmp	.-160    	; 0x24c4 <__addsf3x+0x1e>
    2564:	93 95       	inc	r25
    2566:	88 0f       	add	r24, r24
    2568:	08 f0       	brcs	.+2      	; 0x256c <__addsf3x+0xc6>
    256a:	99 27       	eor	r25, r25
    256c:	ee 0f       	add	r30, r30
    256e:	97 95       	ror	r25
    2570:	87 95       	ror	r24
    2572:	08 95       	ret

Disassembly of section .text:

0000323c <__cmpsf2>:
    323c:	0e 94 ed 15 	call	0x2bda	; 0x2bda <__fp_cmp>
    3240:	08 f4       	brcc	.+2      	; 0x3244 <__cmpsf2+0x8>
    3242:	81 e0       	ldi	r24, 0x01	; 1
    3244:	08 95       	ret

Disassembly of section .text:

00003260 <__divsf3>:
    3260:	0e 94 0e 11 	call	0x221c	; 0x221c <__divsf3x>
    3264:	0c 94 24 18 	jmp	0x3048	; 0x3048 <__fp_round>

Disassembly of section .text:

0000221c <__divsf3x>:
    221c:	10 c0       	rjmp	.+32     	; 0x223e <__divsf3x+0x22>
    221e:	0e 94 04 19 	call	0x3208	; 0x3208 <__fp_pscB>
    2222:	58 f0       	brcs	.+22     	; 0x223a <__divsf3x+0x1e>
    2224:	0e 94 fd 18 	call	0x31fa	; 0x31fa <__fp_pscA>
    2228:	40 f0       	brcs	.+16     	; 0x223a <__divsf3x+0x1e>
    222a:	29 f4       	brne	.+10     	; 0x2236 <__divsf3x+0x1a>
    222c:	5f 3f       	cpi	r21, 0xFF	; 255
    222e:	29 f0       	breq	.+10     	; 0x223a <__divsf3x+0x1e>
    2230:	0c 94 18 19 	jmp	0x3230	; 0x3230 <__fp_inf>
    2234:	51 11       	cpse	r21, r1
    2236:	0c 94 0c 19 	jmp	0x3218	; 0x3218 <__fp_szero>
    223a:	0c 94 38 19 	jmp	0x3270	; 0x3270 <__fp_nan>
    223e:	0e 94 11 16 	call	0x2c22	; 0x2c22 <__fp_split3>
    2242:	68 f3       	brcs	.-38     	; 0x221e <__divsf3x+0x2>

00002244 <__divsf3_pse>:
    2244:	99 23       	and	r25, r25
    2246:	b1 f3       	breq	.-20     	; 0x2234 <__divsf3x+0x18>
    2248:	55 23       	and	r21, r21
    224a:	91 f3       	breq	.-28     	; 0x2230 <__divsf3x+0x14>
    224c:	95 1b       	sub	r25, r21
    224e:	55 0b       	sbc	r21, r21
    2250:	bb 27       	eor	r27, r27
    2252:	aa 27       	eor	r26, r26
    2254:	62 17       	cp	r22, r18
    2256:	73 07       	cpc	r23, r19
    2258:	84 07       	cpc	r24, r20
    225a:	38 f0       	brcs	.+14     	; 0x226a <__divsf3_pse+0x26>
    225c:	9f 5f       	subi	r25, 0xFF	; 255
    225e:	5f 4f       	sbci	r21, 0xFF	; 255
    2260:	22 0f       	add	r18, r18
    2262:	33 1f       	adc	r19, r19
    2264:	44 1f       	adc	r20, r20
    2266:	aa 1f       	adc	r26, r26
    2268:	a9 f3       	breq	.-22     	; 0x2254 <__divsf3_pse+0x10>
    226a:	35 d0       	rcall	.+106    	; 0x22d6 <__divsf3_pse+0x92>
    226c:	0e 2e       	mov	r0, r30
    226e:	3a f0       	brmi	.+14     	; 0x227e <__divsf3_pse+0x3a>
    2270:	e0 e8       	ldi	r30, 0x80	; 128
    2272:	32 d0       	rcall	.+100    	; 0x22d8 <__divsf3_pse+0x94>
    2274:	91 50       	subi	r25, 0x01	; 1
    2276:	50 40       	sbci	r21, 0x00	; 0
    2278:	e6 95       	lsr	r30
    227a:	00 1c       	adc	r0, r0
    227c:	ca f7       	brpl	.-14     	; 0x2270 <__divsf3_pse+0x2c>
    227e:	2b d0       	rcall	.+86     	; 0x22d6 <__divsf3_pse+0x92>
    2280:	fe 2f       	mov	r31, r30
    2282:	29 d0       	rcall	.+82     	; 0x22d6 <__divsf3_pse+0x92>
    2284:	66 0f       	add	r22, r22
    2286:	77 1f       	adc	r23, r23
    2288:	88 1f       	adc	r24, r24
    228a:	bb 1f       	adc	r27, r27
    228c:	26 17       	cp	r18, r22
    228e:	37 07       	cpc	r19, r23
    2290:	48 07       	cpc	r20, r24
    2292:	ab 07       	cpc	r26, r27
    2294:	b0 e8       	ldi	r27, 0x80	; 128
    2296:	09 f0       	breq	.+2      	; 0x229a <__divsf3_pse+0x56>
    2298:	bb 0b       	sbc	r27, r27
    229a:	80 2d       	mov	r24, r0
    229c:	bf 01       	movw	r22, r30
    229e:	ff 27       	eor	r31, r31
    22a0:	93 58       	subi	r25, 0x83	; 131
    22a2:	5f 4f       	sbci	r21, 0xFF	; 255
    22a4:	3a f0       	brmi	.+14     	; 0x22b4 <__divsf3_pse+0x70>
    22a6:	9e 3f       	cpi	r25, 0xFE	; 254
    22a8:	51 05       	cpc	r21, r1
    22aa:	78 f0       	brcs	.+30     	; 0x22ca <__divsf3_pse+0x86>
    22ac:	0c 94 18 19 	jmp	0x3230	; 0x3230 <__fp_inf>
    22b0:	0c 94 0c 19 	jmp	0x3218	; 0x3218 <__fp_szero>
    22b4:	5f 3f       	cpi	r21, 0xFF	; 255
    22b6:	e4 f3       	brlt	.-8      	; 0x22b0 <__divsf3_pse+0x6c>
    22b8:	98 3e       	cpi	r25, 0xE8	; 232
    22ba:	d4 f3       	brlt	.-12     	; 0x22b0 <__divsf3_pse+0x6c>
    22bc:	86 95       	lsr	r24
    22be:	77 95       	ror	r23
    22c0:	67 95       	ror	r22
    22c2:	b7 95       	ror	r27
    22c4:	f7 95       	ror	r31
    22c6:	9f 5f       	subi	r25, 0xFF	; 255
    22c8:	c9 f7       	brne	.-14     	; 0x22bc <__divsf3_pse+0x78>
    22ca:	88 0f       	add	r24, r24
    22cc:	91 1d       	adc	r25, r1
    22ce:	96 95       	lsr	r25
    22d0:	87 95       	ror	r24
    22d2:	97 f9       	bld	r25, 7
    22d4:	08 95       	ret
    22d6:	e1 e0       	ldi	r30, 0x01	; 1
    22d8:	66 0f       	add	r22, r22
    22da:	77 1f       	adc	r23, r23
    22dc:	88 1f       	adc	r24, r24
    22de:	bb 1f       	adc	r27, r27
    22e0:	62 17       	cp	r22, r18
    22e2:	73 07       	cpc	r23, r19
    22e4:	84 07       	cpc	r24, r20
    22e6:	ba 07       	cpc	r27, r26
    22e8:	20 f0       	brcs	.+8      	; 0x22f2 <__divsf3_pse+0xae>
    22ea:	62 1b       	sub	r22, r18
    22ec:	73 0b       	sbc	r23, r19
    22ee:	84 0b       	sbc	r24, r20
    22f0:	ba 0b       	sbc	r27, r26
    22f2:	ee 1f       	adc	r30, r30
    22f4:	88 f7       	brcc	.-30     	; 0x22d8 <__divsf3_pse+0x94>
    22f6:	e0 95       	com	r30
    22f8:	08 95       	ret

Disassembly of section .text:

000031ec <__fixsfsi>:
    31ec:	0e 94 41 15 	call	0x2a82	; 0x2a82 <__fixunssfsi>
    31f0:	68 94       	set
    31f2:	b1 11       	cpse	r27, r1
    31f4:	0c 94 0c 19 	jmp	0x3218	; 0x3218 <__fp_szero>
    31f8:	08 95       	ret

Disassembly of section .text:

00002a82 <__fixunssfsi>:
    2a82:	0e 94 19 16 	call	0x2c32	; 0x2c32 <__fp_splitA>
    2a86:	88 f0       	brcs	.+34     	; 0x2aaa <__fixunssfsi+0x28>
    2a88:	9f 57       	subi	r25, 0x7F	; 127
    2a8a:	98 f0       	brcs	.+38     	; 0x2ab2 <__fixunssfsi+0x30>
    2a8c:	b9 2f       	mov	r27, r25
    2a8e:	99 27       	eor	r25, r25
    2a90:	b7 51       	subi	r27, 0x17	; 23
    2a92:	b0 f0       	brcs	.+44     	; 0x2ac0 <__fixunssfsi+0x3e>
    2a94:	e1 f0       	breq	.+56     	; 0x2ace <__fixunssfsi+0x4c>
    2a96:	66 0f       	add	r22, r22
    2a98:	77 1f       	adc	r23, r23
    2a9a:	88 1f       	adc	r24, r24
    2a9c:	99 1f       	adc	r25, r25
    2a9e:	1a f0       	brmi	.+6      	; 0x2aa6 <__fixunssfsi+0x24>
    2aa0:	ba 95       	dec	r27
    2aa2:	c9 f7       	brne	.-14     	; 0x2a96 <__fixunssfsi+0x14>
    2aa4:	14 c0       	rjmp	.+40     	; 0x2ace <__fixunssfsi+0x4c>
    2aa6:	b1 30       	cpi	r27, 0x01	; 1
    2aa8:	91 f0       	breq	.+36     	; 0x2ace <__fixunssfsi+0x4c>
    2aaa:	0e 94 0b 19 	call	0x3216	; 0x3216 <__fp_zero>
    2aae:	b1 e0       	ldi	r27, 0x01	; 1
    2ab0:	08 95       	ret
    2ab2:	0c 94 0b 19 	jmp	0x3216	; 0x3216 <__fp_zero>
    2ab6:	67 2f       	mov	r22, r23
    2ab8:	78 2f       	mov	r23, r24
    2aba:	88 27       	eor	r24, r24
    2abc:	b8 5f       	subi	r27, 0xF8	; 248
    2abe:	39 f0       	breq	.+14     	; 0x2ace <__fixunssfsi+0x4c>
    2ac0:	b9 3f       	cpi	r27, 0xF9	; 249
    2ac2:	cc f3       	brlt	.-14     	; 0x2ab6 <__fixunssfsi+0x34>
    2ac4:	86 95       	lsr	r24
    2ac6:	77 95       	ror	r23
    2ac8:	67 95       	ror	r22
    2aca:	b3 95       	inc	r27
    2acc:	d9 f7       	brne	.-10     	; 0x2ac4 <__fixunssfsi+0x42>
    2ace:	3e f4       	brtc	.+14     	; 0x2ade <__fixunssfsi+0x5c>
    2ad0:	90 95       	com	r25
    2ad2:	80 95       	com	r24
    2ad4:	70 95       	com	r23
    2ad6:	61 95       	neg	r22
    2ad8:	7f 4f       	sbci	r23, 0xFF	; 255
    2ada:	8f 4f       	sbci	r24, 0xFF	; 255
    2adc:	9f 4f       	sbci	r25, 0xFF	; 255
    2ade:	08 95       	ret

Disassembly of section .text:

0000285e <__floatunsisf>:
    285e:	e8 94       	clt
    2860:	09 c0       	rjmp	.+18     	; 0x2874 <__floatsisf+0x12>

00002862 <__floatsisf>:
    2862:	97 fb       	bst	r25, 7
    2864:	3e f4       	brtc	.+14     	; 0x2874 <__floatsisf+0x12>
    2866:	90 95       	com	r25
    2868:	80 95       	com	r24
    286a:	70 95       	com	r23
    286c:	61 95       	neg	r22
    286e:	7f 4f       	sbci	r23, 0xFF	; 255
    2870:	8f 4f       	sbci	r24, 0xFF	; 255
    2872:	9f 4f       	sbci	r25, 0xFF	; 255
    2874:	99 23       	and	r25, r25
    2876:	a9 f0       	breq	.+42     	; 0x28a2 <__floatsisf+0x40>
    2878:	f9 2f       	mov	r31, r25
    287a:	96 e9       	ldi	r25, 0x96	; 150
    287c:	bb 27       	eor	r27, r27
    287e:	93 95       	inc	r25
    2880:	f6 95       	lsr	r31
    2882:	87 95       	ror	r24
    2884:	77 95       	ror	r23
    2886:	67 95       	ror	r22
    2888:	b7 95       	ror	r27
    288a:	f1 11       	cpse	r31, r1
    288c:	f8 cf       	rjmp	.-16     	; 0x287e <__floatsisf+0x1c>
    288e:	fa f4       	brpl	.+62     	; 0x28ce <__floatsisf+0x6c>
    2890:	bb 0f       	add	r27, r27
    2892:	11 f4       	brne	.+4      	; 0x2898 <__floatsisf+0x36>
    2894:	60 ff       	sbrs	r22, 0
    2896:	1b c0       	rjmp	.+54     	; 0x28ce <__floatsisf+0x6c>
    2898:	6f 5f       	subi	r22, 0xFF	; 255
    289a:	7f 4f       	sbci	r23, 0xFF	; 255
    289c:	8f 4f       	sbci	r24, 0xFF	; 255
    289e:	9f 4f       	sbci	r25, 0xFF	; 255
    28a0:	16 c0       	rjmp	.+44     	; 0x28ce <__floatsisf+0x6c>
    28a2:	88 23       	and	r24, r24
    28a4:	11 f0       	breq	.+4      	; 0x28aa <__floatsisf+0x48>
    28a6:	96 e9       	ldi	r25, 0x96	; 150
    28a8:	11 c0       	rjmp	.+34     	; 0x28cc <__floatsisf+0x6a>
    28aa:	77 23       	and	r23, r23
    28ac:	21 f0       	breq	.+8      	; 0x28b6 <__floatsisf+0x54>
    28ae:	9e e8       	ldi	r25, 0x8E	; 142
    28b0:	87 2f       	mov	r24, r23
    28b2:	76 2f       	mov	r23, r22
    28b4:	05 c0       	rjmp	.+10     	; 0x28c0 <__floatsisf+0x5e>
    28b6:	66 23       	and	r22, r22
    28b8:	71 f0       	breq	.+28     	; 0x28d6 <__floatsisf+0x74>
    28ba:	96 e8       	ldi	r25, 0x86	; 134
    28bc:	86 2f       	mov	r24, r22
    28be:	70 e0       	ldi	r23, 0x00	; 0
    28c0:	60 e0       	ldi	r22, 0x00	; 0
    28c2:	2a f0       	brmi	.+10     	; 0x28ce <__floatsisf+0x6c>
    28c4:	9a 95       	dec	r25
    28c6:	66 0f       	add	r22, r22
    28c8:	77 1f       	adc	r23, r23
    28ca:	88 1f       	adc	r24, r24
    28cc:	da f7       	brpl	.-10     	; 0x28c4 <__floatsisf+0x62>
    28ce:	88 0f       	add	r24, r24
    28d0:	96 95       	lsr	r25
    28d2:	87 95       	ror	r24
    28d4:	97 f9       	bld	r25, 7
    28d6:	08 95       	ret

Disassembly of section .text:

00002bda <__fp_cmp>:
    2bda:	99 0f       	add	r25, r25
    2bdc:	00 08       	sbc	r0, r0
    2bde:	55 0f       	add	r21, r21
    2be0:	aa 0b       	sbc	r26, r26
    2be2:	e0 e8       	ldi	r30, 0x80	; 128
    2be4:	fe ef       	ldi	r31, 0xFE	; 254
    2be6:	16 16       	cp	r1, r22
    2be8:	17 06       	cpc	r1, r23
    2bea:	e8 07       	cpc	r30, r24
    2bec:	f9 07       	cpc	r31, r25
    2bee:	c0 f0       	brcs	.+48     	; 0x2c20 <__fp_cmp+0x46>
    2bf0:	12 16       	cp	r1, r18
    2bf2:	13 06       	cpc	r1, r19
    2bf4:	e4 07       	cpc	r30, r20
    2bf6:	f5 07       	cpc	r31, r21
    2bf8:	98 f0       	brcs	.+38     	; 0x2c20 <__fp_cmp+0x46>
    2bfa:	62 1b       	sub	r22, r18
    2bfc:	73 0b       	sbc	r23, r19
    2bfe:	84 0b       	sbc	r24, r20
    2c00:	95 0b       	sbc	r25, r21
    2c02:	39 f4       	brne	.+14     	; 0x2c12 <__fp_cmp+0x38>
    2c04:	0a 26       	eor	r0, r26
    2c06:	61 f0       	breq	.+24     	; 0x2c20 <__fp_cmp+0x46>
    2c08:	23 2b       	or	r18, r19
    2c0a:	24 2b       	or	r18, r20
    2c0c:	25 2b       	or	r18, r21
    2c0e:	21 f4       	brne	.+8      	; 0x2c18 <__fp_cmp+0x3e>
    2c10:	08 95       	ret
    2c12:	0a 26       	eor	r0, r26
    2c14:	09 f4       	brne	.+2      	; 0x2c18 <__fp_cmp+0x3e>
    2c16:	a1 40       	sbci	r26, 0x01	; 1
    2c18:	a6 95       	lsr	r26
    2c1a:	8f ef       	ldi	r24, 0xFF	; 255
    2c1c:	81 1d       	adc	r24, r1
    2c1e:	81 1d       	adc	r24, r1
    2c20:	08 95       	ret

Disassembly of section .text:

00003230 <__fp_inf>:
    3230:	97 f9       	bld	r25, 7
    3232:	9f 67       	ori	r25, 0x7F	; 127
    3234:	80 e8       	ldi	r24, 0x80	; 128
    3236:	70 e0       	ldi	r23, 0x00	; 0
    3238:	60 e0       	ldi	r22, 0x00	; 0
    323a:	08 95       	ret

Disassembly of section .text:

00003270 <__fp_nan>:
    3270:	9f ef       	ldi	r25, 0xFF	; 255
    3272:	80 ec       	ldi	r24, 0xC0	; 192
    3274:	08 95       	ret

Disassembly of section .text:

000031fa <__fp_pscA>:
    31fa:	00 24       	eor	r0, r0
    31fc:	0a 94       	dec	r0
    31fe:	16 16       	cp	r1, r22
    3200:	17 06       	cpc	r1, r23
    3202:	18 06       	cpc	r1, r24
    3204:	09 06       	cpc	r0, r25
    3206:	08 95       	ret

Disassembly of section .text:

00003208 <__fp_pscB>:
    3208:	00 24       	eor	r0, r0
    320a:	0a 94       	dec	r0
    320c:	12 16       	cp	r1, r18
    320e:	13 06       	cpc	r1, r19
    3210:	14 06       	cpc	r1, r20
    3212:	05 06       	cpc	r0, r21
    3214:	08 95       	ret

Disassembly of section .text:

00003048 <__fp_round>:
    3048:	09 2e       	mov	r0, r25
    304a:	03 94       	inc	r0
    304c:	00 0c       	add	r0, r0
    304e:	11 f4       	brne	.+4      	; 0x3054 <__fp_round+0xc>
    3050:	88 23       	and	r24, r24
    3052:	52 f0       	brmi	.+20     	; 0x3068 <__fp_round+0x20>
    3054:	bb 0f       	add	r27, r27
    3056:	40 f4       	brcc	.+16     	; 0x3068 <__fp_round+0x20>
    3058:	bf 2b       	or	r27, r31
    305a:	11 f4       	brne	.+4      	; 0x3060 <__fp_round+0x18>
    305c:	60 ff       	sbrs	r22, 0
    305e:	04 c0       	rjmp	.+8      	; 0x3068 <__fp_round+0x20>
    3060:	6f 5f       	subi	r22, 0xFF	; 255
    3062:	7f 4f       	sbci	r23, 0xFF	; 255
    3064:	8f 4f       	sbci	r24, 0xFF	; 255
    3066:	9f 4f       	sbci	r25, 0xFF	; 255
    3068:	08 95       	ret

Disassembly of section .text:

00002c22 <__fp_split3>:
    2c22:	57 fd       	sbrc	r21, 7
    2c24:	90 58       	subi	r25, 0x80	; 128
    2c26:	44 0f       	add	r20, r20
    2c28:	55 1f       	adc	r21, r21
    2c2a:	59 f0       	breq	.+22     	; 0x2c42 <__fp_splitA+0x10>
    2c2c:	5f 3f       	cpi	r21, 0xFF	; 255
    2c2e:	71 f0       	breq	.+28     	; 0x2c4c <__fp_splitA+0x1a>
    2c30:	47 95       	ror	r20

00002c32 <__fp_splitA>:
    2c32:	88 0f       	add	r24, r24
    2c34:	97 fb       	bst	r25, 7
    2c36:	99 1f       	adc	r25, r25
    2c38:	61 f0       	breq	.+24     	; 0x2c52 <__fp_splitA+0x20>
    2c3a:	9f 3f       	cpi	r25, 0xFF	; 255
    2c3c:	79 f0       	breq	.+30     	; 0x2c5c <__fp_splitA+0x2a>
    2c3e:	87 95       	ror	r24
    2c40:	08 95       	ret
    2c42:	12 16       	cp	r1, r18
    2c44:	13 06       	cpc	r1, r19
    2c46:	14 06       	cpc	r1, r20
    2c48:	55 1f       	adc	r21, r21
    2c4a:	f2 cf       	rjmp	.-28     	; 0x2c30 <__fp_split3+0xe>
    2c4c:	46 95       	lsr	r20
    2c4e:	f1 df       	rcall	.-30     	; 0x2c32 <__fp_splitA>
    2c50:	08 c0       	rjmp	.+16     	; 0x2c62 <__fp_splitA+0x30>
    2c52:	16 16       	cp	r1, r22
    2c54:	17 06       	cpc	r1, r23
    2c56:	18 06       	cpc	r1, r24
    2c58:	99 1f       	adc	r25, r25
    2c5a:	f1 cf       	rjmp	.-30     	; 0x2c3e <__fp_splitA+0xc>
    2c5c:	86 95       	lsr	r24
    2c5e:	71 05       	cpc	r23, r1
    2c60:	61 05       	cpc	r22, r1
    2c62:	08 94       	sec
    2c64:	08 95       	ret

Disassembly of section .text:

00003216 <__fp_zero>:
    3216:	e8 94       	clt

00003218 <__fp_szero>:
    3218:	bb 27       	eor	r27, r27
    321a:	66 27       	eor	r22, r22
    321c:	77 27       	eor	r23, r23
    321e:	cb 01       	movw	r24, r22
    3220:	97 f9       	bld	r25, 7
    3222:	08 95       	ret

Disassembly of section .text:

00003246 <__gesf2>:
    3246:	0e 94 ed 15 	call	0x2bda	; 0x2bda <__fp_cmp>
    324a:	08 f4       	brcc	.+2      	; 0x324e <__gesf2+0x8>
    324c:	8f ef       	ldi	r24, 0xFF	; 255
    324e:	08 95       	ret

Disassembly of section .text:

00003268 <__mulsf3>:
    3268:	0e 94 e9 11 	call	0x23d2	; 0x23d2 <__mulsf3x>
    326c:	0c 94 24 18 	jmp	0x3048	; 0x3048 <__fp_round>

Disassembly of section .text:

000023d2 <__mulsf3x>:
    23d2:	0f c0       	rjmp	.+30     	; 0x23f2 <__mulsf3x+0x20>
    23d4:	0e 94 fd 18 	call	0x31fa	; 0x31fa <__fp_pscA>
    23d8:	38 f0       	brcs	.+14     	; 0x23e8 <__mulsf3x+0x16>
    23da:	0e 94 04 19 	call	0x3208	; 0x3208 <__fp_pscB>
    23de:	20 f0       	brcs	.+8      	; 0x23e8 <__mulsf3x+0x16>
    23e0:	95 23       	and	r25, r21
    23e2:	11 f0       	breq	.+4      	; 0x23e8 <__mulsf3x+0x16>
    23e4:	0c 94 18 19 	jmp	0x3230	; 0x3230 <__fp_inf>
    23e8:	0c 94 38 19 	jmp	0x3270	; 0x3270 <__fp_nan>
    23ec:	11 24       	eor	r1, r1
    23ee:	0c 94 0c 19 	jmp	0x3218	; 0x3218 <__fp_szero>
    23f2:	0e 94 11 16 	call	0x2c22	; 0x2c22 <__fp_split3>
    23f6:	70 f3       	brcs	.-36     	; 0x23d4 <__mulsf3x+0x2>

000023f8 <__mulsf3_pse>:
    23f8:	95 9f       	mul	r25, r21
    23fa:	c1 f3       	breq	.-16     	; 0x23ec <__mulsf3x+0x1a>
    23fc:	95 0f       	add	r25, r21
    23fe:	50 e0       	ldi	r21, 0x00	; 0
    2400:	55 1f       	adc	r21, r21
    2402:	62 9f       	mul	r22, r18
    2404:	f0 01       	movw	r30, r0
    2406:	72 9f       	mul	r23, r18
    2408:	bb 27       	eor	r27, r27
    240a:	f0 0d       	add	r31, r0
    240c:	b1 1d       	adc	r27, r1
    240e:	63 9f       	mul	r22, r19
    2410:	aa 27       	eor	r26, r26
    2412:	f0 0d       	add	r31, r0
    2414:	b1 1d       	adc	r27, r1
    2416:	aa 1f       	adc	r26, r26
    2418:	64 9f       	mul	r22, r20
    241a:	66 27       	eor	r22, r22
    241c:	b0 0d       	add	r27, r0
    241e:	a1 1d       	adc	r26, r1
    2420:	66 1f       	adc	r22, r22
    2422:	82 9f       	mul	r24, r18
    2424:	22 27       	eor	r18, r18
    2426:	b0 0d       	add	r27, r0
    2428:	a1 1d       	adc	r26, r1
    242a:	62 1f       	adc	r22, r18
    242c:	73 9f       	mul	r23, r19
    242e:	b0 0d       	add	r27, r0
    2430:	a1 1d       	adc	r26, r1
    2432:	62 1f       	adc	r22, r18
    2434:	83 9f       	mul	r24, r19
    2436:	a0 0d       	add	r26, r0
    2438:	61 1d       	adc	r22, r1
    243a:	22 1f       	adc	r18, r18
    243c:	74 9f       	mul	r23, r20
    243e:	33 27       	eor	r19, r19
    2440:	a0 0d       	add	r26, r0
    2442:	61 1d       	adc	r22, r1
    2444:	23 1f       	adc	r18, r19
    2446:	84 9f       	mul	r24, r20
    2448:	60 0d       	add	r22, r0
    244a:	21 1d       	adc	r18, r1
    244c:	82 2f       	mov	r24, r18
    244e:	76 2f       	mov	r23, r22
    2450:	6a 2f       	mov	r22, r26
    2452:	11 24       	eor	r1, r1
    2454:	9f 57       	subi	r25, 0x7F	; 127
    2456:	50 40       	sbci	r21, 0x00	; 0
    2458:	9a f0       	brmi	.+38     	; 0x2480 <__mulsf3_pse+0x88>
    245a:	f1 f0       	breq	.+60     	; 0x2498 <__mulsf3_pse+0xa0>
    245c:	88 23       	and	r24, r24
    245e:	4a f0       	brmi	.+18     	; 0x2472 <__mulsf3_pse+0x7a>
    2460:	ee 0f       	add	r30, r30
    2462:	ff 1f       	adc	r31, r31
    2464:	bb 1f       	adc	r27, r27
    2466:	66 1f       	adc	r22, r22
    2468:	77 1f       	adc	r23, r23
    246a:	88 1f       	adc	r24, r24
    246c:	91 50       	subi	r25, 0x01	; 1
    246e:	50 40       	sbci	r21, 0x00	; 0
    2470:	a9 f7       	brne	.-22     	; 0x245c <__mulsf3_pse+0x64>
    2472:	9e 3f       	cpi	r25, 0xFE	; 254
    2474:	51 05       	cpc	r21, r1
    2476:	80 f0       	brcs	.+32     	; 0x2498 <__mulsf3_pse+0xa0>
    2478:	0c 94 18 19 	jmp	0x3230	; 0x3230 <__fp_inf>
    247c:	0c 94 0c 19 	jmp	0x3218	; 0x3218 <__fp_szero>
    2480:	5f 3f       	cpi	r21, 0xFF	; 255
    2482:	e4 f3       	brlt	.-8      	; 0x247c <__mulsf3_pse+0x84>
    2484:	98 3e       	cpi	r25, 0xE8	; 232
    2486:	d4 f3       	brlt	.-12     	; 0x247c <__mulsf3_pse+0x84>
    2488:	86 95       	lsr	r24
    248a:	77 95       	ror	r23
    248c:	67 95       	ror	r22
    248e:	b7 95       	ror	r27
    2490:	f7 95       	ror	r31
    2492:	e7 95       	ror	r30
    2494:	9f 5f       	subi	r25, 0xFF	; 255
    2496:	c1 f7       	brne	.-16     	; 0x2488 <__mulsf3_pse+0x90>
    2498:	fe 2b       	or	r31, r30
    249a:	88 0f       	add	r24, r24
    249c:	91 1d       	adc	r25, r1
    249e:	96 95       	lsr	r25
    24a0:	87 95       	ror	r24
    24a2:	97 f9       	bld	r25, 7
    24a4:	08 95       	ret

Disassembly of section .text.fabsf:

0000328c <fabsf>:
    328c:	9f 77       	andi	r25, 0x7F	; 127
    328e:	08 95       	ret

Disassembly of section .text.libgcc.div:

00002c66 <__udivmodsi4>:
    2c66:	a1 e2       	ldi	r26, 0x21	; 33
    2c68:	1a 2e       	mov	r1, r26
    2c6a:	aa 1b       	sub	r26, r26
    2c6c:	bb 1b       	sub	r27, r27
    2c6e:	fd 01       	movw	r30, r26
    2c70:	0d c0       	rjmp	.+26     	; 0x2c8c <__udivmodsi4_ep>

00002c72 <__udivmodsi4_loop>:
    2c72:	aa 1f       	adc	r26, r26
    2c74:	bb 1f       	adc	r27, r27
    2c76:	ee 1f       	adc	r30, r30
    2c78:	ff 1f       	adc	r31, r31
    2c7a:	a2 17       	cp	r26, r18
    2c7c:	b3 07       	cpc	r27, r19
    2c7e:	e4 07       	cpc	r30, r20
    2c80:	f5 07       	cpc	r31, r21
    2c82:	20 f0       	brcs	.+8      	; 0x2c8c <__udivmodsi4_ep>
    2c84:	a2 1b       	sub	r26, r18
    2c86:	b3 0b       	sbc	r27, r19
    2c88:	e4 0b       	sbc	r30, r20
    2c8a:	f5 0b       	sbc	r31, r21

00002c8c <__udivmodsi4_ep>:
    2c8c:	66 1f       	adc	r22, r22
    2c8e:	77 1f       	adc	r23, r23
    2c90:	88 1f       	adc	r24, r24
    2c92:	99 1f       	adc	r25, r25
    2c94:	1a 94       	dec	r1
    2c96:	69 f7       	brne	.-38     	; 0x2c72 <__udivmodsi4_loop>
    2c98:	60 95       	com	r22
    2c9a:	70 95       	com	r23
    2c9c:	80 95       	com	r24
    2c9e:	90 95       	com	r25
    2ca0:	9b 01       	movw	r18, r22
    2ca2:	ac 01       	movw	r20, r24
    2ca4:	bd 01       	movw	r22, r26
    2ca6:	cf 01       	movw	r24, r30
    2ca8:	08 95       	ret

Disassembly of section .text.libgcc.div:

00002edc <__divmodsi4>:
    2edc:	05 2e       	mov	r0, r21
    2ede:	97 fb       	bst	r25, 7
    2ee0:	1e f4       	brtc	.+6      	; 0x2ee8 <__divmodsi4+0xc>
    2ee2:	00 94       	com	r0
    2ee4:	0e 94 d1 18 	call	0x31a2	; 0x31a2 <__negsi2>
    2ee8:	57 fd       	sbrc	r21, 7
    2eea:	07 d0       	rcall	.+14     	; 0x2efa <__divmodsi4_neg2>
    2eec:	0e 94 33 16 	call	0x2c66	; 0x2c66 <__udivmodsi4>
    2ef0:	07 fc       	sbrc	r0, 7
    2ef2:	03 d0       	rcall	.+6      	; 0x2efa <__divmodsi4_neg2>
    2ef4:	4e f4       	brtc	.+18     	; 0x2f08 <__divmodsi4_exit>
    2ef6:	0c 94 d1 18 	jmp	0x31a2	; 0x31a2 <__negsi2>

00002efa <__divmodsi4_neg2>:
    2efa:	50 95       	com	r21
    2efc:	40 95       	com	r20
    2efe:	30 95       	com	r19
    2f00:	21 95       	neg	r18
    2f02:	3f 4f       	sbci	r19, 0xFF	; 255
    2f04:	4f 4f       	sbci	r20, 0xFF	; 255
    2f06:	5f 4f       	sbci	r21, 0xFF	; 255

00002f08 <__divmodsi4_exit>:
    2f08:	08 95       	ret

Disassembly of section .text.libgcc.div:

000031a2 <__negsi2>:
    31a2:	90 95       	com	r25
    31a4:	80 95       	com	r24
    31a6:	70 95       	com	r23
    31a8:	61 95       	neg	r22
    31aa:	7f 4f       	sbci	r23, 0xFF	; 255
    31ac:	8f 4f       	sbci	r24, 0xFF	; 255
    31ae:	9f 4f       	sbci	r25, 0xFF	; 255
    31b0:	08 95       	ret

Disassembly of section .text.libgcc.prologue:

00002dd4 <__prologue_saves__>:
    2dd4:	2f 92       	push	r2
    2dd6:	3f 92       	push	r3
    2dd8:	4f 92       	push	r4
    2dda:	5f 92       	push	r5
    2ddc:	6f 92       	push	r6
    2dde:	7f 92       	push	r7
    2de0:	8f 92       	push	r8
    2de2:	9f 92       	push	r9
    2de4:	af 92       	push	r10
    2de6:	bf 92       	push	r11
    2de8:	cf 92       	push	r12
    2dea:	df 92       	push	r13
    2dec:	ef 92       	push	r14
    2dee:	ff 92       	push	r15
    2df0:	0f 93       	push	r16
    2df2:	1f 93       	push	r17
    2df4:	cf 93       	push	r28
    2df6:	df 93       	push	r29
    2df8:	cd b7       	in	r28, 0x3d	; 61
    2dfa:	de b7       	in	r29, 0x3e	; 62
    2dfc:	ca 1b       	sub	r28, r26
    2dfe:	db 0b       	sbc	r29, r27
    2e00:	0f b6       	in	r0, 0x3f	; 63
    2e02:	f8 94       	cli
    2e04:	de bf       	out	0x3e, r29	; 62
    2e06:	0f be       	out	0x3f, r0	; 63
    2e08:	cd bf       	out	0x3d, r28	; 61
    2e0a:	09 94       	ijmp

Disassembly of section .text.libgcc.prologue:

00002e42 <__epilogue_restores__>:
    2e42:	2a 88       	ldd	r2, Y+18	; 0x12
    2e44:	39 88       	ldd	r3, Y+17	; 0x11
    2e46:	48 88       	ldd	r4, Y+16	; 0x10
    2e48:	5f 84       	ldd	r5, Y+15	; 0x0f
    2e4a:	6e 84       	ldd	r6, Y+14	; 0x0e
    2e4c:	7d 84       	ldd	r7, Y+13	; 0x0d
    2e4e:	8c 84       	ldd	r8, Y+12	; 0x0c
    2e50:	9b 84       	ldd	r9, Y+11	; 0x0b
    2e52:	aa 84       	ldd	r10, Y+10	; 0x0a
    2e54:	b9 84       	ldd	r11, Y+9	; 0x09
    2e56:	c8 84       	ldd	r12, Y+8	; 0x08
    2e58:	df 80       	ldd	r13, Y+7	; 0x07
    2e5a:	ee 80       	ldd	r14, Y+6	; 0x06
    2e5c:	fd 80       	ldd	r15, Y+5	; 0x05
    2e5e:	0c 81       	ldd	r16, Y+4	; 0x04
    2e60:	1b 81       	ldd	r17, Y+3	; 0x03
    2e62:	aa 81       	ldd	r26, Y+2	; 0x02
    2e64:	b9 81       	ldd	r27, Y+1	; 0x01
    2e66:	ce 0f       	add	r28, r30
    2e68:	d1 1d       	adc	r29, r1
    2e6a:	0f b6       	in	r0, 0x3f	; 63
    2e6c:	f8 94       	cli
    2e6e:	de bf       	out	0x3e, r29	; 62
    2e70:	0f be       	out	0x3f, r0	; 63
    2e72:	cd bf       	out	0x3d, r28	; 61
    2e74:	ed 01       	movw	r28, r26
    2e76:	08 95       	ret

Disassembly of section .text.libgcc:

000030d2 <__xload_4>:
    30d2:	57 fd       	sbrc	r21, 7
    30d4:	05 c0       	rjmp	.+10     	; 0x30e0 <__xload_4+0xe>
    30d6:	65 91       	lpm	r22, Z+
    30d8:	75 91       	lpm	r23, Z+
    30da:	85 91       	lpm	r24, Z+
    30dc:	95 91       	lpm	r25, Z+
    30de:	08 95       	ret
    30e0:	61 91       	ld	r22, Z+
    30e2:	71 91       	ld	r23, Z+
    30e4:	81 91       	ld	r24, Z+
    30e6:	91 91       	ld	r25, Z+
    30e8:	08 95       	ret

Disassembly of section .text.__dummy_fini:

00003294 <_fini>:
    3294:	08 95       	ret

Disassembly of section .text.__dummy_funcs_on_exit:

00003296 <__funcs_on_exit>:
    3296:	08 95       	ret

Disassembly of section .text.__dummy_simulator_exit:

00003298 <__simulator_exit>:
    3298:	08 95       	ret

Disassembly of section .text.exit:

00003132 <exit>:
    3132:	ec 01       	movw	r28, r24
    3134:	0e 94 4b 19 	call	0x3296	; 0x3296 <__funcs_on_exit>
    3138:	0e 94 4a 19 	call	0x3294	; 0x3294 <_fini>
    313c:	ce 01       	movw	r24, r28
    313e:	0e 94 4c 19 	call	0x3298	; 0x3298 <__simulator_exit>
    3142:	ce 01       	movw	r24, r28
    3144:	0e 94 48 19 	call	0x3290	; 0x3290 <_Exit>

Disassembly of section .text.__wrap_snprintf:

00002f62 <_snprintf_eE>:
    2f62:	a0 e0       	ldi	r26, 0x00	; 0
    2f64:	b0 e0       	ldi	r27, 0x00	; 0
    2f66:	e7 eb       	ldi	r30, 0xB7	; 183
    2f68:	f7 e1       	ldi	r31, 0x17	; 23
    2f6a:	0c 94 f8 16 	jmp	0x2df0	; 0x2df0 <__prologue_saves__+0x1c>
    2f6e:	8e 01       	movw	r16, r28
    2f70:	02 5f       	subi	r16, 0xF2	; 242
    2f72:	1f 4f       	sbci	r17, 0xFF	; 255
    2f74:	2b 85       	ldd	r18, Y+11	; 0x0b
    2f76:	3c 85       	ldd	r19, Y+12	; 0x0c
    2f78:	4d 85       	ldd	r20, Y+13	; 0x0d
    2f7a:	69 85       	ldd	r22, Y+9	; 0x09
    2f7c:	7a 85       	ldd	r23, Y+10	; 0x0a
    2f7e:	8f 81       	ldd	r24, Y+7	; 0x07
    2f80:	98 85       	ldd	r25, Y+8	; 0x08
    2f82:	0e 94 ba 12 	call	0x2574	; 0x2574 <__vsnprintf>
    2f86:	e4 e0       	ldi	r30, 0x04	; 4
    2f88:	0c 94 2f 17 	jmp	0x2e5e	; 0x2e5e <__epilogue_restores__+0x1c>

Disassembly of section .text.__wrap_sprintf:

00002fdc <_sprintf_eE>:
    2fdc:	a0 e0       	ldi	r26, 0x00	; 0
    2fde:	b0 e0       	ldi	r27, 0x00	; 0
    2fe0:	e4 ef       	ldi	r30, 0xF4	; 244
    2fe2:	f7 e1       	ldi	r31, 0x17	; 23
    2fe4:	0c 94 fa 16 	jmp	0x2df4	; 0x2df4 <__prologue_saves__+0x20>
    2fe8:	9e 01       	movw	r18, r28
    2fea:	26 5f       	subi	r18, 0xF6	; 246
    2fec:	3f 4f       	sbci	r19, 0xFF	; 255
    2fee:	4f 81       	ldd	r20, Y+7	; 0x07
    2ff0:	58 85       	ldd	r21, Y+8	; 0x08
    2ff2:	69 85       	ldd	r22, Y+9	; 0x09
    2ff4:	8d 81       	ldd	r24, Y+5	; 0x05
    2ff6:	9e 81       	ldd	r25, Y+6	; 0x06
    2ff8:	0e 94 75 18 	call	0x30ea	; 0x30ea <__vsprintf>
    2ffc:	e2 e0       	ldi	r30, 0x02	; 2
    2ffe:	0c 94 31 17 	jmp	0x2e62	; 0x2e62 <__epilogue_restores__+0x20>

Disassembly of section .text.__vsnprintf:

00002574 <__vsnprintf>:
    2574:	6f 92       	push	r6
    2576:	7f 92       	push	r7
    2578:	8f 92       	push	r8
    257a:	ef 92       	push	r14
    257c:	ff 92       	push	r15
    257e:	0f 93       	push	r16
    2580:	1f 93       	push	r17
    2582:	cf 93       	push	r28
    2584:	df 93       	push	r29
    2586:	cd b7       	in	r28, 0x3d	; 61
    2588:	de b7       	in	r29, 0x3e	; 62
    258a:	61 97       	sbiw	r28, 0x11	; 17
    258c:	0f b6       	in	r0, 0x3f	; 63
    258e:	f8 94       	cli
    2590:	de bf       	out	0x3e, r29	; 62
    2592:	0f be       	out	0x3f, r0	; 63
    2594:	cd bf       	out	0x3d, r28	; 61
    2596:	fe 01       	movw	r30, r28
    2598:	31 96       	adiw	r30, 0x01	; 1
    259a:	51 e1       	ldi	r21, 0x11	; 17
    259c:	df 01       	movw	r26, r30
    259e:	1d 92       	st	X+, r1
    25a0:	5a 95       	dec	r21
    25a2:	e9 f7       	brne	.-6      	; 0x259e <__vsnprintf+0x2a>
    25a4:	a2 e0       	ldi	r26, 0x02	; 2
    25a6:	b1 e0       	ldi	r27, 0x01	; 1
    25a8:	ba 83       	std	Y+2, r27	; 0x02
    25aa:	a9 83       	std	Y+1, r26	; 0x01
    25ac:	9c 83       	std	Y+4, r25	; 0x04
    25ae:	8b 83       	std	Y+3, r24	; 0x03
    25b0:	77 ff       	sbrs	r23, 7
    25b2:	09 c0       	rjmp	.+18     	; 0x25c6 <__vsnprintf+0x52>
    25b4:	8f e4       	ldi	r24, 0x4F	; 79
    25b6:	90 e0       	ldi	r25, 0x00	; 0
    25b8:	90 93 8d 00 	sts	0x008D, r25	; 0x80008d <__errno_val+0x1>
    25bc:	80 93 8c 00 	sts	0x008C, r24	; 0x80008c <__errno_val>
    25c0:	8f ef       	ldi	r24, 0xFF	; 255
    25c2:	9f ef       	ldi	r25, 0xFF	; 255
    25c4:	19 c0       	rjmp	.+50     	; 0x25f8 <__vsnprintf+0x84>
    25c6:	39 01       	movw	r6, r18
    25c8:	84 2e       	mov	r8, r20
    25ca:	7c 01       	movw	r14, r24
    25cc:	61 50       	subi	r22, 0x01	; 1
    25ce:	71 09       	sbc	r23, r1
    25d0:	7f 83       	std	Y+7, r23	; 0x07
    25d2:	6e 83       	std	Y+6, r22	; 0x06
    25d4:	98 01       	movw	r18, r16
    25d6:	68 2d       	mov	r22, r8
    25d8:	a3 01       	movw	r20, r6
    25da:	cf 01       	movw	r24, r30
    25dc:	0e 94 56 17 	call	0x2eac	; 0x2eac <__vfprintf>
    25e0:	48 85       	ldd	r20, Y+8	; 0x08
    25e2:	59 85       	ldd	r21, Y+9	; 0x09
    25e4:	2e 81       	ldd	r18, Y+6	; 0x06
    25e6:	3f 81       	ldd	r19, Y+7	; 0x07
    25e8:	42 17       	cp	r20, r18
    25ea:	53 07       	cpc	r21, r19
    25ec:	08 f4       	brcc	.+2      	; 0x25f0 <__vsnprintf+0x7c>
    25ee:	9a 01       	movw	r18, r20
    25f0:	f7 01       	movw	r30, r14
    25f2:	e2 0f       	add	r30, r18
    25f4:	f3 1f       	adc	r31, r19
    25f6:	10 82       	st	Z, r1
    25f8:	61 96       	adiw	r28, 0x11	; 17
    25fa:	0f b6       	in	r0, 0x3f	; 63
    25fc:	f8 94       	cli
    25fe:	de bf       	out	0x3e, r29	; 62
    2600:	0f be       	out	0x3f, r0	; 63
    2602:	cd bf       	out	0x3d, r28	; 61
    2604:	df 91       	pop	r29
    2606:	cf 91       	pop	r28
    2608:	1f 91       	pop	r17
    260a:	0f 91       	pop	r16
    260c:	ff 90       	pop	r15
    260e:	ef 90       	pop	r14
    2610:	8f 90       	pop	r8
    2612:	7f 90       	pop	r7
    2614:	6f 90       	pop	r6
    2616:	08 95       	ret

Disassembly of section .text.__fmt_fp:

0000098e <__fmt_fp>:
     98e:	a6 e2       	ldi	r26, 0x26	; 38
     990:	b0 e0       	ldi	r27, 0x00	; 0
     992:	ed ec       	ldi	r30, 0xCD	; 205
     994:	f4 e0       	ldi	r31, 0x04	; 4
     996:	0c 94 ea 16 	jmp	0x2dd4	; 0x2dd4 <__prologue_saves__>
     99a:	9f 8f       	std	Y+31, r25	; 0x1f
     99c:	8e 8f       	std	Y+30, r24	; 0x1e
     99e:	79 8f       	std	Y+25, r23	; 0x19
     9a0:	68 8f       	std	Y+24, r22	; 0x18
     9a2:	12 2f       	mov	r17, r18
     9a4:	fb 01       	movw	r30, r22
     9a6:	01 90       	ld	r0, Z+
     9a8:	f0 81       	ld	r31, Z
     9aa:	e0 2d       	mov	r30, r0
     9ac:	fa 87       	std	Y+10, r31	; 0x0a
     9ae:	e9 87       	std	Y+9, r30	; 0x09
     9b0:	fb 01       	movw	r30, r22
     9b2:	c2 80       	ldd	r12, Z+2	; 0x02
     9b4:	d3 80       	ldd	r13, Z+3	; 0x03
     9b6:	24 81       	ldd	r18, Z+4	; 0x04
     9b8:	35 81       	ldd	r19, Z+5	; 0x05
     9ba:	3c 8b       	std	Y+20, r19	; 0x14
     9bc:	2b 8b       	std	Y+19, r18	; 0x13
     9be:	80 85       	ldd	r24, Z+8	; 0x08
     9c0:	91 85       	ldd	r25, Z+9	; 0x09
     9c2:	99 a3       	std	Y+33, r25	; 0x21
     9c4:	88 a3       	std	Y+32, r24	; 0x20
     9c6:	06 80       	ldd	r0, Z+6	; 0x06
     9c8:	f7 81       	ldd	r31, Z+7	; 0x07
     9ca:	e0 2d       	mov	r30, r0
     9cc:	fa 83       	std	Y+2, r31	; 0x02
     9ce:	e9 83       	std	Y+1, r30	; 0x01
     9d0:	fa 01       	movw	r30, r20
     9d2:	80 80       	ld	r8, Z
     9d4:	91 80       	ldd	r9, Z+1	; 0x01
     9d6:	a2 80       	ldd	r10, Z+2	; 0x02
     9d8:	b3 80       	ldd	r11, Z+3	; 0x03
     9da:	20 e0       	ldi	r18, 0x00	; 0
     9dc:	30 e0       	ldi	r19, 0x00	; 0
     9de:	a9 01       	movw	r20, r18
     9e0:	c5 01       	movw	r24, r10
     9e2:	b4 01       	movw	r22, r8
     9e4:	0e 94 1e 19 	call	0x323c	; 0x323c <__cmpsf2>
     9e8:	87 ff       	sbrs	r24, 7
     9ea:	06 c0       	rjmp	.+12     	; 0x9f8 <__fmt_fp+0x6a>
     9ec:	b7 fa       	bst	r11, 7
     9ee:	b0 94       	com	r11
     9f0:	b7 f8       	bld	r11, 7
     9f2:	b0 94       	com	r11
     9f4:	8d e2       	ldi	r24, 0x2D	; 45
     9f6:	04 c0       	rjmp	.+8      	; 0xa00 <__fmt_fp+0x72>
     9f8:	f9 85       	ldd	r31, Y+9	; 0x09
     9fa:	f2 ff       	sbrs	r31, 2
     9fc:	0c c3       	rjmp	.+1560   	; 0x1016 <__fmt_fp+0x688>
     9fe:	8b e2       	ldi	r24, 0x2B	; 43
     a00:	e9 81       	ldd	r30, Y+1	; 0x01
     a02:	fa 81       	ldd	r31, Y+2	; 0x02
     a04:	80 83       	st	Z, r24
     a06:	2b 89       	ldd	r18, Y+19	; 0x13
     a08:	3c 89       	ldd	r19, Y+20	; 0x14
     a0a:	21 50       	subi	r18, 0x01	; 1
     a0c:	31 09       	sbc	r19, r1
     a0e:	38 87       	std	Y+8, r19	; 0x08
     a10:	2f 83       	std	Y+7, r18	; 0x07
     a12:	41 e0       	ldi	r20, 0x01	; 1
     a14:	50 e0       	ldi	r21, 0x00	; 0
     a16:	5a 8b       	std	Y+18, r21	; 0x12
     a18:	49 8b       	std	Y+17, r20	; 0x11
     a1a:	06 c0       	rjmp	.+12     	; 0xa28 <__fmt_fp+0x9a>
     a1c:	8b 89       	ldd	r24, Y+19	; 0x13
     a1e:	9c 89       	ldd	r25, Y+20	; 0x14
     a20:	98 87       	std	Y+8, r25	; 0x08
     a22:	8f 83       	std	Y+7, r24	; 0x07
     a24:	1a 8a       	std	Y+18, r1	; 0x12
     a26:	19 8a       	std	Y+17, r1	; 0x11
     a28:	d5 01       	movw	r26, r10
     a2a:	c4 01       	movw	r24, r8
     a2c:	bf 77       	andi	r27, 0x7F	; 127
     a2e:	00 97       	sbiw	r24, 0x00	; 0
     a30:	e0 e8       	ldi	r30, 0x80	; 128
     a32:	ae 07       	cpc	r26, r30
     a34:	ef e7       	ldi	r30, 0x7F	; 127
     a36:	be 07       	cpc	r27, r30
     a38:	d9 f4       	brne	.+54     	; 0xa70 <__fmt_fp+0xe2>
     a3a:	21 2f       	mov	r18, r17
     a3c:	11 0f       	add	r17, r17
     a3e:	33 0b       	sbc	r19, r19
     a40:	21 54       	subi	r18, 0x41	; 65
     a42:	31 09       	sbc	r19, r1
     a44:	89 81       	ldd	r24, Y+1	; 0x01
     a46:	9a 81       	ldd	r25, Y+2	; 0x02
     a48:	49 89       	ldd	r20, Y+17	; 0x11
     a4a:	5a 89       	ldd	r21, Y+18	; 0x12
     a4c:	84 0f       	add	r24, r20
     a4e:	95 1f       	adc	r25, r21
     a50:	2a 31       	cpi	r18, 0x1A	; 26
     a52:	31 05       	cpc	r19, r1
     a54:	20 f4       	brcc	.+8      	; 0xa5e <__fmt_fp+0xd0>
     a56:	41 e5       	ldi	r20, 0x51	; 81
     a58:	51 e0       	ldi	r21, 0x01	; 1
     a5a:	60 e0       	ldi	r22, 0x00	; 0
     a5c:	03 c0       	rjmp	.+6      	; 0xa64 <__fmt_fp+0xd6>
     a5e:	45 e5       	ldi	r20, 0x55	; 85
     a60:	51 e0       	ldi	r21, 0x01	; 1
     a62:	60 e0       	ldi	r22, 0x00	; 0
     a64:	0e 94 35 18 	call	0x306a	; 0x306a <strcpy>
     a68:	65 e5       	ldi	r22, 0x55	; 85
     a6a:	71 e0       	ldi	r23, 0x01	; 1
     a6c:	80 e0       	ldi	r24, 0x00	; 0
     a6e:	1e c0       	rjmp	.+60     	; 0xaac <__fmt_fp+0x11e>
     a70:	01 97       	sbiw	r24, 0x01	; 1
     a72:	a0 48       	sbci	r26, 0x80	; 128
     a74:	bf 47       	sbci	r27, 0x7F	; 127
     a76:	30 f1       	brcs	.+76     	; 0xac4 <__fmt_fp+0x136>
     a78:	21 2f       	mov	r18, r17
     a7a:	11 0f       	add	r17, r17
     a7c:	33 0b       	sbc	r19, r19
     a7e:	21 54       	subi	r18, 0x41	; 65
     a80:	31 09       	sbc	r19, r1
     a82:	89 81       	ldd	r24, Y+1	; 0x01
     a84:	9a 81       	ldd	r25, Y+2	; 0x02
     a86:	49 89       	ldd	r20, Y+17	; 0x11
     a88:	5a 89       	ldd	r21, Y+18	; 0x12
     a8a:	84 0f       	add	r24, r20
     a8c:	95 1f       	adc	r25, r21
     a8e:	2a 31       	cpi	r18, 0x1A	; 26
     a90:	31 05       	cpc	r19, r1
     a92:	20 f4       	brcc	.+8      	; 0xa9c <__fmt_fp+0x10e>
     a94:	49 e5       	ldi	r20, 0x59	; 89
     a96:	51 e0       	ldi	r21, 0x01	; 1
     a98:	60 e0       	ldi	r22, 0x00	; 0
     a9a:	03 c0       	rjmp	.+6      	; 0xaa2 <__fmt_fp+0x114>
     a9c:	4d e5       	ldi	r20, 0x5D	; 93
     a9e:	51 e0       	ldi	r21, 0x01	; 1
     aa0:	60 e0       	ldi	r22, 0x00	; 0
     aa2:	0e 94 35 18 	call	0x306a	; 0x306a <strcpy>
     aa6:	6d e5       	ldi	r22, 0x5D	; 93
     aa8:	71 e0       	ldi	r23, 0x01	; 1
     aaa:	80 e0       	ldi	r24, 0x00	; 0
     aac:	0e 94 9b 17 	call	0x2f36	; 0x2f36 <strlen>
     ab0:	e9 81       	ldd	r30, Y+1	; 0x01
     ab2:	fa 81       	ldd	r31, Y+2	; 0x02
     ab4:	af 01       	movw	r20, r30
     ab6:	60 e8       	ldi	r22, 0x80	; 128
     ab8:	e9 84       	ldd	r14, Y+9	; 0x09
     aba:	fa 84       	ldd	r15, Y+10	; 0x0a
     abc:	0b 89       	ldd	r16, Y+19	; 0x13
     abe:	1c 89       	ldd	r17, Y+20	; 0x14
     ac0:	9c 01       	movw	r18, r24
     ac2:	a1 c2       	rjmp	.+1346   	; 0x1006 <__fmt_fp+0x678>
     ac4:	20 e0       	ldi	r18, 0x00	; 0
     ac6:	30 e0       	ldi	r19, 0x00	; 0
     ac8:	a9 01       	movw	r20, r18
     aca:	c5 01       	movw	r24, r10
     acc:	b4 01       	movw	r22, r8
     ace:	0e 94 1e 19 	call	0x323c	; 0x323c <__cmpsf2>
     ad2:	1b 82       	std	Y+3, r1	; 0x03
     ad4:	1c 82       	std	Y+4, r1	; 0x04
     ad6:	88 23       	and	r24, r24
     ad8:	09 f4       	brne	.+2      	; 0xadc <__fmt_fp+0x14e>
     ada:	67 c0       	rjmp	.+206    	; 0xbaa <__fmt_fp+0x21c>
     adc:	f0 e8       	ldi	r31, 0x80	; 128
     ade:	fd 83       	std	Y+5, r31	; 0x05
     ae0:	2f e3       	ldi	r18, 0x3F	; 63
     ae2:	2e 83       	std	Y+6, r18	; 0x06
     ae4:	21 2c       	mov	r2, r1
     ae6:	31 2c       	mov	r3, r1
     ae8:	20 e0       	ldi	r18, 0x00	; 0
     aea:	30 e0       	ldi	r19, 0x00	; 0
     aec:	40 e2       	ldi	r20, 0x20	; 32
     aee:	51 e4       	ldi	r21, 0x41	; 65
     af0:	6b 81       	ldd	r22, Y+3	; 0x03
     af2:	7c 81       	ldd	r23, Y+4	; 0x04
     af4:	8d 81       	ldd	r24, Y+5	; 0x05
     af6:	9e 81       	ldd	r25, Y+6	; 0x06
     af8:	0e 94 34 19 	call	0x3268	; 0x3268 <__mulsf3>
     afc:	f6 2e       	mov	r15, r22
     afe:	07 2f       	mov	r16, r23
     b00:	8d 87       	std	Y+13, r24	; 0x0d
     b02:	9b 87       	std	Y+11, r25	; 0x0b
     b04:	a5 01       	movw	r20, r10
     b06:	94 01       	movw	r18, r8
     b08:	0e 94 23 19 	call	0x3246	; 0x3246 <__gesf2>
     b0c:	18 16       	cp	r1, r24
     b0e:	54 f0       	brlt	.+20     	; 0xb24 <__fmt_fp+0x196>
     b10:	3f ef       	ldi	r19, 0xFF	; 255
     b12:	23 1a       	sub	r2, r19
     b14:	33 0a       	sbc	r3, r19
     b16:	fb 82       	std	Y+3, r15	; 0x03
     b18:	0c 83       	std	Y+4, r16	; 0x04
     b1a:	4d 85       	ldd	r20, Y+13	; 0x0d
     b1c:	4d 83       	std	Y+5, r20	; 0x05
     b1e:	5b 85       	ldd	r21, Y+11	; 0x0b
     b20:	5e 83       	std	Y+6, r21	; 0x06
     b22:	e2 cf       	rjmp	.-60     	; 0xae8 <__fmt_fp+0x15a>
     b24:	1c 86       	std	Y+12, r1	; 0x0c
     b26:	1b 86       	std	Y+11, r1	; 0x0b
     b28:	2b 81       	ldd	r18, Y+3	; 0x03
     b2a:	3c 81       	ldd	r19, Y+4	; 0x04
     b2c:	4d 81       	ldd	r20, Y+5	; 0x05
     b2e:	5e 81       	ldd	r21, Y+6	; 0x06
     b30:	c5 01       	movw	r24, r10
     b32:	b4 01       	movw	r22, r8
     b34:	0e 94 1e 19 	call	0x323c	; 0x323c <__cmpsf2>
     b38:	87 ff       	sbrs	r24, 7
     b3a:	3d c0       	rjmp	.+122    	; 0xbb6 <__fmt_fp+0x228>
     b3c:	84 ed       	ldi	r24, 0xD4	; 212
     b3e:	28 16       	cp	r2, r24
     b40:	8e ef       	ldi	r24, 0xFE	; 254
     b42:	38 06       	cpc	r3, r24
     b44:	04 f5       	brge	.+64     	; 0xb86 <__fmt_fp+0x1f8>
     b46:	eb 85       	ldd	r30, Y+11	; 0x0b
     b48:	fc 85       	ldd	r31, Y+12	; 0x0c
     b4a:	ef 2b       	or	r30, r31
     b4c:	e1 f4       	brne	.+56     	; 0xb86 <__fmt_fp+0x1f8>
     b4e:	20 e0       	ldi	r18, 0x00	; 0
     b50:	30 e0       	ldi	r19, 0x00	; 0
     b52:	40 e8       	ldi	r20, 0x80	; 128
     b54:	5a e5       	ldi	r21, 0x5A	; 90
     b56:	c5 01       	movw	r24, r10
     b58:	b4 01       	movw	r22, r8
     b5a:	0e 94 34 19 	call	0x3268	; 0x3268 <__mulsf3>
     b5e:	4b 01       	movw	r8, r22
     b60:	5c 01       	movw	r10, r24
     b62:	20 e0       	ldi	r18, 0x00	; 0
     b64:	30 e0       	ldi	r19, 0x00	; 0
     b66:	40 e8       	ldi	r20, 0x80	; 128
     b68:	5a e5       	ldi	r21, 0x5A	; 90
     b6a:	6b 81       	ldd	r22, Y+3	; 0x03
     b6c:	7c 81       	ldd	r23, Y+4	; 0x04
     b6e:	8d 81       	ldd	r24, Y+5	; 0x05
     b70:	9e 81       	ldd	r25, Y+6	; 0x06
     b72:	0e 94 34 19 	call	0x3268	; 0x3268 <__mulsf3>
     b76:	6b 83       	std	Y+3, r22	; 0x03
     b78:	7c 83       	std	Y+4, r23	; 0x04
     b7a:	8d 83       	std	Y+5, r24	; 0x05
     b7c:	9e 83       	std	Y+6, r25	; 0x06
     b7e:	21 e0       	ldi	r18, 0x01	; 1
     b80:	30 e0       	ldi	r19, 0x00	; 0
     b82:	3c 87       	std	Y+12, r19	; 0x0c
     b84:	2b 87       	std	Y+11, r18	; 0x0b
     b86:	20 e0       	ldi	r18, 0x00	; 0
     b88:	30 e0       	ldi	r19, 0x00	; 0
     b8a:	40 e2       	ldi	r20, 0x20	; 32
     b8c:	51 e4       	ldi	r21, 0x41	; 65
     b8e:	6b 81       	ldd	r22, Y+3	; 0x03
     b90:	7c 81       	ldd	r23, Y+4	; 0x04
     b92:	8d 81       	ldd	r24, Y+5	; 0x05
     b94:	9e 81       	ldd	r25, Y+6	; 0x06
     b96:	0e 94 30 19 	call	0x3260	; 0x3260 <__divsf3>
     b9a:	6b 83       	std	Y+3, r22	; 0x03
     b9c:	7c 83       	std	Y+4, r23	; 0x04
     b9e:	8d 83       	std	Y+5, r24	; 0x05
     ba0:	9e 83       	std	Y+6, r25	; 0x06
     ba2:	31 e0       	ldi	r19, 0x01	; 1
     ba4:	23 1a       	sub	r2, r19
     ba6:	31 08       	sbc	r3, r1
     ba8:	bf cf       	rjmp	.-130    	; 0xb28 <__fmt_fp+0x19a>
     baa:	40 e8       	ldi	r20, 0x80	; 128
     bac:	4d 83       	std	Y+5, r20	; 0x05
     bae:	5f e3       	ldi	r21, 0x3F	; 63
     bb0:	5e 83       	std	Y+6, r21	; 0x06
     bb2:	21 2c       	mov	r2, r1
     bb4:	31 2c       	mov	r3, r1
     bb6:	81 2f       	mov	r24, r17
     bb8:	11 0f       	add	r17, r17
     bba:	99 0b       	sbc	r25, r25
     bbc:	9b a3       	std	Y+35, r25	; 0x23
     bbe:	8a a3       	std	Y+34, r24	; 0x22
     bc0:	0e 94 d9 18 	call	0x31b2	; 0x31b2 <tolower>
     bc4:	8b 8f       	std	Y+27, r24	; 0x1b
     bc6:	d7 fc       	sbrc	r13, 7
     bc8:	03 c0       	rjmp	.+6      	; 0xbd0 <__fmt_fp+0x242>
     bca:	de a2       	std	Y+38, r13	; 0x26
     bcc:	cd a2       	std	Y+37, r12	; 0x25
     bce:	04 c0       	rjmp	.+8      	; 0xbd8 <__fmt_fp+0x24a>
     bd0:	e6 e0       	ldi	r30, 0x06	; 6
     bd2:	f0 e0       	ldi	r31, 0x00	; 0
     bd4:	fe a3       	std	Y+38, r31	; 0x26
     bd6:	ed a3       	std	Y+37, r30	; 0x25
     bd8:	fb 8d       	ldd	r31, Y+27	; 0x1b
     bda:	f7 36       	cpi	r31, 0x67	; 103
     bdc:	41 f4       	brne	.+16     	; 0xbee <__fmt_fp+0x260>
     bde:	cd 28       	or	r12, r13
     be0:	09 f0       	breq	.+2      	; 0xbe4 <__fmt_fp+0x256>
     be2:	1e c2       	rjmp	.+1084   	; 0x1020 <__fmt_fp+0x692>
     be4:	21 e0       	ldi	r18, 0x01	; 1
     be6:	30 e0       	ldi	r19, 0x00	; 0
     be8:	3e a3       	std	Y+38, r19	; 0x26
     bea:	2d a3       	std	Y+37, r18	; 0x25
     bec:	19 c2       	rjmp	.+1074   	; 0x1020 <__fmt_fp+0x692>
     bee:	8b 8d       	ldd	r24, Y+27	; 0x1b
     bf0:	8d 8b       	std	Y+21, r24	; 0x15
     bf2:	04 c0       	rjmp	.+8      	; 0xbfc <__fmt_fp+0x26e>
     bf4:	37 fe       	sbrs	r3, 7
     bf6:	25 c2       	rjmp	.+1098   	; 0x1042 <__fmt_fp+0x6b4>
     bf8:	96 e6       	ldi	r25, 0x66	; 102
     bfa:	9d 8b       	std	Y+21, r25	; 0x15
     bfc:	ed a1       	ldd	r30, Y+37	; 0x25
     bfe:	fe a1       	ldd	r31, Y+38	; 0x26
     c00:	31 96       	adiw	r30, 0x01	; 1
     c02:	fe a3       	std	Y+38, r31	; 0x26
     c04:	ed a3       	std	Y+37, r30	; 0x25
     c06:	fd 89       	ldd	r31, Y+21	; 0x15
     c08:	f6 36       	cpi	r31, 0x66	; 102
     c0a:	99 f4       	brne	.+38     	; 0xc32 <__fmt_fp+0x2a4>
     c0c:	37 fe       	sbrs	r3, 7
     c0e:	08 c0       	rjmp	.+16     	; 0xc20 <__fmt_fp+0x292>
     c10:	1b 82       	std	Y+3, r1	; 0x03
     c12:	1c 82       	std	Y+4, r1	; 0x04
     c14:	20 e8       	ldi	r18, 0x80	; 128
     c16:	2d 83       	std	Y+5, r18	; 0x05
     c18:	3f e3       	ldi	r19, 0x3F	; 63
     c1a:	3e 83       	std	Y+6, r19	; 0x06
     c1c:	21 2c       	mov	r2, r1
     c1e:	31 2c       	mov	r3, r1
     c20:	4b 8d       	ldd	r20, Y+27	; 0x1b
     c22:	47 36       	cpi	r20, 0x67	; 103
     c24:	31 f0       	breq	.+12     	; 0xc32 <__fmt_fp+0x2a4>
     c26:	8d a1       	ldd	r24, Y+37	; 0x25
     c28:	9e a1       	ldd	r25, Y+38	; 0x26
     c2a:	82 0d       	add	r24, r2
     c2c:	93 1d       	adc	r25, r3
     c2e:	9e a3       	std	Y+38, r25	; 0x26
     c30:	8d a3       	std	Y+37, r24	; 0x25
     c32:	9b 81       	ldd	r25, Y+3	; 0x03
     c34:	9b 87       	std	Y+11, r25	; 0x0b
     c36:	ec 81       	ldd	r30, Y+4	; 0x04
     c38:	ed 87       	std	Y+13, r30	; 0x0d
     c3a:	fd 81       	ldd	r31, Y+5	; 0x05
     c3c:	fe 8b       	std	Y+22, r31	; 0x16
     c3e:	2e 81       	ldd	r18, Y+6	; 0x06
     c40:	2a 8f       	std	Y+26, r18	; 0x1a
     c42:	75 01       	movw	r14, r10
     c44:	64 01       	movw	r12, r8
     c46:	1d 8e       	std	Y+29, r1	; 0x1d
     c48:	1c 8e       	std	Y+28, r1	; 0x1c
     c4a:	8c 8d       	ldd	r24, Y+28	; 0x1c
     c4c:	9d 8d       	ldd	r25, Y+29	; 0x1d
     c4e:	ed a1       	ldd	r30, Y+37	; 0x25
     c50:	fe a1       	ldd	r31, Y+38	; 0x26
     c52:	8e 17       	cp	r24, r30
     c54:	9f 07       	cpc	r25, r31
     c56:	c1 f1       	breq	.+112    	; 0xcc8 <__fmt_fp+0x33a>
     c58:	2b 85       	ldd	r18, Y+11	; 0x0b
     c5a:	3d 85       	ldd	r19, Y+13	; 0x0d
     c5c:	4e 89       	ldd	r20, Y+22	; 0x16
     c5e:	5a 8d       	ldd	r21, Y+26	; 0x1a
     c60:	c7 01       	movw	r24, r14
     c62:	b6 01       	movw	r22, r12
     c64:	0e 94 30 19 	call	0x3260	; 0x3260 <__divsf3>
     c68:	0e 94 f6 0e 	call	0x1dec	; 0x1dec <floorf>
     c6c:	2b 01       	movw	r4, r22
     c6e:	3c 01       	movw	r6, r24
     c70:	0e 94 f6 18 	call	0x31ec	; 0x31ec <__fixsfsi>
     c74:	6c a3       	std	Y+36, r22	; 0x24
     c76:	87 01       	movw	r16, r14
     c78:	76 01       	movw	r14, r12
     c7a:	17 fb       	bst	r17, 7
     c7c:	10 95       	com	r17
     c7e:	17 f9       	bld	r17, 7
     c80:	10 95       	com	r17
     c82:	2b 85       	ldd	r18, Y+11	; 0x0b
     c84:	3d 85       	ldd	r19, Y+13	; 0x0d
     c86:	4e 89       	ldd	r20, Y+22	; 0x16
     c88:	5a 8d       	ldd	r21, Y+26	; 0x1a
     c8a:	c3 01       	movw	r24, r6
     c8c:	b2 01       	movw	r22, r4
     c8e:	0e 94 58 0e 	call	0x1cb0	; 0x1cb0 <fmaf>
     c92:	6b 01       	movw	r12, r22
     c94:	7c 01       	movw	r14, r24
     c96:	f7 fa       	bst	r15, 7
     c98:	f0 94       	com	r15
     c9a:	f7 f8       	bld	r15, 7
     c9c:	f0 94       	com	r15
     c9e:	20 e0       	ldi	r18, 0x00	; 0
     ca0:	30 e0       	ldi	r19, 0x00	; 0
     ca2:	40 e2       	ldi	r20, 0x20	; 32
     ca4:	51 e4       	ldi	r21, 0x41	; 65
     ca6:	6b 85       	ldd	r22, Y+11	; 0x0b
     ca8:	7d 85       	ldd	r23, Y+13	; 0x0d
     caa:	8e 89       	ldd	r24, Y+22	; 0x16
     cac:	9a 8d       	ldd	r25, Y+26	; 0x1a
     cae:	0e 94 30 19 	call	0x3260	; 0x3260 <__divsf3>
     cb2:	6b 87       	std	Y+11, r22	; 0x0b
     cb4:	7d 87       	std	Y+13, r23	; 0x0d
     cb6:	8e 8b       	std	Y+22, r24	; 0x16
     cb8:	9a 8f       	std	Y+26, r25	; 0x1a
     cba:	4c 8d       	ldd	r20, Y+28	; 0x1c
     cbc:	5d 8d       	ldd	r21, Y+29	; 0x1d
     cbe:	4f 5f       	subi	r20, 0xFF	; 255
     cc0:	5f 4f       	sbci	r21, 0xFF	; 255
     cc2:	5d 8f       	std	Y+29, r21	; 0x1d
     cc4:	4c 8f       	std	Y+28, r20	; 0x1c
     cc6:	c1 cf       	rjmp	.-126    	; 0xc4a <__fmt_fp+0x2bc>
     cc8:	20 e0       	ldi	r18, 0x00	; 0
     cca:	30 e0       	ldi	r19, 0x00	; 0
     ccc:	40 ea       	ldi	r20, 0xA0	; 160
     cce:	50 e4       	ldi	r21, 0x40	; 64
     cd0:	6b 85       	ldd	r22, Y+11	; 0x0b
     cd2:	7d 85       	ldd	r23, Y+13	; 0x0d
     cd4:	8e 89       	ldd	r24, Y+22	; 0x16
     cd6:	9a 8d       	ldd	r25, Y+26	; 0x1a
     cd8:	0e 94 34 19 	call	0x3268	; 0x3268 <__mulsf3>
     cdc:	2b 01       	movw	r4, r22
     cde:	3c 01       	movw	r6, r24
     ce0:	9b 01       	movw	r18, r22
     ce2:	ac 01       	movw	r20, r24
     ce4:	c7 01       	movw	r24, r14
     ce6:	b6 01       	movw	r22, r12
     ce8:	0e 94 1e 19 	call	0x323c	; 0x323c <__cmpsf2>
     cec:	87 fd       	sbrc	r24, 7
     cee:	0b c0       	rjmp	.+22     	; 0xd06 <__fmt_fp+0x378>
     cf0:	a3 01       	movw	r20, r6
     cf2:	92 01       	movw	r18, r4
     cf4:	c7 01       	movw	r24, r14
     cf6:	b6 01       	movw	r22, r12
     cf8:	0e 94 1e 19 	call	0x323c	; 0x323c <__cmpsf2>
     cfc:	81 11       	cpse	r24, r1
     cfe:	06 c0       	rjmp	.+12     	; 0xd0c <__fmt_fp+0x37e>
     d00:	fc a1       	ldd	r31, Y+36	; 0x24
     d02:	f0 fd       	sbrc	r31, 0
     d04:	03 c0       	rjmp	.+6      	; 0xd0c <__fmt_fp+0x37e>
     d06:	41 2c       	mov	r4, r1
     d08:	51 2c       	mov	r5, r1
     d0a:	32 01       	movw	r6, r4
     d0c:	a3 01       	movw	r20, r6
     d0e:	92 01       	movw	r18, r4
     d10:	c5 01       	movw	r24, r10
     d12:	b4 01       	movw	r22, r8
     d14:	0e 94 f0 18 	call	0x31e0	; 0x31e0 <__addsf3>
     d18:	4b 01       	movw	r8, r22
     d1a:	5c 01       	movw	r10, r24
     d1c:	2d 89       	ldd	r18, Y+21	; 0x15
     d1e:	25 36       	cpi	r18, 0x65	; 101
     d20:	11 f0       	breq	.+4      	; 0xd26 <__fmt_fp+0x398>
     d22:	31 01       	movw	r6, r2
     d24:	02 c0       	rjmp	.+4      	; 0xd2a <__fmt_fp+0x39c>
     d26:	61 2c       	mov	r6, r1
     d28:	71 2c       	mov	r7, r1
     d2a:	23 01       	movw	r4, r6
     d2c:	4d a1       	ldd	r20, Y+37	; 0x25
     d2e:	5e a1       	ldd	r21, Y+38	; 0x26
     d30:	44 1a       	sub	r4, r20
     d32:	55 0a       	sbc	r5, r21
     d34:	c9 88       	ldd	r12, Y+17	; 0x11
     d36:	da 88       	ldd	r13, Y+18	; 0x12
     d38:	00 e0       	ldi	r16, 0x00	; 0
     d3a:	10 e0       	ldi	r17, 0x00	; 0
     d3c:	1c 86       	std	Y+12, r1	; 0x0c
     d3e:	1b 86       	std	Y+11, r1	; 0x0b
     d40:	89 85       	ldd	r24, Y+9	; 0x09
     d42:	9a 85       	ldd	r25, Y+10	; 0x0a
     d44:	80 71       	andi	r24, 0x10	; 16
     d46:	99 27       	eor	r25, r25
     d48:	9f 8b       	std	Y+23, r25	; 0x17
     d4a:	8e 8b       	std	Y+22, r24	; 0x16
     d4c:	64 14       	cp	r6, r4
     d4e:	75 04       	cpc	r7, r5
     d50:	31 f4       	brne	.+12     	; 0xd5e <__fmt_fp+0x3d0>
     d52:	8b 85       	ldd	r24, Y+11	; 0x0b
     d54:	9c 85       	ldd	r25, Y+12	; 0x0c
     d56:	89 2b       	or	r24, r25
     d58:	09 f4       	brne	.+2      	; 0xd5c <__fmt_fp+0x3ce>
     d5a:	9a c0       	rjmp	.+308    	; 0xe90 <__fmt_fp+0x502>
     d5c:	a6 c0       	rjmp	.+332    	; 0xeaa <__fmt_fp+0x51c>
     d5e:	dd 8e       	std	Y+29, r13	; 0x1d
     d60:	cc 8e       	std	Y+28, r12	; 0x1c
     d62:	e8 8d       	ldd	r30, Y+24	; 0x18
     d64:	f9 8d       	ldd	r31, Y+25	; 0x19
     d66:	80 85       	ldd	r24, Z+8	; 0x08
     d68:	91 85       	ldd	r25, Z+9	; 0x09
     d6a:	05 97       	sbiw	r24, 0x05	; 5
     d6c:	c8 16       	cp	r12, r24
     d6e:	d9 06       	cpc	r13, r25
     d70:	80 f7       	brcc	.-32     	; 0xd52 <__fmt_fp+0x3c4>
     d72:	2b 81       	ldd	r18, Y+3	; 0x03
     d74:	3c 81       	ldd	r19, Y+4	; 0x04
     d76:	4d 81       	ldd	r20, Y+5	; 0x05
     d78:	5e 81       	ldd	r21, Y+6	; 0x06
     d7a:	c5 01       	movw	r24, r10
     d7c:	b4 01       	movw	r22, r8
     d7e:	0e 94 30 19 	call	0x3260	; 0x3260 <__divsf3>
     d82:	0e 94 f6 0e 	call	0x1dec	; 0x1dec <floorf>
     d86:	6d 87       	std	Y+13, r22	; 0x0d
     d88:	7e 87       	std	Y+14, r23	; 0x0e
     d8a:	8f 87       	std	Y+15, r24	; 0x0f
     d8c:	98 8b       	std	Y+16, r25	; 0x10
     d8e:	0e 94 f6 18 	call	0x31ec	; 0x31ec <__fixsfsi>
     d92:	cb 01       	movw	r24, r22
     d94:	ee 89       	ldd	r30, Y+22	; 0x16
     d96:	ff 89       	ldd	r31, Y+23	; 0x17
     d98:	ef 2b       	or	r30, r31
     d9a:	69 f4       	brne	.+26     	; 0xdb6 <__fmt_fp+0x428>
     d9c:	89 2b       	or	r24, r25
     d9e:	59 f4       	brne	.+22     	; 0xdb6 <__fmt_fp+0x428>
     da0:	fb 8d       	ldd	r31, Y+27	; 0x1b
     da2:	f7 36       	cpi	r31, 0x67	; 103
     da4:	41 f4       	brne	.+16     	; 0xdb6 <__fmt_fp+0x428>
     da6:	77 fe       	sbrs	r7, 7
     da8:	06 c0       	rjmp	.+12     	; 0xdb6 <__fmt_fp+0x428>
     daa:	98 01       	movw	r18, r16
     dac:	2f 5f       	subi	r18, 0xFF	; 255
     dae:	3f 4f       	sbci	r19, 0xFF	; 255
     db0:	3d 8f       	std	Y+29, r19	; 0x1d
     db2:	2c 8f       	std	Y+28, r18	; 0x1c
     db4:	43 c0       	rjmp	.+134    	; 0xe3c <__fmt_fp+0x4ae>
     db6:	4b 85       	ldd	r20, Y+11	; 0x0b
     db8:	5c 85       	ldd	r21, Y+12	; 0x0c
     dba:	45 2b       	or	r20, r21
     dbc:	b1 f4       	brne	.+44     	; 0xdea <__fmt_fp+0x45c>
     dbe:	77 fe       	sbrs	r7, 7
     dc0:	14 c0       	rjmp	.+40     	; 0xdea <__fmt_fp+0x45c>
     dc2:	5f ef       	ldi	r21, 0xFF	; 255
     dc4:	c5 1a       	sub	r12, r21
     dc6:	d5 0a       	sbc	r13, r21
     dc8:	e9 81       	ldd	r30, Y+1	; 0x01
     dca:	fa 81       	ldd	r31, Y+2	; 0x02
     dcc:	8c 8d       	ldd	r24, Y+28	; 0x1c
     dce:	9d 8d       	ldd	r25, Y+29	; 0x1d
     dd0:	e8 0f       	add	r30, r24
     dd2:	f9 1f       	adc	r31, r25
     dd4:	9e e2       	ldi	r25, 0x2E	; 46
     dd6:	90 83       	st	Z, r25
     dd8:	ef 81       	ldd	r30, Y+7	; 0x07
     dda:	f8 85       	ldd	r31, Y+8	; 0x08
     ddc:	31 97       	sbiw	r30, 0x01	; 1
     dde:	f8 87       	std	Y+8, r31	; 0x08
     de0:	ef 83       	std	Y+7, r30	; 0x07
     de2:	21 e0       	ldi	r18, 0x01	; 1
     de4:	30 e0       	ldi	r19, 0x00	; 0
     de6:	3c 87       	std	Y+12, r19	; 0x0c
     de8:	2b 87       	std	Y+11, r18	; 0x0b
     dea:	e9 81       	ldd	r30, Y+1	; 0x01
     dec:	fa 81       	ldd	r31, Y+2	; 0x02
     dee:	ec 0d       	add	r30, r12
     df0:	fd 1d       	adc	r31, r13
     df2:	1d 8f       	std	Y+29, r17	; 0x1d
     df4:	0c 8f       	std	Y+28, r16	; 0x1c
     df6:	8c 8d       	ldd	r24, Y+28	; 0x1c
     df8:	9d 8d       	ldd	r25, Y+29	; 0x1d
     dfa:	89 2b       	or	r24, r25
     dfc:	49 f0       	breq	.+18     	; 0xe10 <__fmt_fp+0x482>
     dfe:	30 e3       	ldi	r19, 0x30	; 48
     e00:	31 93       	st	Z+, r19
     e02:	4c 8d       	ldd	r20, Y+28	; 0x1c
     e04:	5d 8d       	ldd	r21, Y+29	; 0x1d
     e06:	41 50       	subi	r20, 0x01	; 1
     e08:	51 09       	sbc	r21, r1
     e0a:	5d 8f       	std	Y+29, r21	; 0x1d
     e0c:	4c 8f       	std	Y+28, r20	; 0x1c
     e0e:	f3 cf       	rjmp	.-26     	; 0xdf6 <__fmt_fp+0x468>
     e10:	c8 01       	movw	r24, r16
     e12:	8c 0d       	add	r24, r12
     e14:	9d 1d       	adc	r25, r13
     e16:	2f 81       	ldd	r18, Y+7	; 0x07
     e18:	38 85       	ldd	r19, Y+8	; 0x08
     e1a:	20 1b       	sub	r18, r16
     e1c:	31 0b       	sbc	r19, r17
     e1e:	6c 01       	movw	r12, r24
     e20:	ef ef       	ldi	r30, 0xFF	; 255
     e22:	ce 1a       	sub	r12, r30
     e24:	de 0a       	sbc	r13, r30
     e26:	e9 81       	ldd	r30, Y+1	; 0x01
     e28:	fa 81       	ldd	r31, Y+2	; 0x02
     e2a:	e8 0f       	add	r30, r24
     e2c:	f9 1f       	adc	r31, r25
     e2e:	60 5d       	subi	r22, 0xD0	; 208
     e30:	60 83       	st	Z, r22
     e32:	a9 01       	movw	r20, r18
     e34:	41 50       	subi	r20, 0x01	; 1
     e36:	51 09       	sbc	r21, r1
     e38:	58 87       	std	Y+8, r21	; 0x08
     e3a:	4f 83       	std	Y+7, r20	; 0x07
     e3c:	85 01       	movw	r16, r10
     e3e:	74 01       	movw	r14, r8
     e40:	17 fb       	bst	r17, 7
     e42:	10 95       	com	r17
     e44:	17 f9       	bld	r17, 7
     e46:	10 95       	com	r17
     e48:	2b 81       	ldd	r18, Y+3	; 0x03
     e4a:	3c 81       	ldd	r19, Y+4	; 0x04
     e4c:	4d 81       	ldd	r20, Y+5	; 0x05
     e4e:	5e 81       	ldd	r21, Y+6	; 0x06
     e50:	6d 85       	ldd	r22, Y+13	; 0x0d
     e52:	7e 85       	ldd	r23, Y+14	; 0x0e
     e54:	8f 85       	ldd	r24, Y+15	; 0x0f
     e56:	98 89       	ldd	r25, Y+16	; 0x10
     e58:	0e 94 58 0e 	call	0x1cb0	; 0x1cb0 <fmaf>
     e5c:	4b 01       	movw	r8, r22
     e5e:	5c 01       	movw	r10, r24
     e60:	b7 fa       	bst	r11, 7
     e62:	b0 94       	com	r11
     e64:	b7 f8       	bld	r11, 7
     e66:	b0 94       	com	r11
     e68:	20 e0       	ldi	r18, 0x00	; 0
     e6a:	30 e0       	ldi	r19, 0x00	; 0
     e6c:	40 e2       	ldi	r20, 0x20	; 32
     e6e:	51 e4       	ldi	r21, 0x41	; 65
     e70:	6b 81       	ldd	r22, Y+3	; 0x03
     e72:	7c 81       	ldd	r23, Y+4	; 0x04
     e74:	8d 81       	ldd	r24, Y+5	; 0x05
     e76:	9e 81       	ldd	r25, Y+6	; 0x06
     e78:	0e 94 30 19 	call	0x3260	; 0x3260 <__divsf3>
     e7c:	6b 83       	std	Y+3, r22	; 0x03
     e7e:	7c 83       	std	Y+4, r23	; 0x04
     e80:	8d 83       	std	Y+5, r24	; 0x05
     e82:	9e 83       	std	Y+6, r25	; 0x06
     e84:	51 e0       	ldi	r21, 0x01	; 1
     e86:	65 1a       	sub	r6, r21
     e88:	71 08       	sbc	r7, r1
     e8a:	0c 8d       	ldd	r16, Y+28	; 0x1c
     e8c:	1d 8d       	ldd	r17, Y+29	; 0x1d
     e8e:	5e cf       	rjmp	.-324    	; 0xd4c <__fmt_fp+0x3be>
     e90:	f9 85       	ldd	r31, Y+9	; 0x09
     e92:	f4 ff       	sbrs	r31, 4
     e94:	0a c0       	rjmp	.+20     	; 0xeaa <__fmt_fp+0x51c>
     e96:	e9 81       	ldd	r30, Y+1	; 0x01
     e98:	fa 81       	ldd	r31, Y+2	; 0x02
     e9a:	ec 0d       	add	r30, r12
     e9c:	fd 1d       	adc	r31, r13
     e9e:	8e e2       	ldi	r24, 0x2E	; 46
     ea0:	80 83       	st	Z, r24
     ea2:	96 01       	movw	r18, r12
     ea4:	2f 5f       	subi	r18, 0xFF	; 255
     ea6:	3f 4f       	sbci	r19, 0xFF	; 255
     ea8:	69 01       	movw	r12, r18
     eaa:	49 81       	ldd	r20, Y+1	; 0x01
     eac:	5a 81       	ldd	r21, Y+2	; 0x02
     eae:	4c 0d       	add	r20, r12
     eb0:	5d 1d       	adc	r21, r13
     eb2:	5c 87       	std	Y+12, r21	; 0x0c
     eb4:	4b 87       	std	Y+11, r20	; 0x0b
     eb6:	fa 01       	movw	r30, r20
     eb8:	10 82       	st	Z, r1
     eba:	fd 89       	ldd	r31, Y+21	; 0x15
     ebc:	f5 36       	cpi	r31, 0x65	; 101
     ebe:	09 f0       	breq	.+2      	; 0xec2 <__fmt_fp+0x534>
     ec0:	61 c0       	rjmp	.+194    	; 0xf84 <__fmt_fp+0x5f6>
     ec2:	e9 81       	ldd	r30, Y+1	; 0x01
     ec4:	fa 81       	ldd	r31, Y+2	; 0x02
     ec6:	28 a1       	ldd	r18, Y+32	; 0x20
     ec8:	39 a1       	ldd	r19, Y+33	; 0x21
     eca:	e2 0f       	add	r30, r18
     ecc:	f3 1f       	adc	r31, r19
     ece:	31 97       	sbiw	r30, 0x01	; 1
     ed0:	10 82       	st	Z, r1
     ed2:	37 fe       	sbrs	r3, 7
     ed4:	06 c0       	rjmp	.+12     	; 0xee2 <__fmt_fp+0x554>
     ed6:	31 94       	neg	r3
     ed8:	21 94       	neg	r2
     eda:	31 08       	sbc	r3, r1
     edc:	01 e0       	ldi	r16, 0x01	; 1
     ede:	10 e0       	ldi	r17, 0x00	; 0
     ee0:	02 c0       	rjmp	.+4      	; 0xee6 <__fmt_fp+0x558>
     ee2:	00 e0       	ldi	r16, 0x00	; 0
     ee4:	10 e0       	ldi	r17, 0x00	; 0
     ee6:	e8 a1       	ldd	r30, Y+32	; 0x20
     ee8:	f9 a1       	ldd	r31, Y+33	; 0x21
     eea:	31 97       	sbiw	r30, 0x01	; 1
     eec:	49 81       	ldd	r20, Y+1	; 0x01
     eee:	5a 81       	ldd	r21, Y+2	; 0x02
     ef0:	e4 0f       	add	r30, r20
     ef2:	f5 1f       	adc	r31, r21
     ef4:	22 e0       	ldi	r18, 0x02	; 2
     ef6:	30 e0       	ldi	r19, 0x00	; 0
     ef8:	8a e0       	ldi	r24, 0x0A	; 10
     efa:	e8 2e       	mov	r14, r24
     efc:	f1 2c       	mov	r15, r1
     efe:	cf 01       	movw	r24, r30
     f00:	49 81       	ldd	r20, Y+1	; 0x01
     f02:	5a 81       	ldd	r21, Y+2	; 0x02
     f04:	84 1b       	sub	r24, r20
     f06:	95 0b       	sbc	r25, r21
     f08:	21 14       	cp	r2, r1
     f0a:	31 04       	cpc	r3, r1
     f0c:	79 f0       	breq	.+30     	; 0xf2c <__fmt_fp+0x59e>
     f0e:	c1 01       	movw	r24, r2
     f10:	b7 01       	movw	r22, r14
     f12:	0e 94 c6 17 	call	0x2f8c	; 0x2f8c <__divmodhi4>
     f16:	80 5d       	subi	r24, 0xD0	; 208
     f18:	82 93       	st	-Z, r24
     f1a:	1b 01       	movw	r2, r22
     f1c:	21 50       	subi	r18, 0x01	; 1
     f1e:	31 09       	sbc	r19, r1
     f20:	8f 81       	ldd	r24, Y+7	; 0x07
     f22:	98 85       	ldd	r25, Y+8	; 0x08
     f24:	01 97       	sbiw	r24, 0x01	; 1
     f26:	98 87       	std	Y+8, r25	; 0x08
     f28:	8f 83       	std	Y+7, r24	; 0x07
     f2a:	e9 cf       	rjmp	.-46     	; 0xefe <__fmt_fp+0x570>
     f2c:	12 16       	cp	r1, r18
     f2e:	13 06       	cpc	r1, r19
     f30:	74 f3       	brlt	.-36     	; 0xf0e <__fmt_fp+0x580>
     f32:	fc 01       	movw	r30, r24
     f34:	31 97       	sbiw	r30, 0x01	; 1
     f36:	e4 0f       	add	r30, r20
     f38:	f5 1f       	adc	r31, r21
     f3a:	01 2b       	or	r16, r17
     f3c:	11 f4       	brne	.+4      	; 0xf42 <__fmt_fp+0x5b4>
     f3e:	2b e2       	ldi	r18, 0x2B	; 43
     f40:	01 c0       	rjmp	.+2      	; 0xf44 <__fmt_fp+0x5b6>
     f42:	2d e2       	ldi	r18, 0x2D	; 45
     f44:	20 83       	st	Z, r18
     f46:	02 97       	sbiw	r24, 0x02	; 2
     f48:	e9 81       	ldd	r30, Y+1	; 0x01
     f4a:	fa 81       	ldd	r31, Y+2	; 0x02
     f4c:	e8 0f       	add	r30, r24
     f4e:	f9 1f       	adc	r31, r25
     f50:	2a a1       	ldd	r18, Y+34	; 0x22
     f52:	3b a1       	ldd	r19, Y+35	; 0x23
     f54:	21 54       	subi	r18, 0x41	; 65
     f56:	31 09       	sbc	r19, r1
     f58:	2a 31       	cpi	r18, 0x1A	; 26
     f5a:	31 05       	cpc	r19, r1
     f5c:	10 f0       	brcs	.+4      	; 0xf62 <__fmt_fp+0x5d4>
     f5e:	25 e6       	ldi	r18, 0x65	; 101
     f60:	01 c0       	rjmp	.+2      	; 0xf64 <__fmt_fp+0x5d6>
     f62:	25 e4       	ldi	r18, 0x45	; 69
     f64:	20 83       	st	Z, r18
     f66:	2f 81       	ldd	r18, Y+7	; 0x07
     f68:	38 85       	ldd	r19, Y+8	; 0x08
     f6a:	22 50       	subi	r18, 0x02	; 2
     f6c:	31 09       	sbc	r19, r1
     f6e:	38 87       	std	Y+8, r19	; 0x08
     f70:	2f 83       	std	Y+7, r18	; 0x07
     f72:	c8 16       	cp	r12, r24
     f74:	d9 06       	cpc	r13, r25
     f76:	34 f4       	brge	.+12     	; 0xf84 <__fmt_fp+0x5f6>
     f78:	af 01       	movw	r20, r30
     f7a:	60 e8       	ldi	r22, 0x80	; 128
     f7c:	8b 85       	ldd	r24, Y+11	; 0x0b
     f7e:	9c 85       	ldd	r25, Y+12	; 0x0c
     f80:	0e 94 35 18 	call	0x306a	; 0x306a <strcpy>
     f84:	49 81       	ldd	r20, Y+1	; 0x01
     f86:	5a 81       	ldd	r21, Y+2	; 0x02
     f88:	3a 01       	movw	r6, r20
     f8a:	80 e8       	ldi	r24, 0x80	; 128
     f8c:	88 2e       	mov	r8, r24
     f8e:	99 85       	ldd	r25, Y+9	; 0x09
     f90:	91 ff       	sbrs	r25, 1
     f92:	2e c0       	rjmp	.+92     	; 0xff0 <__fmt_fp+0x662>
     f94:	90 fd       	sbrc	r25, 0
     f96:	2c c0       	rjmp	.+88     	; 0xff0 <__fmt_fp+0x662>
     f98:	ef 81       	ldd	r30, Y+7	; 0x07
     f9a:	f8 85       	ldd	r31, Y+8	; 0x08
     f9c:	1e 16       	cp	r1, r30
     f9e:	1f 06       	cpc	r1, r31
     fa0:	3c f5       	brge	.+78     	; 0xff0 <__fmt_fp+0x662>
     fa2:	88 2d       	mov	r24, r8
     fa4:	b3 01       	movw	r22, r6
     fa6:	0e 94 9b 17 	call	0x2f36	; 0x2f36 <strlen>
     faa:	29 81       	ldd	r18, Y+1	; 0x01
     fac:	3a 81       	ldd	r19, Y+2	; 0x02
     fae:	82 0f       	add	r24, r18
     fb0:	93 1f       	adc	r25, r19
     fb2:	9c 01       	movw	r18, r24
     fb4:	49 81       	ldd	r20, Y+1	; 0x01
     fb6:	5a 81       	ldd	r21, Y+2	; 0x02
     fb8:	24 1b       	sub	r18, r20
     fba:	35 0b       	sbc	r19, r21
     fbc:	e9 89       	ldd	r30, Y+17	; 0x11
     fbe:	fa 89       	ldd	r31, Y+18	; 0x12
     fc0:	2e 17       	cp	r18, r30
     fc2:	3f 07       	cpc	r19, r31
     fc4:	4c f0       	brlt	.+18     	; 0xfd8 <__fmt_fp+0x64a>
     fc6:	fc 01       	movw	r30, r24
     fc8:	20 81       	ld	r18, Z
     fca:	ef 81       	ldd	r30, Y+7	; 0x07
     fcc:	f8 85       	ldd	r31, Y+8	; 0x08
     fce:	e8 0f       	add	r30, r24
     fd0:	f9 1f       	adc	r31, r25
     fd2:	20 83       	st	Z, r18
     fd4:	01 97       	sbiw	r24, 0x01	; 1
     fd6:	ed cf       	rjmp	.-38     	; 0xfb2 <__fmt_fp+0x624>
     fd8:	4f 81       	ldd	r20, Y+7	; 0x07
     fda:	58 85       	ldd	r21, Y+8	; 0x08
     fdc:	60 e3       	ldi	r22, 0x30	; 48
     fde:	70 e0       	ldi	r23, 0x00	; 0
     fe0:	89 81       	ldd	r24, Y+1	; 0x01
     fe2:	9a 81       	ldd	r25, Y+2	; 0x02
     fe4:	8e 0f       	add	r24, r30
     fe6:	9f 1f       	adc	r25, r31
     fe8:	0e 94 c0 18 	call	0x3180	; 0x3180 <memset>
     fec:	1c 8a       	std	Y+20, r1	; 0x14
     fee:	1b 8a       	std	Y+19, r1	; 0x13
     ff0:	88 2d       	mov	r24, r8
     ff2:	b3 01       	movw	r22, r6
     ff4:	0e 94 9b 17 	call	0x2f36	; 0x2f36 <strlen>
     ff8:	e9 84       	ldd	r14, Y+9	; 0x09
     ffa:	fa 84       	ldd	r15, Y+10	; 0x0a
     ffc:	0b 89       	ldd	r16, Y+19	; 0x13
     ffe:	1c 89       	ldd	r17, Y+20	; 0x14
    1000:	9c 01       	movw	r18, r24
    1002:	68 2d       	mov	r22, r8
    1004:	a3 01       	movw	r20, r6
    1006:	8e 8d       	ldd	r24, Y+30	; 0x1e
    1008:	9f 8d       	ldd	r25, Y+31	; 0x1f
    100a:	0e 94 8f 0f 	call	0x1f1e	; 0x1f1e <__pad>
    100e:	a6 96       	adiw	r28, 0x26	; 38
    1010:	e2 e1       	ldi	r30, 0x12	; 18
    1012:	0c 94 21 17 	jmp	0x2e42	; 0x2e42 <__epilogue_restores__>
    1016:	59 85       	ldd	r21, Y+9	; 0x09
    1018:	53 ff       	sbrs	r21, 3
    101a:	00 cd       	rjmp	.-1536   	; 0xa1c <__fmt_fp+0x8e>
    101c:	80 e2       	ldi	r24, 0x20	; 32
    101e:	f0 cc       	rjmp	.-1568   	; 0xa00 <__fmt_fp+0x72>
    1020:	2c ef       	ldi	r18, 0xFC	; 252
    1022:	22 16       	cp	r2, r18
    1024:	2f ef       	ldi	r18, 0xFF	; 255
    1026:	32 06       	cpc	r3, r18
    1028:	4c f0       	brlt	.+18     	; 0x103c <__fmt_fp+0x6ae>
    102a:	4d a1       	ldd	r20, Y+37	; 0x25
    102c:	5e a1       	ldd	r21, Y+38	; 0x26
    102e:	24 16       	cp	r2, r20
    1030:	35 06       	cpc	r3, r21
    1032:	0c f4       	brge	.+2      	; 0x1036 <__fmt_fp+0x6a8>
    1034:	df cd       	rjmp	.-1090   	; 0xbf4 <__fmt_fp+0x266>
    1036:	55 e6       	ldi	r21, 0x65	; 101
    1038:	5d 8b       	std	Y+21, r21	; 0x15
    103a:	fb cd       	rjmp	.-1034   	; 0xc32 <__fmt_fp+0x2a4>
    103c:	35 e6       	ldi	r19, 0x65	; 101
    103e:	3d 8b       	std	Y+21, r19	; 0x15
    1040:	f8 cd       	rjmp	.-1040   	; 0xc32 <__fmt_fp+0x2a4>
    1042:	46 e6       	ldi	r20, 0x66	; 102
    1044:	4d 8b       	std	Y+21, r20	; 0x15
    1046:	f5 cd       	rjmp	.-1046   	; 0xc32 <__fmt_fp+0x2a4>

Disassembly of section .text.__out:

00002a1a <__out>:
    2a1a:	6f 92       	push	r6
    2a1c:	7f 92       	push	r7
    2a1e:	8f 92       	push	r8
    2a20:	cf 92       	push	r12
    2a22:	df 92       	push	r13
    2a24:	ef 92       	push	r14
    2a26:	0f 93       	push	r16
    2a28:	1f 93       	push	r17
    2a2a:	cf 93       	push	r28
    2a2c:	df 93       	push	r29
    2a2e:	8c 01       	movw	r16, r24
    2a30:	6a 01       	movw	r12, r20
    2a32:	e6 2e       	mov	r14, r22
    2a34:	e9 01       	movw	r28, r18
    2a36:	3a 01       	movw	r6, r20
    2a38:	86 2e       	mov	r8, r22
    2a3a:	62 0e       	add	r6, r18
    2a3c:	73 1e       	adc	r7, r19
    2a3e:	81 1c       	adc	r8, r1
    2a40:	37 fd       	sbrc	r19, 7
    2a42:	8a 94       	dec	r8
    2a44:	c6 14       	cp	r12, r6
    2a46:	d7 04       	cpc	r13, r7
    2a48:	e8 04       	cpc	r14, r8
    2a4a:	79 f0       	breq	.+30     	; 0x2a6a <__out+0x50>
    2a4c:	f6 01       	movw	r30, r12
    2a4e:	84 91       	lpm	r24, Z
    2a50:	e7 fc       	sbrc	r14, 7
    2a52:	80 81       	ld	r24, Z
    2a54:	b8 01       	movw	r22, r16
    2a56:	08 2e       	mov	r0, r24
    2a58:	00 0c       	add	r0, r0
    2a5a:	99 0b       	sbc	r25, r25
    2a5c:	0e 94 5b 13 	call	0x26b6	; 0x26b6 <fputc>
    2a60:	8f ef       	ldi	r24, 0xFF	; 255
    2a62:	c8 1a       	sub	r12, r24
    2a64:	d8 0a       	sbc	r13, r24
    2a66:	e8 0a       	sbc	r14, r24
    2a68:	ed cf       	rjmp	.-38     	; 0x2a44 <__out+0x2a>
    2a6a:	ce 01       	movw	r24, r28
    2a6c:	df 91       	pop	r29
    2a6e:	cf 91       	pop	r28
    2a70:	1f 91       	pop	r17
    2a72:	0f 91       	pop	r16
    2a74:	ef 90       	pop	r14
    2a76:	df 90       	pop	r13
    2a78:	cf 90       	pop	r12
    2a7a:	8f 90       	pop	r8
    2a7c:	7f 90       	pop	r7
    2a7e:	6f 90       	pop	r6
    2a80:	08 95       	ret

Disassembly of section .text.__pad:

00001f1e <__pad>:
    1f1e:	2f 92       	push	r2
    1f20:	3f 92       	push	r3
    1f22:	4f 92       	push	r4
    1f24:	6f 92       	push	r6
    1f26:	7f 92       	push	r7
    1f28:	8f 92       	push	r8
    1f2a:	af 92       	push	r10
    1f2c:	bf 92       	push	r11
    1f2e:	cf 92       	push	r12
    1f30:	df 92       	push	r13
    1f32:	ef 92       	push	r14
    1f34:	ff 92       	push	r15
    1f36:	0f 93       	push	r16
    1f38:	1f 93       	push	r17
    1f3a:	cf 93       	push	r28
    1f3c:	df 93       	push	r29
    1f3e:	cd b7       	in	r28, 0x3d	; 61
    1f40:	de b7       	in	r29, 0x3e	; 62
    1f42:	66 97       	sbiw	r28, 0x16	; 22
    1f44:	0f b6       	in	r0, 0x3f	; 63
    1f46:	f8 94       	cli
    1f48:	de bf       	out	0x3e, r29	; 62
    1f4a:	0f be       	out	0x3f, r0	; 63
    1f4c:	cd bf       	out	0x3d, r28	; 61
    1f4e:	5c 01       	movw	r10, r24
    1f50:	3a 01       	movw	r6, r20
    1f52:	86 2e       	mov	r8, r22
    1f54:	69 01       	movw	r12, r18
    1f56:	c7 01       	movw	r24, r14
    1f58:	81 70       	andi	r24, 0x01	; 1
    1f5a:	99 27       	eor	r25, r25
    1f5c:	9c 8b       	std	Y+20, r25	; 0x14
    1f5e:	8b 8b       	std	Y+19, r24	; 0x13
    1f60:	e0 fc       	sbrc	r14, 0
    1f62:	1d c0       	rjmp	.+58     	; 0x1f9e <__pad+0x80>
    1f64:	20 17       	cp	r18, r16
    1f66:	31 07       	cpc	r19, r17
    1f68:	d4 f4       	brge	.+52     	; 0x1f9e <__pad+0x80>
    1f6a:	78 01       	movw	r14, r16
    1f6c:	ec 18       	sub	r14, r12
    1f6e:	fd 08       	sbc	r15, r13
    1f70:	fe 8a       	std	Y+22, r15	; 0x16
    1f72:	ed 8a       	std	Y+21, r14	; 0x15
    1f74:	a7 01       	movw	r20, r14
    1f76:	91 e1       	ldi	r25, 0x11	; 17
    1f78:	e9 16       	cp	r14, r25
    1f7a:	f1 04       	cpc	r15, r1
    1f7c:	10 f0       	brcs	.+4      	; 0x1f82 <__pad+0x64>
    1f7e:	40 e1       	ldi	r20, 0x10	; 16
    1f80:	50 e0       	ldi	r21, 0x00	; 0
    1f82:	60 e2       	ldi	r22, 0x20	; 32
    1f84:	70 e0       	ldi	r23, 0x00	; 0
    1f86:	ce 01       	movw	r24, r28
    1f88:	01 96       	adiw	r24, 0x01	; 1
    1f8a:	9a 8b       	std	Y+18, r25	; 0x12
    1f8c:	89 8b       	std	Y+17, r24	; 0x11
    1f8e:	0e 94 c0 18 	call	0x3180	; 0x3180 <memset>
    1f92:	89 89       	ldd	r24, Y+17	; 0x11
    1f94:	9a 89       	ldd	r25, Y+18	; 0x12
    1f96:	1c 01       	movw	r2, r24
    1f98:	20 e8       	ldi	r18, 0x80	; 128
    1f9a:	42 2e       	mov	r4, r18
    1f9c:	0b c0       	rjmp	.+22     	; 0x1fb4 <__pad+0x96>
    1f9e:	96 01       	movw	r18, r12
    1fa0:	68 2d       	mov	r22, r8
    1fa2:	a3 01       	movw	r20, r6
    1fa4:	c5 01       	movw	r24, r10
    1fa6:	0e 94 0d 15 	call	0x2a1a	; 0x2a1a <__out>
    1faa:	c0 16       	cp	r12, r16
    1fac:	d1 06       	cpc	r13, r17
    1fae:	ec f2       	brlt	.-70     	; 0x1f6a <__pad+0x4c>
    1fb0:	c6 01       	movw	r24, r12
    1fb2:	25 c0       	rjmp	.+74     	; 0x1ffe <__pad+0xe0>
    1fb4:	90 e1       	ldi	r25, 0x10	; 16
    1fb6:	e9 16       	cp	r14, r25
    1fb8:	f1 04       	cpc	r15, r1
    1fba:	58 f0       	brcs	.+22     	; 0x1fd2 <__pad+0xb4>
    1fbc:	20 e1       	ldi	r18, 0x10	; 16
    1fbe:	30 e0       	ldi	r19, 0x00	; 0
    1fc0:	64 2d       	mov	r22, r4
    1fc2:	a1 01       	movw	r20, r2
    1fc4:	c5 01       	movw	r24, r10
    1fc6:	0e 94 0d 15 	call	0x2a1a	; 0x2a1a <__out>
    1fca:	80 e1       	ldi	r24, 0x10	; 16
    1fcc:	e8 1a       	sub	r14, r24
    1fce:	f1 08       	sbc	r15, r1
    1fd0:	f1 cf       	rjmp	.-30     	; 0x1fb4 <__pad+0x96>
    1fd2:	2d 89       	ldd	r18, Y+21	; 0x15
    1fd4:	3e 89       	ldd	r19, Y+22	; 0x16
    1fd6:	2f 70       	andi	r18, 0x0F	; 15
    1fd8:	33 27       	eor	r19, r19
    1fda:	89 89       	ldd	r24, Y+17	; 0x11
    1fdc:	9a 89       	ldd	r25, Y+18	; 0x12
    1fde:	ac 01       	movw	r20, r24
    1fe0:	60 e8       	ldi	r22, 0x80	; 128
    1fe2:	c5 01       	movw	r24, r10
    1fe4:	0e 94 0d 15 	call	0x2a1a	; 0x2a1a <__out>
    1fe8:	8b 89       	ldd	r24, Y+19	; 0x13
    1fea:	9c 89       	ldd	r25, Y+20	; 0x14
    1fec:	89 2b       	or	r24, r25
    1fee:	31 f4       	brne	.+12     	; 0x1ffc <__pad+0xde>
    1ff0:	96 01       	movw	r18, r12
    1ff2:	68 2d       	mov	r22, r8
    1ff4:	a3 01       	movw	r20, r6
    1ff6:	c5 01       	movw	r24, r10
    1ff8:	0e 94 0d 15 	call	0x2a1a	; 0x2a1a <__out>
    1ffc:	c8 01       	movw	r24, r16
    1ffe:	66 96       	adiw	r28, 0x16	; 22
    2000:	0f b6       	in	r0, 0x3f	; 63
    2002:	f8 94       	cli
    2004:	de bf       	out	0x3e, r29	; 62
    2006:	0f be       	out	0x3f, r0	; 63
    2008:	cd bf       	out	0x3d, r28	; 61
    200a:	df 91       	pop	r29
    200c:	cf 91       	pop	r28
    200e:	1f 91       	pop	r17
    2010:	0f 91       	pop	r16
    2012:	ff 90       	pop	r15
    2014:	ef 90       	pop	r14
    2016:	df 90       	pop	r13
    2018:	cf 90       	pop	r12
    201a:	bf 90       	pop	r11
    201c:	af 90       	pop	r10
    201e:	8f 90       	pop	r8
    2020:	7f 90       	pop	r7
    2022:	6f 90       	pop	r6
    2024:	4f 90       	pop	r4
    2026:	3f 90       	pop	r3
    2028:	2f 90       	pop	r2
    202a:	08 95       	ret

Disassembly of section .text.__dummy_fmt3:

00003276 <__fmt_d>:
    3276:	80 e0       	ldi	r24, 0x00	; 0
    3278:	90 e0       	ldi	r25, 0x00	; 0
    327a:	08 95       	ret

Disassembly of section .text.__dummy_fmt4:

0000327c <__fmt_a>:
    327c:	80 e0       	ldi	r24, 0x00	; 0
    327e:	90 e0       	ldi	r25, 0x00	; 0
    3280:	08 95       	ret

Disassembly of section .text.__dummy_fmts:

00003282 <__fmt_s>:
    3282:	80 e0       	ldi	r24, 0x00	; 0
    3284:	90 e0       	ldi	r25, 0x00	; 0
    3286:	08 95       	ret

Disassembly of section .text.__fmt_state:

00002618 <__fmt_state>:
    2618:	cf 92       	push	r12
    261a:	df 92       	push	r13
    261c:	ef 92       	push	r14
    261e:	dc 01       	movw	r26, r24
    2620:	90 e0       	ldi	r25, 0x00	; 0
    2622:	29 2f       	mov	r18, r25
    2624:	30 e0       	ldi	r19, 0x00	; 0
    2626:	22 0f       	add	r18, r18
    2628:	33 1f       	adc	r19, r19
    262a:	69 01       	movw	r12, r18
    262c:	03 2e       	mov	r0, r19
    262e:	00 0c       	add	r0, r0
    2630:	ee 08       	sbc	r14, r14
    2632:	6e 2d       	mov	r22, r14
    2634:	a6 01       	movw	r20, r12
    2636:	45 5e       	subi	r20, 0xE5	; 229
    2638:	5e 4f       	sbci	r21, 0xFE	; 254
    263a:	6f 4f       	sbci	r22, 0xFF	; 255
    263c:	6a 01       	movw	r12, r20
    263e:	e6 2e       	mov	r14, r22
    2640:	fa 01       	movw	r30, r20
    2642:	84 91       	lpm	r24, Z
    2644:	e7 fc       	sbrc	r14, 7
    2646:	80 81       	ld	r24, Z
    2648:	81 11       	cpse	r24, r1
    264a:	0d c0       	rjmp	.+26     	; 0x2666 <__fmt_state+0x4e>
    264c:	2f 5f       	subi	r18, 0xFF	; 255
    264e:	3f 4f       	sbci	r19, 0xFF	; 255
    2650:	03 2e       	mov	r0, r19
    2652:	00 0c       	add	r0, r0
    2654:	44 0b       	sbc	r20, r20
    2656:	25 5e       	subi	r18, 0xE5	; 229
    2658:	3e 4f       	sbci	r19, 0xFE	; 254
    265a:	4f 4f       	sbci	r20, 0xFF	; 255
    265c:	f9 01       	movw	r30, r18
    265e:	84 91       	lpm	r24, Z
    2660:	47 fd       	sbrc	r20, 7
    2662:	80 81       	ld	r24, Z
    2664:	24 c0       	rjmp	.+72     	; 0x26ae <__fmt_state+0x96>
    2666:	cd 90       	ld	r12, X+
    2668:	dd 90       	ld	r13, X+
    266a:	ec 90       	ld	r14, X
    266c:	12 97       	sbiw	r26, 0x02	; 2
    266e:	f6 01       	movw	r30, r12
    2670:	44 91       	lpm	r20, Z
    2672:	e7 fc       	sbrc	r14, 7
    2674:	40 81       	ld	r20, Z
    2676:	84 13       	cpse	r24, r20
    2678:	15 c0       	rjmp	.+42     	; 0x26a4 <__fmt_state+0x8c>
    267a:	2f 5f       	subi	r18, 0xFF	; 255
    267c:	3f 4f       	sbci	r19, 0xFF	; 255
    267e:	03 2e       	mov	r0, r19
    2680:	00 0c       	add	r0, r0
    2682:	44 0b       	sbc	r20, r20
    2684:	25 5e       	subi	r18, 0xE5	; 229
    2686:	3e 4f       	sbci	r19, 0xFE	; 254
    2688:	4f 4f       	sbci	r20, 0xFF	; 255
    268a:	f9 01       	movw	r30, r18
    268c:	94 91       	lpm	r25, Z
    268e:	47 fd       	sbrc	r20, 7
    2690:	90 81       	ld	r25, Z
    2692:	5f ef       	ldi	r21, 0xFF	; 255
    2694:	c5 1a       	sub	r12, r21
    2696:	d5 0a       	sbc	r13, r21
    2698:	e5 0a       	sbc	r14, r21
    269a:	cd 92       	st	X+, r12
    269c:	dd 92       	st	X+, r13
    269e:	ec 92       	st	X, r14
    26a0:	12 97       	sbiw	r26, 0x02	; 2
    26a2:	01 c0       	rjmp	.+2      	; 0x26a6 <__fmt_state+0x8e>
    26a4:	9f 5f       	subi	r25, 0xFF	; 255
    26a6:	9b 30       	cpi	r25, 0x0B	; 11
    26a8:	08 f4       	brcc	.+2      	; 0x26ac <__fmt_state+0x94>
    26aa:	bb cf       	rjmp	.-138    	; 0x2622 <__fmt_state+0xa>
    26ac:	89 2f       	mov	r24, r25
    26ae:	ef 90       	pop	r14
    26b0:	df 90       	pop	r13
    26b2:	cf 90       	pop	r12
    26b4:	08 95       	ret

Disassembly of section .text.__printf_core:

0000016c <__printf_core>:
 16c:	a3 ea       	ldi	r26, 0xA3	; 163
 16e:	b0 e0       	ldi	r27, 0x00	; 0
 170:	ec eb       	ldi	r30, 0xBC	; 188
 172:	f0 e0       	ldi	r31, 0x00	; 0
 174:	0c 94 ea 16 	jmp	0x2dd4	; 0x2dd4 <__prologue_saves__>
 178:	4c 01       	movw	r8, r24
 17a:	59 01       	movw	r10, r18
 17c:	c7 56       	subi	r28, 0x67	; 103
 17e:	df 4f       	sbci	r29, 0xFF	; 255
 180:	48 83       	st	Y, r20
 182:	59 83       	std	Y+1, r21	; 0x01
 184:	6a 83       	std	Y+2, r22	; 0x02
 186:	c9 59       	subi	r28, 0x99	; 153
 188:	d0 40       	sbci	r29, 0x00	; 0
 18a:	21 2c       	mov	r2, r1
 18c:	31 2c       	mov	r3, r1
 18e:	6e 01       	movw	r12, r28
 190:	2b e8       	ldi	r18, 0x8B	; 139
 192:	c2 0e       	add	r12, r18
 194:	d1 1c       	adc	r13, r1
 196:	85 e2       	ldi	r24, 0x25	; 37
 198:	78 2e       	mov	r7, r24
 19a:	26 01       	movw	r4, r12
 19c:	30 e8       	ldi	r19, 0x80	; 128
 19e:	63 2e       	mov	r6, r19
 1a0:	ce 01       	movw	r24, r28
 1a2:	8d 56       	subi	r24, 0x6D	; 109
 1a4:	9f 4f       	sbci	r25, 0xFF	; 255
 1a6:	c4 56       	subi	r28, 0x64	; 100
 1a8:	df 4f       	sbci	r29, 0xFF	; 255
 1aa:	99 83       	std	Y+1, r25	; 0x01
 1ac:	88 83       	st	Y, r24
 1ae:	cc 59       	subi	r28, 0x9C	; 156
 1b0:	d0 40       	sbci	r29, 0x00	; 0
 1b2:	9c 01       	movw	r18, r24
 1b4:	40 e8       	ldi	r20, 0x80	; 128
 1b6:	cf 55       	subi	r28, 0x5F	; 95
 1b8:	df 4f       	sbci	r29, 0xFF	; 255
 1ba:	28 83       	st	Y, r18
 1bc:	39 83       	std	Y+1, r19	; 0x01
 1be:	4a 83       	std	Y+2, r20	; 0x02
 1c0:	c1 5a       	subi	r28, 0xA1	; 161
 1c2:	d0 40       	sbci	r29, 0x00	; 0
 1c4:	c7 56       	subi	r28, 0x67	; 103
 1c6:	df 4f       	sbci	r29, 0xFF	; 255
 1c8:	48 81       	ld	r20, Y
 1ca:	c9 59       	subi	r28, 0x99	; 153
 1cc:	d0 40       	sbci	r29, 0x00	; 0
 1ce:	c6 56       	subi	r28, 0x66	; 102
 1d0:	df 4f       	sbci	r29, 0xFF	; 255
 1d2:	58 81       	ld	r21, Y
 1d4:	ca 59       	subi	r28, 0x9A	; 154
 1d6:	d0 40       	sbci	r29, 0x00	; 0
 1d8:	c5 56       	subi	r28, 0x65	; 101
 1da:	df 4f       	sbci	r29, 0xFF	; 255
 1dc:	68 81       	ld	r22, Y
 1de:	cb 59       	subi	r28, 0x9B	; 155
 1e0:	d0 40       	sbci	r29, 0x00	; 0
 1e2:	fa 01       	movw	r30, r20
 1e4:	84 91       	lpm	r24, Z
 1e6:	67 fd       	sbrc	r22, 7
 1e8:	80 81       	ld	r24, Z
 1ea:	88 23       	and	r24, r24
 1ec:	09 f4       	brne	.+2      	; 0x1f0 <__printf_core+0x84>
 1ee:	c9 c3       	rjmp	.+1938   	; 0x982 <__stack+0x123>
 1f0:	cf 57       	subi	r28, 0x7F	; 127
 1f2:	df 4f       	sbci	r29, 0xFF	; 255
 1f4:	19 82       	std	Y+1, r1	; 0x01
 1f6:	18 82       	st	Y, r1
 1f8:	c1 58       	subi	r28, 0x81	; 129
 1fa:	d0 40       	sbci	r29, 0x00	; 0
 1fc:	8f ef       	ldi	r24, 0xFF	; 255
 1fe:	9f ef       	ldi	r25, 0xFF	; 255
 200:	cd 57       	subi	r28, 0x7D	; 125
 202:	df 4f       	sbci	r29, 0xFF	; 255
 204:	99 83       	std	Y+1, r25	; 0x01
 206:	88 83       	st	Y, r24
 208:	c3 58       	subi	r28, 0x83	; 131
 20a:	d0 40       	sbci	r29, 0x00	; 0
 20c:	cb 57       	subi	r28, 0x7B	; 123
 20e:	df 4f       	sbci	r29, 0xFF	; 255
 210:	19 82       	std	Y+1, r1	; 0x01
 212:	18 82       	st	Y, r1
 214:	c5 58       	subi	r28, 0x85	; 133
 216:	d0 40       	sbci	r29, 0x00	; 0
 218:	a1 e0       	ldi	r26, 0x01	; 1
 21a:	b0 e0       	ldi	r27, 0x00	; 0
 21c:	ac 0f       	add	r26, r28
 21e:	bd 1f       	adc	r27, r29
 220:	c9 57       	subi	r28, 0x79	; 121
 222:	df 4f       	sbci	r29, 0xFF	; 255
 224:	b9 83       	std	Y+1, r27	; 0x01
 226:	a8 83       	st	Y, r26
 228:	c7 58       	subi	r28, 0x87	; 135
 22a:	d0 40       	sbci	r29, 0x00	; 0
 22c:	e0 e8       	ldi	r30, 0x80	; 128
 22e:	f0 e0       	ldi	r31, 0x00	; 0
 230:	c7 57       	subi	r28, 0x77	; 119
 232:	df 4f       	sbci	r29, 0xFF	; 255
 234:	f9 83       	std	Y+1, r31	; 0x01
 236:	e8 83       	st	Y, r30
 238:	c9 58       	subi	r28, 0x89	; 137
 23a:	d0 40       	sbci	r29, 0x00	; 0
 23c:	ca 01       	movw	r24, r20
 23e:	a6 2f       	mov	r26, r22
 240:	e1 2c       	mov	r14, r1
 242:	f1 2c       	mov	r15, r1
 244:	fc 01       	movw	r30, r24
 246:	24 91       	lpm	r18, Z
 248:	a7 fd       	sbrc	r26, 7
 24a:	20 81       	ld	r18, Z
 24c:	21 11       	cpse	r18, r1
 24e:	1b c0       	rjmp	.+54     	; 0x286 <__printf_core+0x11a>
 250:	e1 14       	cp	r14, r1
 252:	f1 04       	cpc	r15, r1
 254:	01 f1       	breq	.+64     	; 0x296 <__printf_core+0x12a>
 256:	97 01       	movw	r18, r14
 258:	c4 01       	movw	r24, r8
 25a:	0e 94 0d 15 	call	0x2a1a	; 0x2a1a <__out>
 25e:	c7 56       	subi	r28, 0x67	; 103
 260:	df 4f       	sbci	r29, 0xFF	; 255
 262:	88 81       	ld	r24, Y
 264:	99 81       	ldd	r25, Y+1	; 0x01
 266:	aa 81       	ldd	r26, Y+2	; 0x02
 268:	c9 59       	subi	r28, 0x99	; 153
 26a:	d0 40       	sbci	r29, 0x00	; 0
 26c:	8e 0d       	add	r24, r14
 26e:	9f 1d       	adc	r25, r15
 270:	a1 1d       	adc	r26, r1
 272:	f7 fc       	sbrc	r15, 7
 274:	aa 95       	dec	r26
 276:	c7 56       	subi	r28, 0x67	; 103
 278:	df 4f       	sbci	r29, 0xFF	; 255
 27a:	88 83       	st	Y, r24
 27c:	99 83       	std	Y+1, r25	; 0x01
 27e:	aa 83       	std	Y+2, r26	; 0x02
 280:	c9 59       	subi	r28, 0x99	; 153
 282:	d0 40       	sbci	r29, 0x00	; 0
 284:	08 c0       	rjmp	.+16     	; 0x296 <__printf_core+0x12a>
 286:	01 96       	adiw	r24, 0x01	; 1
 288:	a1 1d       	adc	r26, r1
 28a:	25 32       	cpi	r18, 0x25	; 37
 28c:	09 f3       	breq	.-62     	; 0x250 <__printf_core+0xe4>
 28e:	ff ef       	ldi	r31, 0xFF	; 255
 290:	ef 1a       	sub	r14, r31
 292:	ff 0a       	sbc	r15, r31
 294:	d7 cf       	rjmp	.-82     	; 0x244 <__printf_core+0xd8>
 296:	c7 56       	subi	r28, 0x67	; 103
 298:	df 4f       	sbci	r29, 0xFF	; 255
 29a:	88 81       	ld	r24, Y
 29c:	99 81       	ldd	r25, Y+1	; 0x01
 29e:	aa 81       	ldd	r26, Y+2	; 0x02
 2a0:	c9 59       	subi	r28, 0x99	; 153
 2a2:	d0 40       	sbci	r29, 0x00	; 0
 2a4:	fc 01       	movw	r30, r24
 2a6:	24 91       	lpm	r18, Z
 2a8:	a7 fd       	sbrc	r26, 7
 2aa:	20 81       	ld	r18, Z
 2ac:	25 32       	cpi	r18, 0x25	; 37
 2ae:	09 f0       	breq	.+2      	; 0x2b2 <__printf_core+0x146>
 2b0:	56 c3       	rjmp	.+1708   	; 0x95e <__stack+0xff>
 2b2:	9c 01       	movw	r18, r24
 2b4:	4a 2f       	mov	r20, r26
 2b6:	2f 5f       	subi	r18, 0xFF	; 255
 2b8:	3f 4f       	sbci	r19, 0xFF	; 255
 2ba:	4f 4f       	sbci	r20, 0xFF	; 255
 2bc:	c2 56       	subi	r28, 0x62	; 98
 2be:	df 4f       	sbci	r29, 0xFF	; 255
 2c0:	28 83       	st	Y, r18
 2c2:	39 83       	std	Y+1, r19	; 0x01
 2c4:	4a 83       	std	Y+2, r20	; 0x02
 2c6:	ce 59       	subi	r28, 0x9E	; 158
 2c8:	d0 40       	sbci	r29, 0x00	; 0
 2ca:	c7 56       	subi	r28, 0x67	; 103
 2cc:	df 4f       	sbci	r29, 0xFF	; 255
 2ce:	28 83       	st	Y, r18
 2d0:	39 83       	std	Y+1, r19	; 0x01
 2d2:	4a 83       	std	Y+2, r20	; 0x02
 2d4:	c9 59       	subi	r28, 0x99	; 153
 2d6:	d0 40       	sbci	r29, 0x00	; 0
 2d8:	c7 56       	subi	r28, 0x67	; 103
 2da:	df 4f       	sbci	r29, 0xFF	; 255
 2dc:	88 81       	ld	r24, Y
 2de:	99 81       	ldd	r25, Y+1	; 0x01
 2e0:	aa 81       	ldd	r26, Y+2	; 0x02
 2e2:	c9 59       	subi	r28, 0x99	; 153
 2e4:	d0 40       	sbci	r29, 0x00	; 0
 2e6:	fc 01       	movw	r30, r24
 2e8:	24 91       	lpm	r18, Z
 2ea:	a7 fd       	sbrc	r26, 7
 2ec:	20 81       	ld	r18, Z
 2ee:	2b 32       	cpi	r18, 0x2B	; 43
 2f0:	41 f4       	brne	.+16     	; 0x302 <__printf_core+0x196>
 2f2:	cf 57       	subi	r28, 0x7F	; 127
 2f4:	df 4f       	sbci	r29, 0xFF	; 255
 2f6:	28 81       	ld	r18, Y
 2f8:	39 81       	ldd	r19, Y+1	; 0x01
 2fa:	c1 58       	subi	r28, 0x81	; 129
 2fc:	d0 40       	sbci	r29, 0x00	; 0
 2fe:	24 60       	ori	r18, 0x04	; 4
 300:	0b c0       	rjmp	.+22     	; 0x318 <__printf_core+0x1ac>
 302:	2c 32       	cpi	r18, 0x2C	; 44
 304:	cc f0       	brlt	.+50     	; 0x338 <__printf_core+0x1cc>
 306:	2d 32       	cpi	r18, 0x2D	; 45
 308:	59 f5       	brne	.+86     	; 0x360 <__printf_core+0x1f4>
 30a:	cf 57       	subi	r28, 0x7F	; 127
 30c:	df 4f       	sbci	r29, 0xFF	; 255
 30e:	28 81       	ld	r18, Y
 310:	39 81       	ldd	r19, Y+1	; 0x01
 312:	c1 58       	subi	r28, 0x81	; 129
 314:	d0 40       	sbci	r29, 0x00	; 0
 316:	21 60       	ori	r18, 0x01	; 1
 318:	cf 57       	subi	r28, 0x7F	; 127
 31a:	df 4f       	sbci	r29, 0xFF	; 255
 31c:	39 83       	std	Y+1, r19	; 0x01
 31e:	28 83       	st	Y, r18
 320:	c1 58       	subi	r28, 0x81	; 129
 322:	d0 40       	sbci	r29, 0x00	; 0
 324:	01 96       	adiw	r24, 0x01	; 1
 326:	a1 1d       	adc	r26, r1
 328:	c7 56       	subi	r28, 0x67	; 103
 32a:	df 4f       	sbci	r29, 0xFF	; 255
 32c:	88 83       	st	Y, r24
 32e:	99 83       	std	Y+1, r25	; 0x01
 330:	aa 83       	std	Y+2, r26	; 0x02
 332:	c9 59       	subi	r28, 0x99	; 153
 334:	d0 40       	sbci	r29, 0x00	; 0
 336:	d0 cf       	rjmp	.-96     	; 0x2d8 <__printf_core+0x16c>
 338:	20 32       	cpi	r18, 0x20	; 32
 33a:	41 f4       	brne	.+16     	; 0x34c <__printf_core+0x1e0>
 33c:	cf 57       	subi	r28, 0x7F	; 127
 33e:	df 4f       	sbci	r29, 0xFF	; 255
 340:	28 81       	ld	r18, Y
 342:	39 81       	ldd	r19, Y+1	; 0x01
 344:	c1 58       	subi	r28, 0x81	; 129
 346:	d0 40       	sbci	r29, 0x00	; 0
 348:	28 60       	ori	r18, 0x08	; 8
 34a:	e6 cf       	rjmp	.-52     	; 0x318 <__printf_core+0x1ac>
 34c:	23 32       	cpi	r18, 0x23	; 35
 34e:	91 f4       	brne	.+36     	; 0x374 <__printf_core+0x208>
 350:	cf 57       	subi	r28, 0x7F	; 127
 352:	df 4f       	sbci	r29, 0xFF	; 255
 354:	28 81       	ld	r18, Y
 356:	39 81       	ldd	r19, Y+1	; 0x01
 358:	c1 58       	subi	r28, 0x81	; 129
 35a:	d0 40       	sbci	r29, 0x00	; 0
 35c:	20 61       	ori	r18, 0x10	; 16
 35e:	dc cf       	rjmp	.-72     	; 0x318 <__printf_core+0x1ac>
 360:	20 33       	cpi	r18, 0x30	; 48
 362:	41 f4       	brne	.+16     	; 0x374 <__printf_core+0x208>
 364:	cf 57       	subi	r28, 0x7F	; 127
 366:	df 4f       	sbci	r29, 0xFF	; 255
 368:	28 81       	ld	r18, Y
 36a:	39 81       	ldd	r19, Y+1	; 0x01
 36c:	c1 58       	subi	r28, 0x81	; 129
 36e:	d0 40       	sbci	r29, 0x00	; 0
 370:	22 60       	ori	r18, 0x02	; 2
 372:	d2 cf       	rjmp	.-92     	; 0x318 <__printf_core+0x1ac>
 374:	2a 32       	cpi	r18, 0x2A	; 42
 376:	99 f5       	brne	.+102    	; 0x3de <__printf_core+0x272>
 378:	01 96       	adiw	r24, 0x01	; 1
 37a:	a1 1d       	adc	r26, r1
 37c:	c7 56       	subi	r28, 0x67	; 103
 37e:	df 4f       	sbci	r29, 0xFF	; 255
 380:	88 83       	st	Y, r24
 382:	99 83       	std	Y+1, r25	; 0x01
 384:	aa 83       	std	Y+2, r26	; 0x02
 386:	c9 59       	subi	r28, 0x99	; 153
 388:	d0 40       	sbci	r29, 0x00	; 0
 38a:	d5 01       	movw	r26, r10
 38c:	ed 91       	ld	r30, X+
 38e:	fc 91       	ld	r31, X
 390:	11 97       	sbiw	r26, 0x01	; 1
 392:	cf 01       	movw	r24, r30
 394:	02 96       	adiw	r24, 0x02	; 2
 396:	8d 93       	st	X+, r24
 398:	9c 93       	st	X, r25
 39a:	80 81       	ld	r24, Z
 39c:	91 81       	ldd	r25, Z+1	; 0x01
 39e:	cb 57       	subi	r28, 0x7B	; 123
 3a0:	df 4f       	sbci	r29, 0xFF	; 255
 3a2:	99 83       	std	Y+1, r25	; 0x01
 3a4:	88 83       	st	Y, r24
 3a6:	c5 58       	subi	r28, 0x85	; 133
 3a8:	d0 40       	sbci	r29, 0x00	; 0
 3aa:	97 ff       	sbrs	r25, 7
 3ac:	3e c0       	rjmp	.+124    	; 0x42a <__EEPROM_REGION_LENGTH__+0x2a>
 3ae:	cf 57       	subi	r28, 0x7F	; 127
 3b0:	df 4f       	sbci	r29, 0xFF	; 255
 3b2:	28 81       	ld	r18, Y
 3b4:	39 81       	ldd	r19, Y+1	; 0x01
 3b6:	c1 58       	subi	r28, 0x81	; 129
 3b8:	d0 40       	sbci	r29, 0x00	; 0
 3ba:	b1 e0       	ldi	r27, 0x01	; 1
 3bc:	2b 27       	eor	r18, r27
 3be:	cf 57       	subi	r28, 0x7F	; 127
 3c0:	df 4f       	sbci	r29, 0xFF	; 255
 3c2:	39 83       	std	Y+1, r19	; 0x01
 3c4:	28 83       	st	Y, r18
 3c6:	c1 58       	subi	r28, 0x81	; 129
 3c8:	d0 40       	sbci	r29, 0x00	; 0
 3ca:	91 95       	neg	r25
 3cc:	81 95       	neg	r24
 3ce:	91 09       	sbc	r25, r1
 3d0:	cb 57       	subi	r28, 0x7B	; 123
 3d2:	df 4f       	sbci	r29, 0xFF	; 255
 3d4:	99 83       	std	Y+1, r25	; 0x01
 3d6:	88 83       	st	Y, r24
 3d8:	c5 58       	subi	r28, 0x85	; 133
 3da:	d0 40       	sbci	r29, 0x00	; 0
 3dc:	26 c0       	rjmp	.+76     	; 0x42a <__EEPROM_REGION_LENGTH__+0x2a>
 3de:	bc 01       	movw	r22, r24
 3e0:	8a 2f       	mov	r24, r26
 3e2:	0e 94 a4 13 	call	0x2748	; 0x2748 <atoi>
 3e6:	cb 57       	subi	r28, 0x7B	; 123
 3e8:	df 4f       	sbci	r29, 0xFF	; 255
 3ea:	99 83       	std	Y+1, r25	; 0x01
 3ec:	88 83       	st	Y, r24
 3ee:	c5 58       	subi	r28, 0x85	; 133
 3f0:	d0 40       	sbci	r29, 0x00	; 0
 3f2:	c7 56       	subi	r28, 0x67	; 103
 3f4:	df 4f       	sbci	r29, 0xFF	; 255
 3f6:	28 81       	ld	r18, Y
 3f8:	39 81       	ldd	r19, Y+1	; 0x01
 3fa:	4a 81       	ldd	r20, Y+2	; 0x02
 3fc:	c9 59       	subi	r28, 0x99	; 153
 3fe:	d0 40       	sbci	r29, 0x00	; 0
 400:	f9 01       	movw	r30, r18
 402:	84 91       	lpm	r24, Z
 404:	47 fd       	sbrc	r20, 7
 406:	80 81       	ld	r24, Z
 408:	08 2e       	mov	r0, r24
 40a:	00 0c       	add	r0, r0
 40c:	99 0b       	sbc	r25, r25
 40e:	c0 97       	sbiw	r24, 0x30	; 48
 410:	0a 97       	sbiw	r24, 0x0a	; 10
 412:	58 f4       	brcc	.+22     	; 0x42a <__EEPROM_REGION_LENGTH__+0x2a>
 414:	2f 5f       	subi	r18, 0xFF	; 255
 416:	3f 4f       	sbci	r19, 0xFF	; 255
 418:	4f 4f       	sbci	r20, 0xFF	; 255
 41a:	c7 56       	subi	r28, 0x67	; 103
 41c:	df 4f       	sbci	r29, 0xFF	; 255
 41e:	28 83       	st	Y, r18
 420:	39 83       	std	Y+1, r19	; 0x01
 422:	4a 83       	std	Y+2, r20	; 0x02
 424:	c9 59       	subi	r28, 0x99	; 153
 426:	d0 40       	sbci	r29, 0x00	; 0
 428:	e4 cf       	rjmp	.-56     	; 0x3f2 <__printf_core+0x286>
 42a:	cf 57       	subi	r28, 0x7F	; 127
 42c:	df 4f       	sbci	r29, 0xFF	; 255
 42e:	88 81       	ld	r24, Y
 430:	99 81       	ldd	r25, Y+1	; 0x01
 432:	c1 58       	subi	r28, 0x81	; 129
 434:	d0 40       	sbci	r29, 0x00	; 0
 436:	80 ff       	sbrs	r24, 0
 438:	07 c0       	rjmp	.+14     	; 0x448 <__EEPROM_REGION_LENGTH__+0x48>
 43a:	8d 7f       	andi	r24, 0xFD	; 253
 43c:	cf 57       	subi	r28, 0x7F	; 127
 43e:	df 4f       	sbci	r29, 0xFF	; 255
 440:	99 83       	std	Y+1, r25	; 0x01
 442:	88 83       	st	Y, r24
 444:	c1 58       	subi	r28, 0x81	; 129
 446:	d0 40       	sbci	r29, 0x00	; 0
 448:	c7 56       	subi	r28, 0x67	; 103
 44a:	df 4f       	sbci	r29, 0xFF	; 255
 44c:	88 81       	ld	r24, Y
 44e:	99 81       	ldd	r25, Y+1	; 0x01
 450:	aa 81       	ldd	r26, Y+2	; 0x02
 452:	c9 59       	subi	r28, 0x99	; 153
 454:	d0 40       	sbci	r29, 0x00	; 0
 456:	fc 01       	movw	r30, r24
 458:	24 91       	lpm	r18, Z
 45a:	a7 fd       	sbrc	r26, 7
 45c:	20 81       	ld	r18, Z
 45e:	2e 32       	cpi	r18, 0x2E	; 46
 460:	09 f0       	breq	.+2      	; 0x464 <__EEPROM_REGION_LENGTH__+0x64>
 462:	58 c0       	rjmp	.+176    	; 0x514 <__EEPROM_REGION_LENGTH__+0x114>
 464:	cd 57       	subi	r28, 0x7D	; 125
 466:	df 4f       	sbci	r29, 0xFF	; 255
 468:	19 82       	std	Y+1, r1	; 0x01
 46a:	18 82       	st	Y, r1
 46c:	c3 58       	subi	r28, 0x83	; 131
 46e:	d0 40       	sbci	r29, 0x00	; 0
 470:	9c 01       	movw	r18, r24
 472:	4a 2f       	mov	r20, r26
 474:	2f 5f       	subi	r18, 0xFF	; 255
 476:	3f 4f       	sbci	r19, 0xFF	; 255
 478:	4f 4f       	sbci	r20, 0xFF	; 255
 47a:	c7 56       	subi	r28, 0x67	; 103
 47c:	df 4f       	sbci	r29, 0xFF	; 255
 47e:	28 83       	st	Y, r18
 480:	39 83       	std	Y+1, r19	; 0x01
 482:	4a 83       	std	Y+2, r20	; 0x02
 484:	c9 59       	subi	r28, 0x99	; 153
 486:	d0 40       	sbci	r29, 0x00	; 0
 488:	f9 01       	movw	r30, r18
 48a:	54 91       	lpm	r21, Z
 48c:	47 fd       	sbrc	r20, 7
 48e:	50 81       	ld	r21, Z
 490:	5a 32       	cpi	r21, 0x2A	; 42
 492:	d1 f4       	brne	.+52     	; 0x4c8 <__EEPROM_REGION_LENGTH__+0xc8>
 494:	02 96       	adiw	r24, 0x02	; 2
 496:	a1 1d       	adc	r26, r1
 498:	c7 56       	subi	r28, 0x67	; 103
 49a:	df 4f       	sbci	r29, 0xFF	; 255
 49c:	88 83       	st	Y, r24
 49e:	99 83       	std	Y+1, r25	; 0x01
 4a0:	aa 83       	std	Y+2, r26	; 0x02
 4a2:	c9 59       	subi	r28, 0x99	; 153
 4a4:	d0 40       	sbci	r29, 0x00	; 0
 4a6:	d5 01       	movw	r26, r10
 4a8:	ed 91       	ld	r30, X+
 4aa:	fc 91       	ld	r31, X
 4ac:	11 97       	sbiw	r26, 0x01	; 1
 4ae:	cf 01       	movw	r24, r30
 4b0:	02 96       	adiw	r24, 0x02	; 2
 4b2:	8d 93       	st	X+, r24
 4b4:	9c 93       	st	X, r25
 4b6:	80 81       	ld	r24, Z
 4b8:	91 81       	ldd	r25, Z+1	; 0x01
 4ba:	cd 57       	subi	r28, 0x7D	; 125
 4bc:	df 4f       	sbci	r29, 0xFF	; 255
 4be:	99 83       	std	Y+1, r25	; 0x01
 4c0:	88 83       	st	Y, r24
 4c2:	c3 58       	subi	r28, 0x83	; 131
 4c4:	d0 40       	sbci	r29, 0x00	; 0
 4c6:	26 c0       	rjmp	.+76     	; 0x514 <__EEPROM_REGION_LENGTH__+0x114>
 4c8:	84 2f       	mov	r24, r20
 4ca:	b9 01       	movw	r22, r18
 4cc:	0e 94 a4 13 	call	0x2748	; 0x2748 <atoi>
 4d0:	cd 57       	subi	r28, 0x7D	; 125
 4d2:	df 4f       	sbci	r29, 0xFF	; 255
 4d4:	99 83       	std	Y+1, r25	; 0x01
 4d6:	88 83       	st	Y, r24
 4d8:	c3 58       	subi	r28, 0x83	; 131
 4da:	d0 40       	sbci	r29, 0x00	; 0
 4dc:	c7 56       	subi	r28, 0x67	; 103
 4de:	df 4f       	sbci	r29, 0xFF	; 255
 4e0:	28 81       	ld	r18, Y
 4e2:	39 81       	ldd	r19, Y+1	; 0x01
 4e4:	4a 81       	ldd	r20, Y+2	; 0x02
 4e6:	c9 59       	subi	r28, 0x99	; 153
 4e8:	d0 40       	sbci	r29, 0x00	; 0
 4ea:	f9 01       	movw	r30, r18
 4ec:	84 91       	lpm	r24, Z
 4ee:	47 fd       	sbrc	r20, 7
 4f0:	80 81       	ld	r24, Z
 4f2:	08 2e       	mov	r0, r24
 4f4:	00 0c       	add	r0, r0
 4f6:	99 0b       	sbc	r25, r25
 4f8:	c0 97       	sbiw	r24, 0x30	; 48
 4fa:	0a 97       	sbiw	r24, 0x0a	; 10
 4fc:	58 f4       	brcc	.+22     	; 0x514 <__EEPROM_REGION_LENGTH__+0x114>
 4fe:	2f 5f       	subi	r18, 0xFF	; 255
 500:	3f 4f       	sbci	r19, 0xFF	; 255
 502:	4f 4f       	sbci	r20, 0xFF	; 255
 504:	c7 56       	subi	r28, 0x67	; 103
 506:	df 4f       	sbci	r29, 0xFF	; 255
 508:	28 83       	st	Y, r18
 50a:	39 83       	std	Y+1, r19	; 0x01
 50c:	4a 83       	std	Y+2, r20	; 0x02
 50e:	c9 59       	subi	r28, 0x99	; 153
 510:	d0 40       	sbci	r29, 0x00	; 0
 512:	e4 cf       	rjmp	.-56     	; 0x4dc <__EEPROM_REGION_LENGTH__+0xdc>
 514:	ce 01       	movw	r24, r28
 516:	87 56       	subi	r24, 0x67	; 103
 518:	9f 4f       	sbci	r25, 0xFF	; 255
 51a:	0e 94 0c 13 	call	0x2618	; 0x2618 <__fmt_state>
 51e:	18 2f       	mov	r17, r24
 520:	c7 56       	subi	r28, 0x67	; 103
 522:	df 4f       	sbci	r29, 0xFF	; 255
 524:	28 81       	ld	r18, Y
 526:	c9 59       	subi	r28, 0x99	; 153
 528:	d0 40       	sbci	r29, 0x00	; 0
 52a:	c6 56       	subi	r28, 0x66	; 102
 52c:	df 4f       	sbci	r29, 0xFF	; 255
 52e:	88 81       	ld	r24, Y
 530:	ca 59       	subi	r28, 0x9A	; 154
 532:	d0 40       	sbci	r29, 0x00	; 0
 534:	c5 56       	subi	r28, 0x65	; 101
 536:	df 4f       	sbci	r29, 0xFF	; 255
 538:	98 81       	ld	r25, Y
 53a:	cb 59       	subi	r28, 0x9B	; 155
 53c:	d0 40       	sbci	r29, 0x00	; 0
 53e:	e2 2f       	mov	r30, r18
 540:	f8 2f       	mov	r31, r24
 542:	84 91       	lpm	r24, Z
 544:	97 fd       	sbrc	r25, 7
 546:	80 81       	ld	r24, Z
 548:	08 2e       	mov	r0, r24
 54a:	00 0c       	add	r0, r0
 54c:	99 0b       	sbc	r25, r25
 54e:	0e 94 d9 18 	call	0x31b2	; 0x31b2 <tolower>
 552:	89 36       	cpi	r24, 0x69	; 105
 554:	91 05       	cpc	r25, r1
 556:	09 f4       	brne	.+2      	; 0x55a <__EEPROM_REGION_LENGTH__+0x15a>
 558:	5a c0       	rjmp	.+180    	; 0x60e <__EEPROM_REGION_LENGTH__+0x20e>
 55a:	b4 f4       	brge	.+44     	; 0x588 <__EEPROM_REGION_LENGTH__+0x188>
 55c:	83 36       	cpi	r24, 0x63	; 99
 55e:	91 05       	cpc	r25, r1
 560:	09 f4       	brne	.+2      	; 0x564 <__EEPROM_REGION_LENGTH__+0x164>
 562:	66 c1       	rjmp	.+716    	; 0x830 <__DATA_REGION_LENGTH__+0x30>
 564:	44 f4       	brge	.+16     	; 0x576 <__EEPROM_REGION_LENGTH__+0x176>
 566:	85 32       	cpi	r24, 0x25	; 37
 568:	91 05       	cpc	r25, r1
 56a:	09 f4       	brne	.+2      	; 0x56e <__EEPROM_REGION_LENGTH__+0x16e>
 56c:	a1 c1       	rjmp	.+834    	; 0x8b0 <__stack+0x51>
 56e:	81 36       	cpi	r24, 0x61	; 97
 570:	91 05       	cpc	r25, r1
 572:	29 f1       	breq	.+74     	; 0x5be <__EEPROM_REGION_LENGTH__+0x1be>
 574:	b3 c1       	rjmp	.+870    	; 0x8dc <__stack+0x7d>
 576:	84 36       	cpi	r24, 0x64	; 100
 578:	91 05       	cpc	r25, r1
 57a:	09 f4       	brne	.+2      	; 0x57e <__EEPROM_REGION_LENGTH__+0x17e>
 57c:	48 c0       	rjmp	.+144    	; 0x60e <__EEPROM_REGION_LENGTH__+0x20e>
 57e:	88 36       	cpi	r24, 0x68	; 104
 580:	91 05       	cpc	r25, r1
 582:	0c f4       	brge	.+2      	; 0x586 <__EEPROM_REGION_LENGTH__+0x186>
 584:	2d c1       	rjmp	.+602    	; 0x7e0 <__EEPROM_REGION_LENGTH__+0x3e0>
 586:	aa c1       	rjmp	.+852    	; 0x8dc <__stack+0x7d>
 588:	80 37       	cpi	r24, 0x70	; 112
 58a:	91 05       	cpc	r25, r1
 58c:	09 f4       	brne	.+2      	; 0x590 <__EEPROM_REGION_LENGTH__+0x190>
 58e:	cb c0       	rjmp	.+406    	; 0x726 <__EEPROM_REGION_LENGTH__+0x326>
 590:	4c f4       	brge	.+18     	; 0x5a4 <__EEPROM_REGION_LENGTH__+0x1a4>
 592:	8e 36       	cpi	r24, 0x6E	; 110
 594:	91 05       	cpc	r25, r1
 596:	09 f4       	brne	.+2      	; 0x59a <__EEPROM_REGION_LENGTH__+0x19a>
 598:	19 c1       	rjmp	.+562    	; 0x7cc <__EEPROM_REGION_LENGTH__+0x3cc>
 59a:	8f 36       	cpi	r24, 0x6F	; 111
 59c:	91 05       	cpc	r25, r1
 59e:	09 f4       	brne	.+2      	; 0x5a2 <__EEPROM_REGION_LENGTH__+0x1a2>
 5a0:	7c c0       	rjmp	.+248    	; 0x69a <__EEPROM_REGION_LENGTH__+0x29a>
 5a2:	9c c1       	rjmp	.+824    	; 0x8dc <__stack+0x7d>
 5a4:	85 37       	cpi	r24, 0x75	; 117
 5a6:	91 05       	cpc	r25, r1
 5a8:	09 f4       	brne	.+2      	; 0x5ac <__EEPROM_REGION_LENGTH__+0x1ac>
 5aa:	54 c0       	rjmp	.+168    	; 0x654 <__EEPROM_REGION_LENGTH__+0x254>
 5ac:	88 37       	cpi	r24, 0x78	; 120
 5ae:	91 05       	cpc	r25, r1
 5b0:	09 f4       	brne	.+2      	; 0x5b4 <__EEPROM_REGION_LENGTH__+0x1b4>
 5b2:	96 c0       	rjmp	.+300    	; 0x6e0 <__EEPROM_REGION_LENGTH__+0x2e0>
 5b4:	83 37       	cpi	r24, 0x73	; 115
 5b6:	91 05       	cpc	r25, r1
 5b8:	09 f0       	breq	.+2      	; 0x5bc <__EEPROM_REGION_LENGTH__+0x1bc>
 5ba:	90 c1       	rjmp	.+800    	; 0x8dc <__stack+0x7d>
 5bc:	58 c1       	rjmp	.+688    	; 0x86e <__stack+0xf>
 5be:	61 2f       	mov	r22, r17
 5c0:	70 e0       	ldi	r23, 0x00	; 0
 5c2:	a5 01       	movw	r20, r10
 5c4:	c6 01       	movw	r24, r12
 5c6:	0e 94 55 16 	call	0x2caa	; 0x2caa <__pop_float>
 5ca:	89 2b       	or	r24, r25
 5cc:	09 f4       	brne	.+2      	; 0x5d0 <__EEPROM_REGION_LENGTH__+0x1d0>
 5ce:	b7 c1       	rjmp	.+878    	; 0x93e <__stack+0xdf>
 5d0:	c7 56       	subi	r28, 0x67	; 103
 5d2:	df 4f       	sbci	r29, 0xFF	; 255
 5d4:	88 81       	ld	r24, Y
 5d6:	99 81       	ldd	r25, Y+1	; 0x01
 5d8:	aa 81       	ldd	r26, Y+2	; 0x02
 5da:	c9 59       	subi	r28, 0x99	; 153
 5dc:	d0 40       	sbci	r29, 0x00	; 0
 5de:	9c 01       	movw	r18, r24
 5e0:	4a 2f       	mov	r20, r26
 5e2:	2f 5f       	subi	r18, 0xFF	; 255
 5e4:	3f 4f       	sbci	r19, 0xFF	; 255
 5e6:	4f 4f       	sbci	r20, 0xFF	; 255
 5e8:	c7 56       	subi	r28, 0x67	; 103
 5ea:	df 4f       	sbci	r29, 0xFF	; 255
 5ec:	28 83       	st	Y, r18
 5ee:	39 83       	std	Y+1, r19	; 0x01
 5f0:	4a 83       	std	Y+2, r20	; 0x02
 5f2:	c9 59       	subi	r28, 0x99	; 153
 5f4:	d0 40       	sbci	r29, 0x00	; 0
 5f6:	fc 01       	movw	r30, r24
 5f8:	24 91       	lpm	r18, Z
 5fa:	a7 fd       	sbrc	r26, 7
 5fc:	20 81       	ld	r18, Z
 5fe:	a6 01       	movw	r20, r12
 600:	be 01       	movw	r22, r28
 602:	6f 57       	subi	r22, 0x7F	; 127
 604:	7f 4f       	sbci	r23, 0xFF	; 255
 606:	c4 01       	movw	r24, r8
 608:	0e 94 3e 19 	call	0x327c	; 0x327c <__fmt_a>
 60c:	95 c1       	rjmp	.+810    	; 0x938 <__stack+0xd9>
 60e:	61 2f       	mov	r22, r17
 610:	70 e0       	ldi	r23, 0x00	; 0
 612:	95 01       	movw	r18, r10
 614:	41 e0       	ldi	r20, 0x01	; 1
 616:	50 e0       	ldi	r21, 0x00	; 0
 618:	c6 01       	movw	r24, r12
 61a:	0e 94 fc 0c 	call	0x19f8	; 0x19f8 <__pop_int>
 61e:	89 2b       	or	r24, r25
 620:	09 f4       	brne	.+2      	; 0x624 <__EEPROM_REGION_LENGTH__+0x224>
 622:	8d c1       	rjmp	.+794    	; 0x93e <__stack+0xdf>
 624:	c7 56       	subi	r28, 0x67	; 103
 626:	df 4f       	sbci	r29, 0xFF	; 255
 628:	88 81       	ld	r24, Y
 62a:	99 81       	ldd	r25, Y+1	; 0x01
 62c:	aa 81       	ldd	r26, Y+2	; 0x02
 62e:	c9 59       	subi	r28, 0x99	; 153
 630:	d0 40       	sbci	r29, 0x00	; 0
 632:	01 96       	adiw	r24, 0x01	; 1
 634:	a1 1d       	adc	r26, r1
 636:	c7 56       	subi	r28, 0x67	; 103
 638:	df 4f       	sbci	r29, 0xFF	; 255
 63a:	88 83       	st	Y, r24
 63c:	99 83       	std	Y+1, r25	; 0x01
 63e:	aa 83       	std	Y+2, r26	; 0x02
 640:	c9 59       	subi	r28, 0x99	; 153
 642:	d0 40       	sbci	r29, 0x00	; 0
 644:	a6 01       	movw	r20, r12
 646:	be 01       	movw	r22, r28
 648:	6f 57       	subi	r22, 0x7F	; 127
 64a:	7f 4f       	sbci	r23, 0xFF	; 255
 64c:	c4 01       	movw	r24, r8
 64e:	0e 94 3b 19 	call	0x3276	; 0x3276 <__fmt_d>
 652:	72 c1       	rjmp	.+740    	; 0x938 <__stack+0xd9>
 654:	61 2f       	mov	r22, r17
 656:	70 e0       	ldi	r23, 0x00	; 0
 658:	95 01       	movw	r18, r10
 65a:	40 e0       	ldi	r20, 0x00	; 0
 65c:	50 e0       	ldi	r21, 0x00	; 0
 65e:	c6 01       	movw	r24, r12
 660:	0e 94 fc 0c 	call	0x19f8	; 0x19f8 <__pop_int>
 664:	89 2b       	or	r24, r25
 666:	09 f4       	brne	.+2      	; 0x66a <__EEPROM_REGION_LENGTH__+0x26a>
 668:	6a c1       	rjmp	.+724    	; 0x93e <__stack+0xdf>
 66a:	c7 56       	subi	r28, 0x67	; 103
 66c:	df 4f       	sbci	r29, 0xFF	; 255
 66e:	88 81       	ld	r24, Y
 670:	99 81       	ldd	r25, Y+1	; 0x01
 672:	aa 81       	ldd	r26, Y+2	; 0x02
 674:	c9 59       	subi	r28, 0x99	; 153
 676:	d0 40       	sbci	r29, 0x00	; 0
 678:	01 96       	adiw	r24, 0x01	; 1
 67a:	a1 1d       	adc	r26, r1
 67c:	c7 56       	subi	r28, 0x67	; 103
 67e:	df 4f       	sbci	r29, 0xFF	; 255
 680:	88 83       	st	Y, r24
 682:	99 83       	std	Y+1, r25	; 0x01
 684:	aa 83       	std	Y+2, r26	; 0x02
 686:	c9 59       	subi	r28, 0x99	; 153
 688:	d0 40       	sbci	r29, 0x00	; 0
 68a:	a6 01       	movw	r20, r12
 68c:	be 01       	movw	r22, r28
 68e:	6f 57       	subi	r22, 0x7F	; 127
 690:	7f 4f       	sbci	r23, 0xFF	; 255
 692:	c4 01       	movw	r24, r8
 694:	0e 94 3b 19 	call	0x3276	; 0x3276 <__fmt_d>
 698:	4f c1       	rjmp	.+670    	; 0x938 <__stack+0xd9>
 69a:	61 2f       	mov	r22, r17
 69c:	70 e0       	ldi	r23, 0x00	; 0
 69e:	95 01       	movw	r18, r10
 6a0:	40 e0       	ldi	r20, 0x00	; 0
 6a2:	50 e0       	ldi	r21, 0x00	; 0
 6a4:	c6 01       	movw	r24, r12
 6a6:	0e 94 fc 0c 	call	0x19f8	; 0x19f8 <__pop_int>
 6aa:	89 2b       	or	r24, r25
 6ac:	09 f4       	brne	.+2      	; 0x6b0 <__EEPROM_REGION_LENGTH__+0x2b0>
 6ae:	47 c1       	rjmp	.+654    	; 0x93e <__stack+0xdf>
 6b0:	c7 56       	subi	r28, 0x67	; 103
 6b2:	df 4f       	sbci	r29, 0xFF	; 255
 6b4:	88 81       	ld	r24, Y
 6b6:	99 81       	ldd	r25, Y+1	; 0x01
 6b8:	aa 81       	ldd	r26, Y+2	; 0x02
 6ba:	c9 59       	subi	r28, 0x99	; 153
 6bc:	d0 40       	sbci	r29, 0x00	; 0
 6be:	01 96       	adiw	r24, 0x01	; 1
 6c0:	a1 1d       	adc	r26, r1
 6c2:	c7 56       	subi	r28, 0x67	; 103
 6c4:	df 4f       	sbci	r29, 0xFF	; 255
 6c6:	88 83       	st	Y, r24
 6c8:	99 83       	std	Y+1, r25	; 0x01
 6ca:	aa 83       	std	Y+2, r26	; 0x02
 6cc:	c9 59       	subi	r28, 0x99	; 153
 6ce:	d0 40       	sbci	r29, 0x00	; 0
 6d0:	a6 01       	movw	r20, r12
 6d2:	be 01       	movw	r22, r28
 6d4:	6f 57       	subi	r22, 0x7F	; 127
 6d6:	7f 4f       	sbci	r23, 0xFF	; 255
 6d8:	c4 01       	movw	r24, r8
 6da:	0e 94 3b 19 	call	0x3276	; 0x3276 <__fmt_d>
 6de:	2c c1       	rjmp	.+600    	; 0x938 <__stack+0xd9>
 6e0:	61 2f       	mov	r22, r17
 6e2:	70 e0       	ldi	r23, 0x00	; 0
 6e4:	95 01       	movw	r18, r10
 6e6:	40 e0       	ldi	r20, 0x00	; 0
 6e8:	50 e0       	ldi	r21, 0x00	; 0
 6ea:	c6 01       	movw	r24, r12
 6ec:	0e 94 fc 0c 	call	0x19f8	; 0x19f8 <__pop_int>
 6f0:	89 2b       	or	r24, r25
 6f2:	09 f4       	brne	.+2      	; 0x6f6 <__EEPROM_REGION_LENGTH__+0x2f6>
 6f4:	24 c1       	rjmp	.+584    	; 0x93e <__stack+0xdf>
 6f6:	c7 56       	subi	r28, 0x67	; 103
 6f8:	df 4f       	sbci	r29, 0xFF	; 255
 6fa:	88 81       	ld	r24, Y
 6fc:	99 81       	ldd	r25, Y+1	; 0x01
 6fe:	aa 81       	ldd	r26, Y+2	; 0x02
 700:	c9 59       	subi	r28, 0x99	; 153
 702:	d0 40       	sbci	r29, 0x00	; 0
 704:	9c 01       	movw	r18, r24
 706:	4a 2f       	mov	r20, r26
 708:	2f 5f       	subi	r18, 0xFF	; 255
 70a:	3f 4f       	sbci	r19, 0xFF	; 255
 70c:	4f 4f       	sbci	r20, 0xFF	; 255
 70e:	c7 56       	subi	r28, 0x67	; 103
 710:	df 4f       	sbci	r29, 0xFF	; 255
 712:	28 83       	st	Y, r18
 714:	39 83       	std	Y+1, r19	; 0x01
 716:	4a 83       	std	Y+2, r20	; 0x02
 718:	c9 59       	subi	r28, 0x99	; 153
 71a:	d0 40       	sbci	r29, 0x00	; 0
 71c:	fc 01       	movw	r30, r24
 71e:	24 91       	lpm	r18, Z
 720:	a7 fd       	sbrc	r26, 7
 722:	20 81       	ld	r18, Z
 724:	4b c0       	rjmp	.+150    	; 0x7bc <__EEPROM_REGION_LENGTH__+0x3bc>
 726:	95 01       	movw	r18, r10
 728:	40 e0       	ldi	r20, 0x00	; 0
 72a:	50 e0       	ldi	r21, 0x00	; 0
 72c:	60 ef       	ldi	r22, 0xF0	; 240
 72e:	70 e0       	ldi	r23, 0x00	; 0
 730:	c6 01       	movw	r24, r12
 732:	0e 94 fc 0c 	call	0x19f8	; 0x19f8 <__pop_int>
 736:	89 2b       	or	r24, r25
 738:	09 f4       	brne	.+2      	; 0x73c <__EEPROM_REGION_LENGTH__+0x33c>
 73a:	01 c1       	rjmp	.+514    	; 0x93e <__stack+0xdf>
 73c:	c7 56       	subi	r28, 0x67	; 103
 73e:	df 4f       	sbci	r29, 0xFF	; 255
 740:	88 81       	ld	r24, Y
 742:	99 81       	ldd	r25, Y+1	; 0x01
 744:	aa 81       	ldd	r26, Y+2	; 0x02
 746:	c9 59       	subi	r28, 0x99	; 153
 748:	d0 40       	sbci	r29, 0x00	; 0
 74a:	01 96       	adiw	r24, 0x01	; 1
 74c:	a1 1d       	adc	r26, r1
 74e:	c7 56       	subi	r28, 0x67	; 103
 750:	df 4f       	sbci	r29, 0xFF	; 255
 752:	88 83       	st	Y, r24
 754:	99 83       	std	Y+1, r25	; 0x01
 756:	aa 83       	std	Y+2, r26	; 0x02
 758:	c9 59       	subi	r28, 0x99	; 153
 75a:	d0 40       	sbci	r29, 0x00	; 0
 75c:	86 e0       	ldi	r24, 0x06	; 6
 75e:	21 e6       	ldi	r18, 0x61	; 97
 760:	31 e0       	ldi	r19, 0x01	; 1
 762:	40 e0       	ldi	r20, 0x00	; 0
 764:	f9 01       	movw	r30, r18
 766:	de 01       	movw	r26, r28
 768:	ad 56       	subi	r26, 0x6D	; 109
 76a:	bf 4f       	sbci	r27, 0xFF	; 255
 76c:	74 2f       	mov	r23, r20
 76e:	0e 94 50 18 	call	0x30a0	; 0x30a0 <__movmemx_qi>
 772:	d6 01       	movw	r26, r12
 774:	2c 91       	ld	r18, X
 776:	11 96       	adiw	r26, 0x01	; 1
 778:	3c 91       	ld	r19, X
 77a:	11 97       	sbiw	r26, 0x01	; 1
 77c:	12 96       	adiw	r26, 0x02	; 2
 77e:	4c 91       	ld	r20, X
 780:	12 97       	sbiw	r26, 0x02	; 2
 782:	13 96       	adiw	r26, 0x03	; 3
 784:	5c 91       	ld	r21, X
 786:	13 97       	sbiw	r26, 0x03	; 3
 788:	14 96       	adiw	r26, 0x04	; 4
 78a:	6c 91       	ld	r22, X
 78c:	14 97       	sbiw	r26, 0x04	; 4
 78e:	15 96       	adiw	r26, 0x05	; 5
 790:	7c 91       	ld	r23, X
 792:	15 97       	sbiw	r26, 0x05	; 5
 794:	16 96       	adiw	r26, 0x06	; 6
 796:	8c 91       	ld	r24, X
 798:	16 97       	sbiw	r26, 0x06	; 6
 79a:	17 96       	adiw	r26, 0x07	; 7
 79c:	9c 91       	ld	r25, X
 79e:	a0 e0       	ldi	r26, 0x00	; 0
 7a0:	0e 94 81 18 	call	0x3102	; 0x3102 <__cmpdi2_s8>
 7a4:	51 f4       	brne	.+20     	; 0x7ba <__EEPROM_REGION_LENGTH__+0x3ba>
 7a6:	00 e0       	ldi	r16, 0x00	; 0
 7a8:	10 e0       	ldi	r17, 0x00	; 0
 7aa:	cf 55       	subi	r28, 0x5F	; 95
 7ac:	df 4f       	sbci	r29, 0xFF	; 255
 7ae:	28 81       	ld	r18, Y
 7b0:	39 81       	ldd	r19, Y+1	; 0x01
 7b2:	4a 81       	ldd	r20, Y+2	; 0x02
 7b4:	c1 5a       	subi	r28, 0xA1	; 161
 7b6:	d0 40       	sbci	r29, 0x00	; 0
 7b8:	b9 c0       	rjmp	.+370    	; 0x92c <__stack+0xcd>
 7ba:	28 e7       	ldi	r18, 0x78	; 120
 7bc:	a6 01       	movw	r20, r12
 7be:	be 01       	movw	r22, r28
 7c0:	6f 57       	subi	r22, 0x7F	; 127
 7c2:	7f 4f       	sbci	r23, 0xFF	; 255
 7c4:	c4 01       	movw	r24, r8
 7c6:	0e 94 3e 19 	call	0x327c	; 0x327c <__fmt_a>
 7ca:	b6 c0       	rjmp	.+364    	; 0x938 <__stack+0xd9>
 7cc:	61 2f       	mov	r22, r17
 7ce:	70 e0       	ldi	r23, 0x00	; 0
 7d0:	95 01       	movw	r18, r10
 7d2:	a1 01       	movw	r20, r2
 7d4:	4e 0d       	add	r20, r14
 7d6:	5f 1d       	adc	r21, r15
 7d8:	c6 01       	movw	r24, r12
 7da:	0e 94 7d 11 	call	0x22fa	; 0x22fa <__pop_ptr>
 7de:	af c0       	rjmp	.+350    	; 0x93e <__stack+0xdf>
 7e0:	61 2f       	mov	r22, r17
 7e2:	70 e0       	ldi	r23, 0x00	; 0
 7e4:	a5 01       	movw	r20, r10
 7e6:	c6 01       	movw	r24, r12
 7e8:	0e 94 55 16 	call	0x2caa	; 0x2caa <__pop_float>
 7ec:	89 2b       	or	r24, r25
 7ee:	09 f4       	brne	.+2      	; 0x7f2 <__EEPROM_REGION_LENGTH__+0x3f2>
 7f0:	a6 c0       	rjmp	.+332    	; 0x93e <__stack+0xdf>
 7f2:	c7 56       	subi	r28, 0x67	; 103
 7f4:	df 4f       	sbci	r29, 0xFF	; 255
 7f6:	88 81       	ld	r24, Y
 7f8:	99 81       	ldd	r25, Y+1	; 0x01
 7fa:	aa 81       	ldd	r26, Y+2	; 0x02
 7fc:	c9 59       	subi	r28, 0x99	; 153
 7fe:	d0 40       	sbci	r29, 0x00	; 0
 800:	9c 01       	movw	r18, r24
 802:	4a 2f       	mov	r20, r26
 804:	2f 5f       	subi	r18, 0xFF	; 255
 806:	3f 4f       	sbci	r19, 0xFF	; 255
 808:	4f 4f       	sbci	r20, 0xFF	; 255
 80a:	c7 56       	subi	r28, 0x67	; 103
 80c:	df 4f       	sbci	r29, 0xFF	; 255
 80e:	28 83       	st	Y, r18
 810:	39 83       	std	Y+1, r19	; 0x01
 812:	4a 83       	std	Y+2, r20	; 0x02
 814:	c9 59       	subi	r28, 0x99	; 153
 816:	d0 40       	sbci	r29, 0x00	; 0
 818:	fc 01       	movw	r30, r24
 81a:	24 91       	lpm	r18, Z
 81c:	a7 fd       	sbrc	r26, 7
 81e:	20 81       	ld	r18, Z
 820:	a6 01       	movw	r20, r12
 822:	be 01       	movw	r22, r28
 824:	6f 57       	subi	r22, 0x7F	; 127
 826:	7f 4f       	sbci	r23, 0xFF	; 255
 828:	c4 01       	movw	r24, r8
 82a:	0e 94 c7 04 	call	0x98e	; 0x98e <__fmt_fp>
 82e:	84 c0       	rjmp	.+264    	; 0x938 <__stack+0xd9>
 830:	10 38       	cpi	r17, 0x80	; 128
 832:	09 f0       	breq	.+2      	; 0x836 <__DATA_REGION_LENGTH__+0x36>
 834:	84 c0       	rjmp	.+264    	; 0x93e <__stack+0xdf>
 836:	c7 56       	subi	r28, 0x67	; 103
 838:	df 4f       	sbci	r29, 0xFF	; 255
 83a:	88 81       	ld	r24, Y
 83c:	99 81       	ldd	r25, Y+1	; 0x01
 83e:	aa 81       	ldd	r26, Y+2	; 0x02
 840:	c9 59       	subi	r28, 0x99	; 153
 842:	d0 40       	sbci	r29, 0x00	; 0
 844:	01 96       	adiw	r24, 0x01	; 1
 846:	a1 1d       	adc	r26, r1
 848:	c7 56       	subi	r28, 0x67	; 103
 84a:	df 4f       	sbci	r29, 0xFF	; 255
 84c:	88 83       	st	Y, r24
 84e:	99 83       	std	Y+1, r25	; 0x01
 850:	aa 83       	std	Y+2, r26	; 0x02
 852:	c9 59       	subi	r28, 0x99	; 153
 854:	d0 40       	sbci	r29, 0x00	; 0
 856:	d5 01       	movw	r26, r10
 858:	ed 91       	ld	r30, X+
 85a:	fc 91       	ld	r31, X
 85c:	11 97       	sbiw	r26, 0x01	; 1
 85e:	cf 01       	movw	r24, r30
 860:	02 96       	adiw	r24, 0x02	; 2
 862:	8d 93       	st	X+, r24
 864:	9c 93       	st	X, r25
 866:	80 81       	ld	r24, Z
 868:	f6 01       	movw	r30, r12
 86a:	80 83       	st	Z, r24
 86c:	5b c0       	rjmp	.+182    	; 0x924 <__stack+0xc5>
 86e:	10 38       	cpi	r17, 0x80	; 128
 870:	09 f0       	breq	.+2      	; 0x874 <__stack+0x15>
 872:	65 c0       	rjmp	.+202    	; 0x93e <__stack+0xdf>
 874:	c7 56       	subi	r28, 0x67	; 103
 876:	df 4f       	sbci	r29, 0xFF	; 255
 878:	88 81       	ld	r24, Y
 87a:	99 81       	ldd	r25, Y+1	; 0x01
 87c:	aa 81       	ldd	r26, Y+2	; 0x02
 87e:	c9 59       	subi	r28, 0x99	; 153
 880:	d0 40       	sbci	r29, 0x00	; 0
 882:	01 96       	adiw	r24, 0x01	; 1
 884:	a1 1d       	adc	r26, r1
 886:	c7 56       	subi	r28, 0x67	; 103
 888:	df 4f       	sbci	r29, 0xFF	; 255
 88a:	88 83       	st	Y, r24
 88c:	99 83       	std	Y+1, r25	; 0x01
 88e:	aa 83       	std	Y+2, r26	; 0x02
 890:	c9 59       	subi	r28, 0x99	; 153
 892:	d0 40       	sbci	r29, 0x00	; 0
 894:	d5 01       	movw	r26, r10
 896:	ed 91       	ld	r30, X+
 898:	fc 91       	ld	r31, X
 89a:	11 97       	sbiw	r26, 0x01	; 1
 89c:	cf 01       	movw	r24, r30
 89e:	03 96       	adiw	r24, 0x03	; 3
 8a0:	8d 93       	st	X+, r24
 8a2:	9c 93       	st	X, r25
 8a4:	20 81       	ld	r18, Z
 8a6:	31 81       	ldd	r19, Z+1	; 0x01
 8a8:	42 81       	ldd	r20, Z+2	; 0x02
 8aa:	00 e0       	ldi	r16, 0x00	; 0
 8ac:	10 e0       	ldi	r17, 0x00	; 0
 8ae:	3e c0       	rjmp	.+124    	; 0x92c <__stack+0xcd>
 8b0:	10 38       	cpi	r17, 0x80	; 128
 8b2:	09 f0       	breq	.+2      	; 0x8b6 <__stack+0x57>
 8b4:	44 c0       	rjmp	.+136    	; 0x93e <__stack+0xdf>
 8b6:	c7 56       	subi	r28, 0x67	; 103
 8b8:	df 4f       	sbci	r29, 0xFF	; 255
 8ba:	88 81       	ld	r24, Y
 8bc:	99 81       	ldd	r25, Y+1	; 0x01
 8be:	aa 81       	ldd	r26, Y+2	; 0x02
 8c0:	c9 59       	subi	r28, 0x99	; 153
 8c2:	d0 40       	sbci	r29, 0x00	; 0
 8c4:	01 96       	adiw	r24, 0x01	; 1
 8c6:	a1 1d       	adc	r26, r1
 8c8:	c7 56       	subi	r28, 0x67	; 103
 8ca:	df 4f       	sbci	r29, 0xFF	; 255
 8cc:	88 83       	st	Y, r24
 8ce:	99 83       	std	Y+1, r25	; 0x01
 8d0:	aa 83       	std	Y+2, r26	; 0x02
 8d2:	c9 59       	subi	r28, 0x99	; 153
 8d4:	d0 40       	sbci	r29, 0x00	; 0
 8d6:	f6 01       	movw	r30, r12
 8d8:	70 82       	st	Z, r7
 8da:	24 c0       	rjmp	.+72     	; 0x924 <__stack+0xc5>
 8dc:	d6 01       	movw	r26, r12
 8de:	7c 92       	st	X, r7
 8e0:	c2 56       	subi	r28, 0x62	; 98
 8e2:	df 4f       	sbci	r29, 0xFF	; 255
 8e4:	28 81       	ld	r18, Y
 8e6:	39 81       	ldd	r19, Y+1	; 0x01
 8e8:	4a 81       	ldd	r20, Y+2	; 0x02
 8ea:	ce 59       	subi	r28, 0x9E	; 158
 8ec:	d0 40       	sbci	r29, 0x00	; 0
 8ee:	c7 56       	subi	r28, 0x67	; 103
 8f0:	df 4f       	sbci	r29, 0xFF	; 255
 8f2:	28 83       	st	Y, r18
 8f4:	39 83       	std	Y+1, r19	; 0x01
 8f6:	4a 83       	std	Y+2, r20	; 0x02
 8f8:	c9 59       	subi	r28, 0x99	; 153
 8fa:	d0 40       	sbci	r29, 0x00	; 0
 8fc:	cf 57       	subi	r28, 0x7F	; 127
 8fe:	df 4f       	sbci	r29, 0xFF	; 255
 900:	19 82       	std	Y+1, r1	; 0x01
 902:	18 82       	st	Y, r1
 904:	c1 58       	subi	r28, 0x81	; 129
 906:	d0 40       	sbci	r29, 0x00	; 0
 908:	cb 57       	subi	r28, 0x7B	; 123
 90a:	df 4f       	sbci	r29, 0xFF	; 255
 90c:	19 82       	std	Y+1, r1	; 0x01
 90e:	18 82       	st	Y, r1
 910:	c5 58       	subi	r28, 0x85	; 133
 912:	d0 40       	sbci	r29, 0x00	; 0
 914:	8f ef       	ldi	r24, 0xFF	; 255
 916:	9f ef       	ldi	r25, 0xFF	; 255
 918:	cd 57       	subi	r28, 0x7D	; 125
 91a:	df 4f       	sbci	r29, 0xFF	; 255
 91c:	99 83       	std	Y+1, r25	; 0x01
 91e:	88 83       	st	Y, r24
 920:	c3 58       	subi	r28, 0x83	; 131
 922:	d0 40       	sbci	r29, 0x00	; 0
 924:	01 e0       	ldi	r16, 0x01	; 1
 926:	10 e0       	ldi	r17, 0x00	; 0
 928:	46 2d       	mov	r20, r6
 92a:	92 01       	movw	r18, r4
 92c:	be 01       	movw	r22, r28
 92e:	6f 57       	subi	r22, 0x7F	; 127
 930:	7f 4f       	sbci	r23, 0xFF	; 255
 932:	c4 01       	movw	r24, r8
 934:	0e 94 41 19 	call	0x3282	; 0x3282 <__fmt_s>
 938:	8e 0d       	add	r24, r14
 93a:	9f 1d       	adc	r25, r15
 93c:	11 c0       	rjmp	.+34     	; 0x960 <__stack+0x101>
 93e:	c7 56       	subi	r28, 0x67	; 103
 940:	df 4f       	sbci	r29, 0xFF	; 255
 942:	88 81       	ld	r24, Y
 944:	99 81       	ldd	r25, Y+1	; 0x01
 946:	aa 81       	ldd	r26, Y+2	; 0x02
 948:	c9 59       	subi	r28, 0x99	; 153
 94a:	d0 40       	sbci	r29, 0x00	; 0
 94c:	01 96       	adiw	r24, 0x01	; 1
 94e:	a1 1d       	adc	r26, r1
 950:	c7 56       	subi	r28, 0x67	; 103
 952:	df 4f       	sbci	r29, 0xFF	; 255
 954:	88 83       	st	Y, r24
 956:	99 83       	std	Y+1, r25	; 0x01
 958:	aa 83       	std	Y+2, r26	; 0x02
 95a:	c9 59       	subi	r28, 0x99	; 153
 95c:	d0 40       	sbci	r29, 0x00	; 0
 95e:	c7 01       	movw	r24, r14
 960:	71 01       	movw	r14, r2
 962:	e8 0e       	add	r14, r24
 964:	f9 1e       	adc	r15, r25
 966:	e2 14       	cp	r14, r2
 968:	f3 04       	cpc	r15, r3
 96a:	4c f4       	brge	.+18     	; 0x97e <__stack+0x11f>
 96c:	8f e4       	ldi	r24, 0x4F	; 79
 96e:	90 e0       	ldi	r25, 0x00	; 0
 970:	90 93 8d 00 	sts	0x008D, r25	; 0x80008d <__errno_val+0x1>
 974:	80 93 8c 00 	sts	0x008C, r24	; 0x80008c <__errno_val>
 978:	8f ef       	ldi	r24, 0xFF	; 255
 97a:	9f ef       	ldi	r25, 0xFF	; 255
 97c:	03 c0       	rjmp	.+6      	; 0x984 <__stack+0x125>
 97e:	17 01       	movw	r2, r14
 980:	21 cc       	rjmp	.-1982   	; 0x1c4 <__printf_core+0x58>
 982:	c1 01       	movw	r24, r2
 984:	cd 55       	subi	r28, 0x5D	; 93
 986:	df 4f       	sbci	r29, 0xFF	; 255
 988:	e2 e1       	ldi	r30, 0x12	; 18
 98a:	0c 94 21 17 	jmp	0x2e42	; 0x2e42 <__epilogue_restores__>

Disassembly of section .text.fputc:

000026b6 <fputc>:
    26b6:	0f 93       	push	r16
    26b8:	1f 93       	push	r17
    26ba:	cf 93       	push	r28
    26bc:	df 93       	push	r29
    26be:	db 01       	movw	r26, r22
    26c0:	2d 91       	ld	r18, X+
    26c2:	3c 91       	ld	r19, X
    26c4:	11 97       	sbiw	r26, 0x01	; 1
    26c6:	30 ff       	sbrs	r19, 0
    26c8:	25 c0       	rjmp	.+74     	; 0x2714 <fputc+0x5e>
    26ca:	17 96       	adiw	r26, 0x07	; 7
    26cc:	4d 91       	ld	r20, X+
    26ce:	5c 91       	ld	r21, X
    26d0:	18 97       	sbiw	r26, 0x08	; 8
    26d2:	15 96       	adiw	r26, 0x05	; 5
    26d4:	2d 91       	ld	r18, X+
    26d6:	3c 91       	ld	r19, X
    26d8:	16 97       	sbiw	r26, 0x06	; 6
    26da:	42 17       	cp	r20, r18
    26dc:	53 07       	cpc	r21, r19
    26de:	78 f4       	brcc	.+30     	; 0x26fe <fputc+0x48>
    26e0:	12 96       	adiw	r26, 0x02	; 2
    26e2:	ed 91       	ld	r30, X+
    26e4:	fc 91       	ld	r31, X
    26e6:	13 97       	sbiw	r26, 0x03	; 3
    26e8:	80 83       	st	Z, r24
    26ea:	12 96       	adiw	r26, 0x02	; 2
    26ec:	2d 91       	ld	r18, X+
    26ee:	3c 91       	ld	r19, X
    26f0:	13 97       	sbiw	r26, 0x03	; 3
    26f2:	2f 5f       	subi	r18, 0xFF	; 255
    26f4:	3f 4f       	sbci	r19, 0xFF	; 255
    26f6:	13 96       	adiw	r26, 0x03	; 3
    26f8:	3c 93       	st	X, r19
    26fa:	2e 93       	st	-X, r18
    26fc:	12 97       	sbiw	r26, 0x02	; 2
    26fe:	17 96       	adiw	r26, 0x07	; 7
    2700:	2d 91       	ld	r18, X+
    2702:	3c 91       	ld	r19, X
    2704:	18 97       	sbiw	r26, 0x08	; 8
    2706:	2f 5f       	subi	r18, 0xFF	; 255
    2708:	3f 4f       	sbci	r19, 0xFF	; 255
    270a:	18 96       	adiw	r26, 0x08	; 8
    270c:	3c 93       	st	X, r19
    270e:	2e 93       	st	-X, r18
    2710:	17 97       	sbiw	r26, 0x07	; 7
    2712:	15 c0       	rjmp	.+42     	; 0x273e <fputc+0x88>
    2714:	1d 96       	adiw	r26, 0x0d	; 13
    2716:	ed 91       	ld	r30, X+
    2718:	fc 91       	ld	r31, X
    271a:	1e 97       	sbiw	r26, 0x0e	; 14
    271c:	30 97       	sbiw	r30, 0x00	; 0
    271e:	19 f4       	brne	.+6      	; 0x2726 <fputc+0x70>
    2720:	8f ef       	ldi	r24, 0xFF	; 255
    2722:	9f ef       	ldi	r25, 0xFF	; 255
    2724:	0c c0       	rjmp	.+24     	; 0x273e <fputc+0x88>
    2726:	8b 01       	movw	r16, r22
    2728:	ec 01       	movw	r28, r24
    272a:	09 95       	icall
    272c:	89 2b       	or	r24, r25
    272e:	c1 f7       	brne	.-16     	; 0x2720 <fputc+0x6a>
    2730:	f8 01       	movw	r30, r16
    2732:	87 81       	ldd	r24, Z+7	; 0x07
    2734:	90 85       	ldd	r25, Z+8	; 0x08
    2736:	01 96       	adiw	r24, 0x01	; 1
    2738:	90 87       	std	Z+8, r25	; 0x08
    273a:	87 83       	std	Z+7, r24	; 0x07
    273c:	ce 01       	movw	r24, r28
    273e:	df 91       	pop	r29
    2740:	cf 91       	pop	r28
    2742:	1f 91       	pop	r17
    2744:	0f 91       	pop	r16
    2746:	08 95       	ret

Disassembly of section .text.__pop_float:

00002caa <__pop_float>:
    2caa:	fa 01       	movw	r30, r20
    2cac:	60 38       	cpi	r22, 0x80	; 128
    2cae:	71 05       	cpc	r23, r1
    2cb0:	cc f0       	brlt	.+50     	; 0x2ce4 <__pop_float+0x3a>
    2cb2:	62 38       	cpi	r22, 0x82	; 130
    2cb4:	71 05       	cpc	r23, r1
    2cb6:	1c f0       	brlt	.+6      	; 0x2cbe <__pop_float+0x14>
    2cb8:	63 38       	cpi	r22, 0x83	; 131
    2cba:	71 05       	cpc	r23, r1
    2cbc:	99 f4       	brne	.+38     	; 0x2ce4 <__pop_float+0x3a>
    2cbe:	a0 81       	ld	r26, Z
    2cc0:	b1 81       	ldd	r27, Z+1	; 0x01
    2cc2:	9d 01       	movw	r18, r26
    2cc4:	2c 5f       	subi	r18, 0xFC	; 252
    2cc6:	3f 4f       	sbci	r19, 0xFF	; 255
    2cc8:	31 83       	std	Z+1, r19	; 0x01
    2cca:	20 83       	st	Z, r18
    2ccc:	4d 91       	ld	r20, X+
    2cce:	5d 91       	ld	r21, X+
    2cd0:	6d 91       	ld	r22, X+
    2cd2:	7c 91       	ld	r23, X
    2cd4:	fc 01       	movw	r30, r24
    2cd6:	40 83       	st	Z, r20
    2cd8:	51 83       	std	Z+1, r21	; 0x01
    2cda:	62 83       	std	Z+2, r22	; 0x02
    2cdc:	73 83       	std	Z+3, r23	; 0x03
    2cde:	81 e0       	ldi	r24, 0x01	; 1
    2ce0:	90 e0       	ldi	r25, 0x00	; 0
    2ce2:	08 95       	ret
    2ce4:	80 e0       	ldi	r24, 0x00	; 0
    2ce6:	90 e0       	ldi	r25, 0x00	; 0
    2ce8:	08 95       	ret

Disassembly of section .text.__pop_int:

000019f8 <__pop_int>:
    19f8:	0f 93       	push	r16
    19fa:	1f 93       	push	r17
    19fc:	cf 93       	push	r28
    19fe:	df 93       	push	r29
    1a00:	fc 01       	movw	r30, r24
    1a02:	d9 01       	movw	r26, r18
    1a04:	68 38       	cpi	r22, 0x88	; 136
    1a06:	71 05       	cpc	r23, r1
    1a08:	31 f1       	breq	.+76     	; 0x1a56 <__pop_int+0x5e>
    1a0a:	94 f4       	brge	.+36     	; 0x1a30 <__pop_int+0x38>
    1a0c:	61 38       	cpi	r22, 0x81	; 129
    1a0e:	71 05       	cpc	r23, r1
    1a10:	b1 f1       	breq	.+108    	; 0x1a7e <__pop_int+0x86>
    1a12:	2c f4       	brge	.+10     	; 0x1a1e <__pop_int+0x26>
    1a14:	60 38       	cpi	r22, 0x80	; 128
    1a16:	71 05       	cpc	r23, r1
    1a18:	09 f4       	brne	.+2      	; 0x1a1c <__pop_int+0x24>
    1a1a:	78 c0       	rjmp	.+240    	; 0x1b0c <__pop_int+0x114>
    1a1c:	9f c0       	rjmp	.+318    	; 0x1b5c <__pop_int+0x164>
    1a1e:	62 38       	cpi	r22, 0x82	; 130
    1a20:	71 05       	cpc	r23, r1
    1a22:	09 f4       	brne	.+2      	; 0x1a26 <__pop_int+0x2e>
    1a24:	59 c0       	rjmp	.+178    	; 0x1ad8 <__pop_int+0xe0>
    1a26:	64 38       	cpi	r22, 0x84	; 132
    1a28:	71 05       	cpc	r23, r1
    1a2a:	09 f4       	brne	.+2      	; 0x1a2e <__pop_int+0x36>
    1a2c:	6f c0       	rjmp	.+222    	; 0x1b0c <__pop_int+0x114>
    1a2e:	96 c0       	rjmp	.+300    	; 0x1b5c <__pop_int+0x164>
    1a30:	60 3a       	cpi	r22, 0xA0	; 160
    1a32:	71 05       	cpc	r23, r1
    1a34:	09 f4       	brne	.+2      	; 0x1a38 <__pop_int+0x40>
    1a36:	48 c0       	rjmp	.+144    	; 0x1ac8 <__pop_int+0xd0>
    1a38:	2c f4       	brge	.+10     	; 0x1a44 <__pop_int+0x4c>
    1a3a:	60 39       	cpi	r22, 0x90	; 144
    1a3c:	71 05       	cpc	r23, r1
    1a3e:	09 f4       	brne	.+2      	; 0x1a42 <__pop_int+0x4a>
    1a40:	4b c0       	rjmp	.+150    	; 0x1ad8 <__pop_int+0xe0>
    1a42:	8c c0       	rjmp	.+280    	; 0x1b5c <__pop_int+0x164>
    1a44:	60 3c       	cpi	r22, 0xC0	; 192
    1a46:	71 05       	cpc	r23, r1
    1a48:	09 f4       	brne	.+2      	; 0x1a4c <__pop_int+0x54>
    1a4a:	76 c0       	rjmp	.+236    	; 0x1b38 <__pop_int+0x140>
    1a4c:	60 3f       	cpi	r22, 0xF0	; 240
    1a4e:	71 05       	cpc	r23, r1
    1a50:	09 f4       	brne	.+2      	; 0x1a54 <__pop_int+0x5c>
    1a52:	72 c0       	rjmp	.+228    	; 0x1b38 <__pop_int+0x140>
    1a54:	83 c0       	rjmp	.+262    	; 0x1b5c <__pop_int+0x164>
    1a56:	cd 91       	ld	r28, X+
    1a58:	dc 91       	ld	r29, X
    1a5a:	11 97       	sbiw	r26, 0x01	; 1
    1a5c:	ce 01       	movw	r24, r28
    1a5e:	02 96       	adiw	r24, 0x02	; 2
    1a60:	8d 93       	st	X+, r24
    1a62:	9c 93       	st	X, r25
    1a64:	45 2b       	or	r20, r21
    1a66:	39 f0       	breq	.+14     	; 0x1a76 <__pop_int+0x7e>
    1a68:	98 81       	ld	r25, Y
    1a6a:	89 2f       	mov	r24, r25
    1a6c:	88 0f       	add	r24, r24
    1a6e:	88 0b       	sbc	r24, r24
    1a70:	90 83       	st	Z, r25
    1a72:	81 83       	std	Z+1, r24	; 0x01
    1a74:	5b c0       	rjmp	.+182    	; 0x1b2c <__pop_int+0x134>
    1a76:	88 81       	ld	r24, Y
    1a78:	80 83       	st	Z, r24
    1a7a:	11 82       	std	Z+1, r1	; 0x01
    1a7c:	68 c0       	rjmp	.+208    	; 0x1b4e <__pop_int+0x156>
    1a7e:	cd 91       	ld	r28, X+
    1a80:	dc 91       	ld	r29, X
    1a82:	11 97       	sbiw	r26, 0x01	; 1
    1a84:	ce 01       	movw	r24, r28
    1a86:	04 96       	adiw	r24, 0x04	; 4
    1a88:	8d 93       	st	X+, r24
    1a8a:	9c 93       	st	X, r25
    1a8c:	45 2b       	or	r20, r21
    1a8e:	99 f0       	breq	.+38     	; 0x1ab6 <__pop_int+0xbe>
    1a90:	88 81       	ld	r24, Y
    1a92:	99 81       	ldd	r25, Y+1	; 0x01
    1a94:	aa 81       	ldd	r26, Y+2	; 0x02
    1a96:	bb 81       	ldd	r27, Y+3	; 0x03
    1a98:	ac 01       	movw	r20, r24
    1a9a:	bd 01       	movw	r22, r26
    1a9c:	77 0f       	add	r23, r23
    1a9e:	44 0b       	sbc	r20, r20
    1aa0:	54 2f       	mov	r21, r20
    1aa2:	ba 01       	movw	r22, r20
    1aa4:	80 83       	st	Z, r24
    1aa6:	91 83       	std	Z+1, r25	; 0x01
    1aa8:	a2 83       	std	Z+2, r26	; 0x02
    1aaa:	b3 83       	std	Z+3, r27	; 0x03
    1aac:	44 83       	std	Z+4, r20	; 0x04
    1aae:	45 83       	std	Z+5, r20	; 0x05
    1ab0:	46 83       	std	Z+6, r20	; 0x06
    1ab2:	47 83       	std	Z+7, r20	; 0x07
    1ab4:	28 c0       	rjmp	.+80     	; 0x1b06 <__pop_int+0x10e>
    1ab6:	08 81       	ld	r16, Y
    1ab8:	19 81       	ldd	r17, Y+1	; 0x01
    1aba:	2a 81       	ldd	r18, Y+2	; 0x02
    1abc:	3b 81       	ldd	r19, Y+3	; 0x03
    1abe:	00 83       	st	Z, r16
    1ac0:	11 83       	std	Z+1, r17	; 0x01
    1ac2:	22 83       	std	Z+2, r18	; 0x02
    1ac4:	33 83       	std	Z+3, r19	; 0x03
    1ac6:	45 c0       	rjmp	.+138    	; 0x1b52 <__pop_int+0x15a>
    1ac8:	cd 91       	ld	r28, X+
    1aca:	dc 91       	ld	r29, X
    1acc:	11 97       	sbiw	r26, 0x01	; 1
    1ace:	ce 01       	movw	r24, r28
    1ad0:	02 96       	adiw	r24, 0x02	; 2
    1ad2:	8d 93       	st	X+, r24
    1ad4:	9c 93       	st	X, r25
    1ad6:	23 c0       	rjmp	.+70     	; 0x1b1e <__pop_int+0x126>
    1ad8:	cd 91       	ld	r28, X+
    1ada:	dc 91       	ld	r29, X
    1adc:	11 97       	sbiw	r26, 0x01	; 1
    1ade:	ce 01       	movw	r24, r28
    1ae0:	08 96       	adiw	r24, 0x08	; 8
    1ae2:	8d 93       	st	X+, r24
    1ae4:	9c 93       	st	X, r25
    1ae6:	78 81       	ld	r23, Y
    1ae8:	69 81       	ldd	r22, Y+1	; 0x01
    1aea:	5a 81       	ldd	r21, Y+2	; 0x02
    1aec:	4b 81       	ldd	r20, Y+3	; 0x03
    1aee:	3c 81       	ldd	r19, Y+4	; 0x04
    1af0:	2d 81       	ldd	r18, Y+5	; 0x05
    1af2:	9e 81       	ldd	r25, Y+6	; 0x06
    1af4:	8f 81       	ldd	r24, Y+7	; 0x07
    1af6:	70 83       	st	Z, r23
    1af8:	61 83       	std	Z+1, r22	; 0x01
    1afa:	52 83       	std	Z+2, r21	; 0x02
    1afc:	43 83       	std	Z+3, r20	; 0x03
    1afe:	34 83       	std	Z+4, r19	; 0x04
    1b00:	25 83       	std	Z+5, r18	; 0x05
    1b02:	96 83       	std	Z+6, r25	; 0x06
    1b04:	87 83       	std	Z+7, r24	; 0x07
    1b06:	81 e0       	ldi	r24, 0x01	; 1
    1b08:	90 e0       	ldi	r25, 0x00	; 0
    1b0a:	2a c0       	rjmp	.+84     	; 0x1b60 <__pop_int+0x168>
    1b0c:	cd 91       	ld	r28, X+
    1b0e:	dc 91       	ld	r29, X
    1b10:	11 97       	sbiw	r26, 0x01	; 1
    1b12:	ce 01       	movw	r24, r28
    1b14:	02 96       	adiw	r24, 0x02	; 2
    1b16:	8d 93       	st	X+, r24
    1b18:	9c 93       	st	X, r25
    1b1a:	45 2b       	or	r20, r21
    1b1c:	a1 f0       	breq	.+40     	; 0x1b46 <__pop_int+0x14e>
    1b1e:	99 81       	ldd	r25, Y+1	; 0x01
    1b20:	28 81       	ld	r18, Y
    1b22:	89 2f       	mov	r24, r25
    1b24:	88 0f       	add	r24, r24
    1b26:	88 0b       	sbc	r24, r24
    1b28:	20 83       	st	Z, r18
    1b2a:	91 83       	std	Z+1, r25	; 0x01
    1b2c:	82 83       	std	Z+2, r24	; 0x02
    1b2e:	83 83       	std	Z+3, r24	; 0x03
    1b30:	84 83       	std	Z+4, r24	; 0x04
    1b32:	85 83       	std	Z+5, r24	; 0x05
    1b34:	86 83       	std	Z+6, r24	; 0x06
    1b36:	e6 cf       	rjmp	.-52     	; 0x1b04 <__pop_int+0x10c>
    1b38:	cd 91       	ld	r28, X+
    1b3a:	dc 91       	ld	r29, X
    1b3c:	11 97       	sbiw	r26, 0x01	; 1
    1b3e:	ce 01       	movw	r24, r28
    1b40:	02 96       	adiw	r24, 0x02	; 2
    1b42:	8d 93       	st	X+, r24
    1b44:	9c 93       	st	X, r25
    1b46:	08 81       	ld	r16, Y
    1b48:	19 81       	ldd	r17, Y+1	; 0x01
    1b4a:	00 83       	st	Z, r16
    1b4c:	11 83       	std	Z+1, r17	; 0x01
    1b4e:	12 82       	std	Z+2, r1	; 0x02
    1b50:	13 82       	std	Z+3, r1	; 0x03
    1b52:	14 82       	std	Z+4, r1	; 0x04
    1b54:	15 82       	std	Z+5, r1	; 0x05
    1b56:	16 82       	std	Z+6, r1	; 0x06
    1b58:	17 82       	std	Z+7, r1	; 0x07
    1b5a:	d5 cf       	rjmp	.-86     	; 0x1b06 <__pop_int+0x10e>
    1b5c:	80 e0       	ldi	r24, 0x00	; 0
    1b5e:	90 e0       	ldi	r25, 0x00	; 0
    1b60:	df 91       	pop	r29
    1b62:	cf 91       	pop	r28
    1b64:	1f 91       	pop	r17
    1b66:	0f 91       	pop	r16
    1b68:	08 95       	ret

Disassembly of section .text.__pop_ptr:

000022fa <__pop_ptr>:
    22fa:	cf 93       	push	r28
    22fc:	df 93       	push	r29
    22fe:	dc 01       	movw	r26, r24
    2300:	f9 01       	movw	r30, r18
    2302:	64 38       	cpi	r22, 0x84	; 132
    2304:	71 05       	cpc	r23, r1
    2306:	d9 f1       	breq	.+118    	; 0x237e <__pop_ptr+0x84>
    2308:	64 f4       	brge	.+24     	; 0x2322 <__pop_ptr+0x28>
    230a:	61 38       	cpi	r22, 0x81	; 129
    230c:	71 05       	cpc	r23, r1
    230e:	21 f1       	breq	.+72     	; 0x2358 <__pop_ptr+0x5e>
    2310:	62 38       	cpi	r22, 0x82	; 130
    2312:	71 05       	cpc	r23, r1
    2314:	09 f4       	brne	.+2      	; 0x2318 <__pop_ptr+0x1e>
    2316:	40 c0       	rjmp	.+128    	; 0x2398 <__pop_ptr+0x9e>
    2318:	60 38       	cpi	r22, 0x80	; 128
    231a:	71 05       	cpc	r23, r1
    231c:	09 f0       	breq	.+2      	; 0x2320 <__pop_ptr+0x26>
    231e:	54 c0       	rjmp	.+168    	; 0x23c8 <__pop_ptr+0xce>
    2320:	2e c0       	rjmp	.+92     	; 0x237e <__pop_ptr+0x84>
    2322:	60 39       	cpi	r22, 0x90	; 144
    2324:	71 05       	cpc	r23, r1
    2326:	c1 f1       	breq	.+112    	; 0x2398 <__pop_ptr+0x9e>
    2328:	84 f4       	brge	.+32     	; 0x234a <__pop_ptr+0x50>
    232a:	68 38       	cpi	r22, 0x88	; 136
    232c:	71 05       	cpc	r23, r1
    232e:	09 f0       	breq	.+2      	; 0x2332 <__pop_ptr+0x38>
    2330:	4b c0       	rjmp	.+150    	; 0x23c8 <__pop_ptr+0xce>
    2332:	c0 81       	ld	r28, Z
    2334:	d1 81       	ldd	r29, Z+1	; 0x01
    2336:	ce 01       	movw	r24, r28
    2338:	02 96       	adiw	r24, 0x02	; 2
    233a:	91 83       	std	Z+1, r25	; 0x01
    233c:	80 83       	st	Z, r24
    233e:	e8 81       	ld	r30, Y
    2340:	f9 81       	ldd	r31, Y+1	; 0x01
    2342:	ed 93       	st	X+, r30
    2344:	fc 93       	st	X, r31
    2346:	40 83       	st	Z, r20
    2348:	3c c0       	rjmp	.+120    	; 0x23c2 <__pop_ptr+0xc8>
    234a:	60 3a       	cpi	r22, 0xA0	; 160
    234c:	71 05       	cpc	r23, r1
    234e:	b9 f0       	breq	.+46     	; 0x237e <__pop_ptr+0x84>
    2350:	60 3c       	cpi	r22, 0xC0	; 192
    2352:	71 05       	cpc	r23, r1
    2354:	a1 f0       	breq	.+40     	; 0x237e <__pop_ptr+0x84>
    2356:	38 c0       	rjmp	.+112    	; 0x23c8 <__pop_ptr+0xce>
    2358:	c0 81       	ld	r28, Z
    235a:	d1 81       	ldd	r29, Z+1	; 0x01
    235c:	ce 01       	movw	r24, r28
    235e:	02 96       	adiw	r24, 0x02	; 2
    2360:	91 83       	std	Z+1, r25	; 0x01
    2362:	80 83       	st	Z, r24
    2364:	e8 81       	ld	r30, Y
    2366:	f9 81       	ldd	r31, Y+1	; 0x01
    2368:	ed 93       	st	X+, r30
    236a:	fc 93       	st	X, r31
    236c:	05 2e       	mov	r0, r21
    236e:	00 0c       	add	r0, r0
    2370:	66 0b       	sbc	r22, r22
    2372:	77 0b       	sbc	r23, r23
    2374:	40 83       	st	Z, r20
    2376:	51 83       	std	Z+1, r21	; 0x01
    2378:	62 83       	std	Z+2, r22	; 0x02
    237a:	73 83       	std	Z+3, r23	; 0x03
    237c:	22 c0       	rjmp	.+68     	; 0x23c2 <__pop_ptr+0xc8>
    237e:	c0 81       	ld	r28, Z
    2380:	d1 81       	ldd	r29, Z+1	; 0x01
    2382:	ce 01       	movw	r24, r28
    2384:	02 96       	adiw	r24, 0x02	; 2
    2386:	91 83       	std	Z+1, r25	; 0x01
    2388:	80 83       	st	Z, r24
    238a:	e8 81       	ld	r30, Y
    238c:	f9 81       	ldd	r31, Y+1	; 0x01
    238e:	ed 93       	st	X+, r30
    2390:	fc 93       	st	X, r31
    2392:	51 83       	std	Z+1, r21	; 0x01
    2394:	40 83       	st	Z, r20
    2396:	15 c0       	rjmp	.+42     	; 0x23c2 <__pop_ptr+0xc8>
    2398:	c0 81       	ld	r28, Z
    239a:	d1 81       	ldd	r29, Z+1	; 0x01
    239c:	ce 01       	movw	r24, r28
    239e:	02 96       	adiw	r24, 0x02	; 2
    23a0:	91 83       	std	Z+1, r25	; 0x01
    23a2:	80 83       	st	Z, r24
    23a4:	e8 81       	ld	r30, Y
    23a6:	f9 81       	ldd	r31, Y+1	; 0x01
    23a8:	ed 93       	st	X+, r30
    23aa:	fc 93       	st	X, r31
    23ac:	51 83       	std	Z+1, r21	; 0x01
    23ae:	40 83       	st	Z, r20
    23b0:	85 2f       	mov	r24, r21
    23b2:	88 0f       	add	r24, r24
    23b4:	88 0b       	sbc	r24, r24
    23b6:	82 83       	std	Z+2, r24	; 0x02
    23b8:	83 83       	std	Z+3, r24	; 0x03
    23ba:	84 83       	std	Z+4, r24	; 0x04
    23bc:	85 83       	std	Z+5, r24	; 0x05
    23be:	86 83       	std	Z+6, r24	; 0x06
    23c0:	87 83       	std	Z+7, r24	; 0x07
    23c2:	81 e0       	ldi	r24, 0x01	; 1
    23c4:	90 e0       	ldi	r25, 0x00	; 0
    23c6:	02 c0       	rjmp	.+4      	; 0x23cc <__pop_ptr+0xd2>
    23c8:	80 e0       	ldi	r24, 0x00	; 0
    23ca:	90 e0       	ldi	r25, 0x00	; 0
    23cc:	df 91       	pop	r29
    23ce:	cf 91       	pop	r28
    23d0:	08 95       	ret

Disassembly of section .text.atoi:

00002748 <atoi>:
    2748:	cf 93       	push	r28
    274a:	9b 01       	movw	r18, r22
    274c:	48 2f       	mov	r20, r24
    274e:	f9 01       	movw	r30, r18
    2750:	84 91       	lpm	r24, Z
    2752:	47 fd       	sbrc	r20, 7
    2754:	80 81       	ld	r24, Z
    2756:	80 32       	cpi	r24, 0x20	; 32
    2758:	c9 f1       	breq	.+114    	; 0x27cc <atoi+0x84>
    275a:	68 2f       	mov	r22, r24
    275c:	08 2e       	mov	r0, r24
    275e:	00 0c       	add	r0, r0
    2760:	77 0b       	sbc	r23, r23
    2762:	69 50       	subi	r22, 0x09	; 9
    2764:	71 09       	sbc	r23, r1
    2766:	65 30       	cpi	r22, 0x05	; 5
    2768:	71 05       	cpc	r23, r1
    276a:	80 f1       	brcs	.+96     	; 0x27cc <atoi+0x84>
    276c:	8b 32       	cpi	r24, 0x2B	; 43
    276e:	49 f5       	brne	.+82     	; 0x27c2 <atoi+0x7a>
    2770:	a0 e0       	ldi	r26, 0x00	; 0
    2772:	b0 e0       	ldi	r27, 0x00	; 0
    2774:	2f 5f       	subi	r18, 0xFF	; 255
    2776:	3f 4f       	sbci	r19, 0xFF	; 255
    2778:	4f 4f       	sbci	r20, 0xFF	; 255
    277a:	02 c0       	rjmp	.+4      	; 0x2780 <atoi+0x38>
    277c:	a0 e0       	ldi	r26, 0x00	; 0
    277e:	b0 e0       	ldi	r27, 0x00	; 0
    2780:	80 e0       	ldi	r24, 0x00	; 0
    2782:	90 e0       	ldi	r25, 0x00	; 0
    2784:	ca e0       	ldi	r28, 0x0A	; 10
    2786:	f9 01       	movw	r30, r18
    2788:	64 91       	lpm	r22, Z
    278a:	47 fd       	sbrc	r20, 7
    278c:	60 81       	ld	r22, Z
    278e:	06 2e       	mov	r0, r22
    2790:	00 0c       	add	r0, r0
    2792:	77 0b       	sbc	r23, r23
    2794:	60 53       	subi	r22, 0x30	; 48
    2796:	71 09       	sbc	r23, r1
    2798:	6a 30       	cpi	r22, 0x0A	; 10
    279a:	71 05       	cpc	r23, r1
    279c:	60 f4       	brcc	.+24     	; 0x27b6 <atoi+0x6e>
    279e:	c8 9f       	mul	r28, r24
    27a0:	f0 01       	movw	r30, r0
    27a2:	c9 9f       	mul	r28, r25
    27a4:	f0 0d       	add	r31, r0
    27a6:	11 24       	eor	r1, r1
    27a8:	2f 5f       	subi	r18, 0xFF	; 255
    27aa:	3f 4f       	sbci	r19, 0xFF	; 255
    27ac:	4f 4f       	sbci	r20, 0xFF	; 255
    27ae:	cf 01       	movw	r24, r30
    27b0:	86 1b       	sub	r24, r22
    27b2:	97 0b       	sbc	r25, r23
    27b4:	e8 cf       	rjmp	.-48     	; 0x2786 <atoi+0x3e>
    27b6:	ab 2b       	or	r26, r27
    27b8:	69 f4       	brne	.+26     	; 0x27d4 <atoi+0x8c>
    27ba:	91 95       	neg	r25
    27bc:	81 95       	neg	r24
    27be:	91 09       	sbc	r25, r1
    27c0:	09 c0       	rjmp	.+18     	; 0x27d4 <atoi+0x8c>
    27c2:	8d 32       	cpi	r24, 0x2D	; 45
    27c4:	d9 f6       	brne	.-74     	; 0x277c <atoi+0x34>
    27c6:	a1 e0       	ldi	r26, 0x01	; 1
    27c8:	b0 e0       	ldi	r27, 0x00	; 0
    27ca:	d4 cf       	rjmp	.-88     	; 0x2774 <atoi+0x2c>
    27cc:	2f 5f       	subi	r18, 0xFF	; 255
    27ce:	3f 4f       	sbci	r19, 0xFF	; 255
    27d0:	4f 4f       	sbci	r20, 0xFF	; 255
    27d2:	bd cf       	rjmp	.-134    	; 0x274e <atoi+0x6>
    27d4:	cf 91       	pop	r28
    27d6:	08 95       	ret

Disassembly of section .text.memset:

00003180 <memset>:
    3180:	fc 01       	movw	r30, r24
    3182:	48 0f       	add	r20, r24
    3184:	59 1f       	adc	r21, r25
    3186:	e4 17       	cp	r30, r20
    3188:	f5 07       	cpc	r31, r21
    318a:	11 f0       	breq	.+4      	; 0x3190 <memset+0x10>
    318c:	61 93       	st	Z+, r22
    318e:	fb cf       	rjmp	.-10     	; 0x3186 <memset+0x6>
    3190:	08 95       	ret

Disassembly of section .text.strcpy:

0000306a <strcpy>:
    306a:	9a 01       	movw	r18, r20
    306c:	46 2f       	mov	r20, r22
    306e:	dc 01       	movw	r26, r24
    3070:	f9 01       	movw	r30, r18
    3072:	54 91       	lpm	r21, Z
    3074:	47 fd       	sbrc	r20, 7
    3076:	50 81       	ld	r21, Z
    3078:	5d 93       	st	X+, r21
    307a:	2f 5f       	subi	r18, 0xFF	; 255
    307c:	3f 4f       	sbci	r19, 0xFF	; 255
    307e:	4f 4f       	sbci	r20, 0xFF	; 255
    3080:	51 11       	cpse	r21, r1
    3082:	f6 cf       	rjmp	.-20     	; 0x3070 <strcpy+0x6>
    3084:	08 95       	ret

Disassembly of section .text.strlen:

00002f36 <strlen>:
    2f36:	cf 92       	push	r12
    2f38:	df 92       	push	r13
    2f3a:	ef 92       	push	r14
    2f3c:	6b 01       	movw	r12, r22
    2f3e:	e8 2e       	mov	r14, r24
    2f40:	a8 2f       	mov	r26, r24
    2f42:	cb 01       	movw	r24, r22
    2f44:	fc 01       	movw	r30, r24
    2f46:	24 91       	lpm	r18, Z
    2f48:	a7 fd       	sbrc	r26, 7
    2f4a:	20 81       	ld	r18, Z
    2f4c:	22 23       	and	r18, r18
    2f4e:	19 f0       	breq	.+6      	; 0x2f56 <strlen+0x20>
    2f50:	01 96       	adiw	r24, 0x01	; 1
    2f52:	a1 1d       	adc	r26, r1
    2f54:	f7 cf       	rjmp	.-18     	; 0x2f44 <strlen+0xe>
    2f56:	8c 19       	sub	r24, r12
    2f58:	9d 09       	sbc	r25, r13
    2f5a:	ef 90       	pop	r14
    2f5c:	df 90       	pop	r13
    2f5e:	cf 90       	pop	r12
    2f60:	08 95       	ret

Disassembly of section .text.tolower:

000031b2 <tolower>:
    31b2:	9c 01       	movw	r18, r24
    31b4:	21 54       	subi	r18, 0x41	; 65
    31b6:	31 09       	sbc	r19, r1
    31b8:	2a 31       	cpi	r18, 0x1A	; 26
    31ba:	31 05       	cpc	r19, r1
    31bc:	08 f4       	brcc	.+2      	; 0x31c0 <tolower+0xe>
    31be:	80 62       	ori	r24, 0x20	; 32
    31c0:	08 95       	ret

Disassembly of section .text._Exit:

00003290 <_Exit>:
    3290:	0e 94 5e 00 	call	0xbc	; 0xbc <_exit>

Disassembly of section .text.__vfprintf:

00002eac <__vfprintf>:
    2eac:	a2 e0       	ldi	r26, 0x02	; 2
    2eae:	b0 e0       	ldi	r27, 0x00	; 0
    2eb0:	ec e5       	ldi	r30, 0x5C	; 92
    2eb2:	f7 e1       	ldi	r31, 0x17	; 23
    2eb4:	0c 94 f8 16 	jmp	0x2df0	; 0x2df0 <__prologue_saves__+0x1c>
    2eb8:	8c 01       	movw	r16, r24
    2eba:	3a 83       	std	Y+2, r19	; 0x02
    2ebc:	29 83       	std	Y+1, r18	; 0x01
    2ebe:	9e 01       	movw	r18, r28
    2ec0:	2f 5f       	subi	r18, 0xFF	; 255
    2ec2:	3f 4f       	sbci	r19, 0xFF	; 255
    2ec4:	0e 94 b6 00 	call	0x16c	; 0x16c <__printf_core>
    2ec8:	f8 01       	movw	r30, r16
    2eca:	20 81       	ld	r18, Z
    2ecc:	24 ff       	sbrs	r18, 4
    2ece:	02 c0       	rjmp	.+4      	; 0x2ed4 <__vfprintf+0x28>
    2ed0:	8f ef       	ldi	r24, 0xFF	; 255
    2ed2:	9f ef       	ldi	r25, 0xFF	; 255
    2ed4:	22 96       	adiw	r28, 0x02	; 2
    2ed6:	e4 e0       	ldi	r30, 0x04	; 4
    2ed8:	0c 94 2f 17 	jmp	0x2e5e	; 0x2e5e <__epilogue_restores__+0x1c>

Disassembly of section .text.__vsprintf:

000030ea <__vsprintf>:
    30ea:	0f 93       	push	r16
    30ec:	1f 93       	push	r17
    30ee:	89 01       	movw	r16, r18
    30f0:	9a 01       	movw	r18, r20
    30f2:	46 2f       	mov	r20, r22
    30f4:	6f ef       	ldi	r22, 0xFF	; 255
    30f6:	7f e7       	ldi	r23, 0x7F	; 127
    30f8:	0e 94 ba 12 	call	0x2574	; 0x2574 <__vsnprintf>
    30fc:	1f 91       	pop	r17
    30fe:	0f 91       	pop	r16
    3100:	08 95       	ret

Disassembly of section .text.libgcc.div:

00002f8c <__divmodhi4>:
    2f8c:	97 fb       	bst	r25, 7
    2f8e:	07 2e       	mov	r0, r23
    2f90:	16 f4       	brtc	.+4      	; 0x2f96 <__divmodhi4+0xa>
    2f92:	00 94       	com	r0
    2f94:	07 d0       	rcall	.+14     	; 0x2fa4 <__divmodhi4_neg1>
    2f96:	77 fd       	sbrc	r23, 7
    2f98:	09 d0       	rcall	.+18     	; 0x2fac <__divmodhi4_neg2>
    2f9a:	0e 94 da 17 	call	0x2fb4	; 0x2fb4 <__udivmodhi4>
    2f9e:	07 fc       	sbrc	r0, 7
    2fa0:	05 d0       	rcall	.+10     	; 0x2fac <__divmodhi4_neg2>
    2fa2:	3e f4       	brtc	.+14     	; 0x2fb2 <__divmodhi4_exit>

00002fa4 <__divmodhi4_neg1>:
    2fa4:	90 95       	com	r25
    2fa6:	81 95       	neg	r24
    2fa8:	9f 4f       	sbci	r25, 0xFF	; 255
    2faa:	08 95       	ret

00002fac <__divmodhi4_neg2>:
    2fac:	70 95       	com	r23
    2fae:	61 95       	neg	r22
    2fb0:	7f 4f       	sbci	r23, 0xFF	; 255

00002fb2 <__divmodhi4_exit>:
    2fb2:	08 95       	ret

Disassembly of section .text.libgcc:

000030a0 <__movmemx_qi>:
    30a0:	99 27       	eor	r25, r25

000030a2 <__movmemx_hi>:
    30a2:	77 fd       	sbrc	r23, 7
    30a4:	05 c0       	rjmp	.+10     	; 0x30b0 <__movmemx_hi+0xe>
    30a6:	05 90       	lpm	r0, Z+
    30a8:	0d 92       	st	X+, r0
    30aa:	01 97       	sbiw	r24, 0x01	; 1
    30ac:	e1 f7       	brne	.-8      	; 0x30a6 <__movmemx_hi+0x4>
    30ae:	08 95       	ret
    30b0:	01 90       	ld	r0, Z+
    30b2:	0d 92       	st	X+, r0
    30b4:	01 97       	sbiw	r24, 0x01	; 1
    30b6:	e1 f7       	brne	.-8      	; 0x30b0 <__movmemx_hi+0xe>
    30b8:	08 95       	ret

Disassembly of section .text.libgcc:

00003102 <__cmpdi2_s8>:
    3102:	00 24       	eor	r0, r0
    3104:	a7 fd       	sbrc	r26, 7
    3106:	00 94       	com	r0
    3108:	2a 17       	cp	r18, r26
    310a:	30 05       	cpc	r19, r0
    310c:	40 05       	cpc	r20, r0
    310e:	50 05       	cpc	r21, r0
    3110:	60 05       	cpc	r22, r0
    3112:	70 05       	cpc	r23, r0
    3114:	80 05       	cpc	r24, r0
    3116:	90 05       	cpc	r25, r0
    3118:	08 95       	ret

Disassembly of section .text.libgcc.div:

00002fb4 <__udivmodhi4>:
    2fb4:	aa 1b       	sub	r26, r26
    2fb6:	bb 1b       	sub	r27, r27
    2fb8:	51 e1       	ldi	r21, 0x11	; 17
    2fba:	07 c0       	rjmp	.+14     	; 0x2fca <__udivmodhi4_ep>

00002fbc <__udivmodhi4_loop>:
    2fbc:	aa 1f       	adc	r26, r26
    2fbe:	bb 1f       	adc	r27, r27
    2fc0:	a6 17       	cp	r26, r22
    2fc2:	b7 07       	cpc	r27, r23
    2fc4:	10 f0       	brcs	.+4      	; 0x2fca <__udivmodhi4_ep>
    2fc6:	a6 1b       	sub	r26, r22
    2fc8:	b7 0b       	sbc	r27, r23

00002fca <__udivmodhi4_ep>:
    2fca:	88 1f       	adc	r24, r24
    2fcc:	99 1f       	adc	r25, r25
    2fce:	5a 95       	dec	r21
    2fd0:	a9 f7       	brne	.-22     	; 0x2fbc <__udivmodhi4_loop>
    2fd2:	80 95       	com	r24
    2fd4:	90 95       	com	r25
    2fd6:	bc 01       	movw	r22, r24
    2fd8:	cd 01       	movw	r24, r26
    2fda:	08 95       	ret

Disassembly of section .text.floorf:

00001dec <floorf>:
    1dec:	4f 92       	push	r4
    1dee:	5f 92       	push	r5
    1df0:	6f 92       	push	r6
    1df2:	7f 92       	push	r7
    1df4:	8f 92       	push	r8
    1df6:	9f 92       	push	r9
    1df8:	af 92       	push	r10
    1dfa:	bf 92       	push	r11
    1dfc:	cf 92       	push	r12
    1dfe:	df 92       	push	r13
    1e00:	ef 92       	push	r14
    1e02:	ff 92       	push	r15
    1e04:	cf 93       	push	r28
    1e06:	df 93       	push	r29
    1e08:	cd b7       	in	r28, 0x3d	; 61
    1e0a:	de b7       	in	r29, 0x3e	; 62
    1e0c:	28 97       	sbiw	r28, 0x08	; 8
    1e0e:	0f b6       	in	r0, 0x3f	; 63
    1e10:	f8 94       	cli
    1e12:	de bf       	out	0x3e, r29	; 62
    1e14:	0f be       	out	0x3f, r0	; 63
    1e16:	cd bf       	out	0x3d, r28	; 61
    1e18:	6b 01       	movw	r12, r22
    1e1a:	7c 01       	movw	r14, r24
    1e1c:	dc 01       	movw	r26, r24
    1e1e:	cb 01       	movw	r24, r22
    1e20:	47 e1       	ldi	r20, 0x17	; 23
    1e22:	b6 95       	lsr	r27
    1e24:	a7 95       	ror	r26
    1e26:	97 95       	ror	r25
    1e28:	87 95       	ror	r24
    1e2a:	4a 95       	dec	r20
    1e2c:	d1 f7       	brne	.-12     	; 0x1e22 <floorf+0x36>
    1e2e:	99 27       	eor	r25, r25
    1e30:	8f 57       	subi	r24, 0x7F	; 127
    1e32:	91 09       	sbc	r25, r1
    1e34:	87 31       	cpi	r24, 0x17	; 23
    1e36:	91 05       	cpc	r25, r1
    1e38:	9c f5       	brge	.+102    	; 0x1ea0 <floorf+0xb4>
    1e3a:	97 fd       	sbrc	r25, 7
    1e3c:	36 c0       	rjmp	.+108    	; 0x1eaa <floorf+0xbe>
    1e3e:	88 24       	eor	r8, r8
    1e40:	8a 94       	dec	r8
    1e42:	98 2c       	mov	r9, r8
    1e44:	3f e7       	ldi	r19, 0x7F	; 127
    1e46:	a3 2e       	mov	r10, r19
    1e48:	b1 2c       	mov	r11, r1
    1e4a:	04 c0       	rjmp	.+8      	; 0x1e54 <floorf+0x68>
    1e4c:	b5 94       	asr	r11
    1e4e:	a7 94       	ror	r10
    1e50:	97 94       	ror	r9
    1e52:	87 94       	ror	r8
    1e54:	8a 95       	dec	r24
    1e56:	d2 f7       	brpl	.-12     	; 0x1e4c <floorf+0x60>
    1e58:	d5 01       	movw	r26, r10
    1e5a:	c4 01       	movw	r24, r8
    1e5c:	8c 21       	and	r24, r12
    1e5e:	9d 21       	and	r25, r13
    1e60:	ae 21       	and	r26, r14
    1e62:	bf 21       	and	r27, r15
    1e64:	89 2b       	or	r24, r25
    1e66:	8a 2b       	or	r24, r26
    1e68:	8b 2b       	or	r24, r27
    1e6a:	d1 f0       	breq	.+52     	; 0x1ea0 <floorf+0xb4>
    1e6c:	20 e0       	ldi	r18, 0x00	; 0
    1e6e:	30 e0       	ldi	r19, 0x00	; 0
    1e70:	40 e8       	ldi	r20, 0x80	; 128
    1e72:	5b e7       	ldi	r21, 0x7B	; 123
    1e74:	c7 01       	movw	r24, r14
    1e76:	b6 01       	movw	r22, r12
    1e78:	0e 94 f0 18 	call	0x31e0	; 0x31e0 <__addsf3>
    1e7c:	6d 83       	std	Y+5, r22	; 0x05
    1e7e:	7e 83       	std	Y+6, r23	; 0x06
    1e80:	8f 83       	std	Y+7, r24	; 0x07
    1e82:	98 87       	std	Y+8, r25	; 0x08
    1e84:	f7 fe       	sbrs	r15, 7
    1e86:	04 c0       	rjmp	.+8      	; 0x1e90 <floorf+0xa4>
    1e88:	c8 0c       	add	r12, r8
    1e8a:	d9 1c       	adc	r13, r9
    1e8c:	ea 1c       	adc	r14, r10
    1e8e:	fb 1c       	adc	r15, r11
    1e90:	80 94       	com	r8
    1e92:	90 94       	com	r9
    1e94:	a0 94       	com	r10
    1e96:	b0 94       	com	r11
    1e98:	c8 20       	and	r12, r8
    1e9a:	d9 20       	and	r13, r9
    1e9c:	ea 20       	and	r14, r10
    1e9e:	fb 20       	and	r15, r11
    1ea0:	5c 2d       	mov	r21, r12
    1ea2:	4d 2d       	mov	r20, r13
    1ea4:	3e 2d       	mov	r19, r14
    1ea6:	2f 2d       	mov	r18, r15
    1ea8:	21 c0       	rjmp	.+66     	; 0x1eec <floorf+0x100>
    1eaa:	20 e0       	ldi	r18, 0x00	; 0
    1eac:	30 e0       	ldi	r19, 0x00	; 0
    1eae:	40 e8       	ldi	r20, 0x80	; 128
    1eb0:	5b e7       	ldi	r21, 0x7B	; 123
    1eb2:	c7 01       	movw	r24, r14
    1eb4:	b6 01       	movw	r22, r12
    1eb6:	0e 94 f0 18 	call	0x31e0	; 0x31e0 <__addsf3>
    1eba:	69 83       	std	Y+1, r22	; 0x01
    1ebc:	7a 83       	std	Y+2, r23	; 0x02
    1ebe:	8b 83       	std	Y+3, r24	; 0x03
    1ec0:	9c 83       	std	Y+4, r25	; 0x04
    1ec2:	f7 fe       	sbrs	r15, 7
    1ec4:	0f c0       	rjmp	.+30     	; 0x1ee4 <floorf+0xf8>
    1ec6:	d7 01       	movw	r26, r14
    1ec8:	c6 01       	movw	r24, r12
    1eca:	88 0f       	add	r24, r24
    1ecc:	99 1f       	adc	r25, r25
    1ece:	aa 1f       	adc	r26, r26
    1ed0:	bb 1f       	adc	r27, r27
    1ed2:	89 2b       	or	r24, r25
    1ed4:	8a 2b       	or	r24, r26
    1ed6:	8b 2b       	or	r24, r27
    1ed8:	19 f3       	breq	.-58     	; 0x1ea0 <floorf+0xb4>
    1eda:	50 e0       	ldi	r21, 0x00	; 0
    1edc:	40 e0       	ldi	r20, 0x00	; 0
    1ede:	30 e8       	ldi	r19, 0x80	; 128
    1ee0:	2f eb       	ldi	r18, 0xBF	; 191
    1ee2:	04 c0       	rjmp	.+8      	; 0x1eec <floorf+0x100>
    1ee4:	50 e0       	ldi	r21, 0x00	; 0
    1ee6:	40 e0       	ldi	r20, 0x00	; 0
    1ee8:	30 e0       	ldi	r19, 0x00	; 0
    1eea:	20 e0       	ldi	r18, 0x00	; 0
    1eec:	65 2f       	mov	r22, r21
    1eee:	74 2f       	mov	r23, r20
    1ef0:	83 2f       	mov	r24, r19
    1ef2:	92 2f       	mov	r25, r18
    1ef4:	28 96       	adiw	r28, 0x08	; 8
    1ef6:	0f b6       	in	r0, 0x3f	; 63
    1ef8:	f8 94       	cli
    1efa:	de bf       	out	0x3e, r29	; 62
    1efc:	0f be       	out	0x3f, r0	; 63
    1efe:	cd bf       	out	0x3d, r28	; 61
    1f00:	df 91       	pop	r29
    1f02:	cf 91       	pop	r28
    1f04:	ff 90       	pop	r15
    1f06:	ef 90       	pop	r14
    1f08:	df 90       	pop	r13
    1f0a:	cf 90       	pop	r12
    1f0c:	bf 90       	pop	r11
    1f0e:	af 90       	pop	r10
    1f10:	9f 90       	pop	r9
    1f12:	8f 90       	pop	r8
    1f14:	7f 90       	pop	r7
    1f16:	6f 90       	pop	r6
    1f18:	5f 90       	pop	r5
    1f1a:	4f 90       	pop	r4
    1f1c:	08 95       	ret

Disassembly of section .text.fmaf:

00001cb0 <fmaf>:
    1cb0:	a5 e1       	ldi	r26, 0x15	; 21
    1cb2:	b0 e0       	ldi	r27, 0x00	; 0
    1cb4:	ee e5       	ldi	r30, 0x5E	; 94
    1cb6:	fe e0       	ldi	r31, 0x0E	; 14
    1cb8:	0c 94 ea 16 	jmp	0x2dd4	; 0x2dd4 <__prologue_saves__>
    1cbc:	47 01       	movw	r8, r14
    1cbe:	58 01       	movw	r10, r16
    1cc0:	0e 94 34 19 	call	0x3268	; 0x3268 <__mulsf3>
    1cc4:	2b 01       	movw	r4, r22
    1cc6:	3c 01       	movw	r6, r24
    1cc8:	a8 01       	movw	r20, r16
    1cca:	97 01       	movw	r18, r14
    1ccc:	0e 94 f0 18 	call	0x31e0	; 0x31e0 <__addsf3>
    1cd0:	16 2f       	mov	r17, r22
    1cd2:	c7 2e       	mov	r12, r23
    1cd4:	d8 2e       	mov	r13, r24
    1cd6:	f9 2e       	mov	r15, r25
    1cd8:	86 2f       	mov	r24, r22
    1cda:	9c 2d       	mov	r25, r12
    1cdc:	ad 2d       	mov	r26, r13
    1cde:	bf 2d       	mov	r27, r15
    1ce0:	89 83       	std	Y+1, r24	; 0x01
    1ce2:	9a 83       	std	Y+2, r25	; 0x02
    1ce4:	ab 83       	std	Y+3, r26	; 0x03
    1ce6:	bc 83       	std	Y+4, r27	; 0x04
    1ce8:	aa 81       	ldd	r26, Y+2	; 0x02
    1cea:	fb 81       	ldd	r31, Y+3	; 0x03
    1cec:	ec 81       	ldd	r30, Y+4	; 0x04
    1cee:	ed 80       	ldd	r14, Y+5	; 0x05
    1cf0:	3e 80       	ldd	r3, Y+6	; 0x06
    1cf2:	2f 80       	ldd	r2, Y+7	; 0x07
    1cf4:	08 85       	ldd	r16, Y+8	; 0x08
    1cf6:	0d 8b       	std	Y+21, r16	; 0x15
    1cf8:	5e 2f       	mov	r21, r30
    1cfa:	5f 71       	andi	r21, 0x1F	; 31
    1cfc:	21 2f       	mov	r18, r17
    1cfe:	3a 2f       	mov	r19, r26
    1d00:	4f 2f       	mov	r20, r31
    1d02:	60 e0       	ldi	r22, 0x00	; 0
    1d04:	70 e0       	ldi	r23, 0x00	; 0
    1d06:	80 e0       	ldi	r24, 0x00	; 0
    1d08:	90 e0       	ldi	r25, 0x00	; 0
    1d0a:	21 15       	cp	r18, r1
    1d0c:	31 05       	cpc	r19, r1
    1d0e:	41 05       	cpc	r20, r1
    1d10:	00 e1       	ldi	r16, 0x10	; 16
    1d12:	50 07       	cpc	r21, r16
    1d14:	61 05       	cpc	r22, r1
    1d16:	71 05       	cpc	r23, r1
    1d18:	81 05       	cpc	r24, r1
    1d1a:	91 05       	cpc	r25, r1
    1d1c:	09 f0       	breq	.+2      	; 0x1d20 <fmaf+0x70>
    1d1e:	5e c0       	rjmp	.+188    	; 0x1ddc <fmaf+0x12c>
    1d20:	5e 2f       	mov	r21, r30
    1d22:	6e 2d       	mov	r22, r14
    1d24:	73 2d       	mov	r23, r3
    1d26:	82 2d       	mov	r24, r2
    1d28:	9d 89       	ldd	r25, Y+21	; 0x15
    1d2a:	04 e3       	ldi	r16, 0x34	; 52
    1d2c:	0e 94 77 16 	call	0x2cee	; 0x2cee <__lshrdi3>
    1d30:	2d 87       	std	Y+13, r18	; 0x0d
    1d32:	3e 87       	std	Y+14, r19	; 0x0e
    1d34:	4f 87       	std	Y+15, r20	; 0x0f
    1d36:	58 8b       	std	Y+16, r21	; 0x10
    1d38:	69 8b       	std	Y+17, r22	; 0x11
    1d3a:	7a 8b       	std	Y+18, r23	; 0x12
    1d3c:	8b 8b       	std	Y+19, r24	; 0x13
    1d3e:	9c 8b       	std	Y+20, r25	; 0x14
    1d40:	8d 85       	ldd	r24, Y+13	; 0x0d
    1d42:	9e 85       	ldd	r25, Y+14	; 0x0e
    1d44:	97 70       	andi	r25, 0x07	; 7
    1d46:	8f 3f       	cpi	r24, 0xFF	; 255
    1d48:	97 40       	sbci	r25, 0x07	; 7
    1d4a:	09 f4       	brne	.+2      	; 0x1d4e <fmaf+0x9e>
    1d4c:	47 c0       	rjmp	.+142    	; 0x1ddc <fmaf+0x12c>
    1d4e:	a3 01       	movw	r20, r6
    1d50:	92 01       	movw	r18, r4
    1d52:	61 2f       	mov	r22, r17
    1d54:	7c 2d       	mov	r23, r12
    1d56:	8d 2d       	mov	r24, r13
    1d58:	9f 2d       	mov	r25, r15
    1d5a:	0e 94 ef 18 	call	0x31de	; 0x31de <__subsf3>
    1d5e:	9b 01       	movw	r18, r22
    1d60:	ac 01       	movw	r20, r24
    1d62:	c5 01       	movw	r24, r10
    1d64:	b4 01       	movw	r22, r8
    1d66:	0e 94 1e 19 	call	0x323c	; 0x323c <__cmpsf2>
    1d6a:	88 23       	and	r24, r24
    1d6c:	b9 f1       	breq	.+110    	; 0x1ddc <fmaf+0x12c>
    1d6e:	49 86       	std	Y+9, r4	; 0x09
    1d70:	5a 86       	std	Y+10, r5	; 0x0a
    1d72:	6b 86       	std	Y+11, r6	; 0x0b
    1d74:	7c 86       	std	Y+12, r7	; 0x0c
    1d76:	29 85       	ldd	r18, Y+9	; 0x09
    1d78:	3a 85       	ldd	r19, Y+10	; 0x0a
    1d7a:	4b 85       	ldd	r20, Y+11	; 0x0b
    1d7c:	5c 85       	ldd	r21, Y+12	; 0x0c
    1d7e:	c5 01       	movw	r24, r10
    1d80:	b4 01       	movw	r22, r8
    1d82:	0e 94 f0 18 	call	0x31e0	; 0x31e0 <__addsf3>
    1d86:	b6 2e       	mov	r11, r22
    1d88:	87 2e       	mov	r8, r23
    1d8a:	98 2e       	mov	r9, r24
    1d8c:	a9 2e       	mov	r10, r25
    1d8e:	26 2f       	mov	r18, r22
    1d90:	37 2f       	mov	r19, r23
    1d92:	48 2f       	mov	r20, r24
    1d94:	59 2f       	mov	r21, r25
    1d96:	61 2f       	mov	r22, r17
    1d98:	7c 2d       	mov	r23, r12
    1d9a:	8d 2d       	mov	r24, r13
    1d9c:	9f 2d       	mov	r25, r15
    1d9e:	0e 94 1e 19 	call	0x323c	; 0x323c <__cmpsf2>
    1da2:	81 11       	cpse	r24, r1
    1da4:	18 c0       	rjmp	.+48     	; 0x1dd6 <fmaf+0x126>
    1da6:	2b 2d       	mov	r18, r11
    1da8:	8b 2d       	mov	r24, r11
    1daa:	98 2d       	mov	r25, r8
    1dac:	a9 2d       	mov	r26, r9
    1dae:	ba 2d       	mov	r27, r10
    1db0:	89 83       	std	Y+1, r24	; 0x01
    1db2:	9a 83       	std	Y+2, r25	; 0x02
    1db4:	ab 83       	std	Y+3, r26	; 0x03
    1db6:	bc 83       	std	Y+4, r27	; 0x04
    1db8:	3a 81       	ldd	r19, Y+2	; 0x02
    1dba:	4b 81       	ldd	r20, Y+3	; 0x03
    1dbc:	5c 81       	ldd	r21, Y+4	; 0x04
    1dbe:	6e 2d       	mov	r22, r14
    1dc0:	73 2d       	mov	r23, r3
    1dc2:	82 2d       	mov	r24, r2
    1dc4:	9d 89       	ldd	r25, Y+21	; 0x15
    1dc6:	a1 e0       	ldi	r26, 0x01	; 1
    1dc8:	0e 94 8d 18 	call	0x311a	; 0x311a <__adddi3_s8>
    1dcc:	12 2f       	mov	r17, r18
    1dce:	c3 2e       	mov	r12, r19
    1dd0:	d4 2e       	mov	r13, r20
    1dd2:	f5 2e       	mov	r15, r21
    1dd4:	03 c0       	rjmp	.+6      	; 0x1ddc <fmaf+0x12c>
    1dd6:	1b 2d       	mov	r17, r11
    1dd8:	64 01       	movw	r12, r8
    1dda:	fa 2c       	mov	r15, r10
    1ddc:	61 2f       	mov	r22, r17
    1dde:	7c 2d       	mov	r23, r12
    1de0:	8d 2d       	mov	r24, r13
    1de2:	9f 2d       	mov	r25, r15
    1de4:	65 96       	adiw	r28, 0x15	; 21
    1de6:	e2 e1       	ldi	r30, 0x12	; 18
    1de8:	0c 94 21 17 	jmp	0x2e42	; 0x2e42 <__epilogue_restores__>

Disassembly of section .text.libgcc.builtins:

00002cea <__ashrdi3>:
    2cea:	97 fb       	bst	r25, 7
    2cec:	10 f8       	bld	r1, 0

00002cee <__lshrdi3>:
    2cee:	16 94       	lsr	r1
    2cf0:	00 08       	sbc	r0, r0
    2cf2:	0f 93       	push	r16
    2cf4:	08 30       	cpi	r16, 0x08	; 8
    2cf6:	98 f0       	brcs	.+38     	; 0x2d1e <__lshrdi3+0x30>
    2cf8:	08 50       	subi	r16, 0x08	; 8
    2cfa:	23 2f       	mov	r18, r19
    2cfc:	34 2f       	mov	r19, r20
    2cfe:	45 2f       	mov	r20, r21
    2d00:	56 2f       	mov	r21, r22
    2d02:	67 2f       	mov	r22, r23
    2d04:	78 2f       	mov	r23, r24
    2d06:	89 2f       	mov	r24, r25
    2d08:	90 2d       	mov	r25, r0
    2d0a:	f4 cf       	rjmp	.-24     	; 0x2cf4 <__lshrdi3+0x6>
    2d0c:	05 94       	asr	r0
    2d0e:	97 95       	ror	r25
    2d10:	87 95       	ror	r24
    2d12:	77 95       	ror	r23
    2d14:	67 95       	ror	r22
    2d16:	57 95       	ror	r21
    2d18:	47 95       	ror	r20
    2d1a:	37 95       	ror	r19
    2d1c:	27 95       	ror	r18
    2d1e:	0a 95       	dec	r16
    2d20:	aa f7       	brpl	.-22     	; 0x2d0c <__lshrdi3+0x1e>
    2d22:	0f 91       	pop	r16
    2d24:	08 95       	ret

Disassembly of section .text.libgcc:

0000311a <__adddi3_s8>:
    311a:	00 24       	eor	r0, r0
    311c:	a7 fd       	sbrc	r26, 7
    311e:	00 94       	com	r0
    3120:	2a 0f       	add	r18, r26
    3122:	30 1d       	adc	r19, r0
    3124:	40 1d       	adc	r20, r0
    3126:	50 1d       	adc	r21, r0
    3128:	60 1d       	adc	r22, r0
    312a:	70 1d       	adc	r23, r0
    312c:	80 1d       	adc	r24, r0
    312e:	90 1d       	adc	r25, r0
    3130:	08 95       	ret
